BL51 BANKED LINKER/LOCATER V6.22.2.0                                                    08/05/2020  11:21:06  PAGE 1


BL51 BANKED LINKER/LOCATER V6.22.2.0, INVOKED BY:
C:\KEIL_V5\C51\BIN\BL51.EXE .\Objects\main.obj, .\Objects\Accescan.obj, .\Objects\Clock.obj, .\Objects\delay.obj, .\Obje
>> cts\eeprom.obj, .\Objects\io_sensores.obj, .\Objects\pantallas.obj, .\Objects\prog.obj, .\Objects\pto_paralelo.obj, .
>> \Objects\tibbo.obj, .\Objects\uart.obj, .\Objects\verificador.obj, .\Objects\lintech.obj TO .\Objects\verificador_v_0
>> 1_raspberry PRINT (.\Listings\verificador_v_01_raspberry.m51) RAMSIZE (256)


MEMORY MODEL: LARGE WITH FLOATING POINT ARITHMETIC


INPUT MODULES INCLUDED:
  .\Objects\main.obj (MAIN)
  .\Objects\Accescan.obj (ACCESCAN)
  .\Objects\Clock.obj (CLOCK)
  .\Objects\delay.obj (DELAY)
  .\Objects\eeprom.obj (EEPROM)
  .\Objects\io_sensores.obj (IO_SENSORES)
  .\Objects\pantallas.obj (PANTALLAS)
  .\Objects\prog.obj (PROG)
  .\Objects\pto_paralelo.obj (PTO_PARALELO)
  .\Objects\tibbo.obj (TIBBO)
  .\Objects\uart.obj (UART)
  .\Objects\verificador.obj (VERIFICADOR)
  .\Objects\lintech.obj (LINTECH)
  C:\KEIL_V5\C51\LIB\C51FPL.LIB (?C?FPADD)
  C:\KEIL_V5\C51\LIB\C51FPL.LIB (?C?FPMUL)
  C:\KEIL_V5\C51\LIB\C51FPL.LIB (?C?FCAST)
  C:\KEIL_V5\C51\LIB\C51FPL.LIB (?C?CASTF)
  C:\KEIL_V5\C51\LIB\C51FPL.LIB (PRINTF)
  C:\KEIL_V5\C51\LIB\C51FPL.LIB (POW)
  C:\KEIL_V5\C51\LIB\C51FPL.LIB (?C?FPGETOPN)
  C:\KEIL_V5\C51\LIB\C51FPL.LIB (?C?CHKFLOAT)
  C:\KEIL_V5\C51\LIB\C51FPL.LIB (?C?FPCMP)
  C:\KEIL_V5\C51\LIB\C51FPL.LIB (?C?FPNEG)
  C:\KEIL_V5\C51\LIB\C51FPL.LIB (?C?FPROUND)
  C:\KEIL_V5\C51\LIB\C51FPL.LIB (?C?FPCONVERT)
  C:\KEIL_V5\C51\LIB\C51FPL.LIB (EXP)
  C:\KEIL_V5\C51\LIB\C51FPL.LIB (LOG)
  C:\KEIL_V5\C51\LIB\C51FPL.LIB (?C?FPDIV)
  C:\KEIL_V5\C51\LIB\C51FPL.LIB (?C?FTNPWR)
  C:\KEIL_V5\C51\LIB\C51FPL.LIB (?C?FPSERIES)
  C:\KEIL_V5\C51\LIB\C51L.LIB (?C_STARTUP)
  C:\KEIL_V5\C51\LIB\C51L.LIB (?C?COPY)
  C:\KEIL_V5\C51\LIB\C51L.LIB (?C?CLDPTR)
  C:\KEIL_V5\C51\LIB\C51L.LIB (?C?CLDOPTR)
  C:\KEIL_V5\C51\LIB\C51L.LIB (?C?CSTPTR)
  C:\KEIL_V5\C51\LIB\C51L.LIB (?C?CSTOPTR)
  C:\KEIL_V5\C51\LIB\C51L.LIB (?C?UIDIV)
  C:\KEIL_V5\C51\LIB\C51L.LIB (?C?IILDX)
  C:\KEIL_V5\C51\LIB\C51L.LIB (?C?LNEG)
  C:\KEIL_V5\C51\LIB\C51L.LIB (?C?LLDCODE)
  C:\KEIL_V5\C51\LIB\C51L.LIB (?C?LLDXDATA0)
  C:\KEIL_V5\C51\LIB\C51L.LIB (?C?LLDCODE0)
  C:\KEIL_V5\C51\LIB\C51L.LIB (?C?LSTXDATA)
  C:\KEIL_V5\C51\LIB\C51L.LIB (?C?LSTKXDATA)
  C:\KEIL_V5\C51\LIB\C51L.LIB (?C?PLDIXDATA)
  C:\KEIL_V5\C51\LIB\C51L.LIB (?C?PSTXDATA)
  C:\KEIL_V5\C51\LIB\C51L.LIB (?C?CCASE)
BL51 BANKED LINKER/LOCATER V6.22.2.0                                                  08/05/2020  11:21:06  PAGE 2


  C:\KEIL_V5\C51\LIB\C51L.LIB (STRCAT)
  C:\KEIL_V5\C51\LIB\C51L.LIB (?C?STRCMP)
  C:\KEIL_V5\C51\LIB\C51L.LIB (?C?STRCPY)
  C:\KEIL_V5\C51\LIB\C51L.LIB (STRLEN)
  C:\KEIL_V5\C51\LIB\C51L.LIB (STRTOK)
  C:\KEIL_V5\C51\LIB\C51L.LIB (ATOI)
  C:\KEIL_V5\C51\LIB\C51L.LIB (?C_INIT)
  C:\KEIL_V5\C51\LIB\C51L.LIB (?C?IMUL)
  C:\KEIL_V5\C51\LIB\C51L.LIB (?C?ILDIX)
  C:\KEIL_V5\C51\LIB\C51L.LIB (ISDIGIT)
  C:\KEIL_V5\C51\LIB\C51L.LIB (ISSPACE)
  C:\KEIL_V5\C51\LIB\C51L.LIB (STRSPN)
  C:\KEIL_V5\C51\LIB\C51L.LIB (STRPBRK)


LINK MAP OF MODULE:  .\Objects\verificador_v_01_raspberry (MAIN)


            TYPE    BASE      LENGTH    RELOCATION   SEGMENT NAME
            -----------------------------------------------------

            * * * * * * *   D A T A   M E M O R Y   * * * * * * *
            REG     0000H     0008H     ABSOLUTE     "REG BANK 0"
            DATA    0008H     0005H     UNIT         _DATA_GROUP_
            DATA    000DH     0004H     UNIT         ?DT?UART
                    0011H     000FH                  *** GAP ***
            BIT     0020H.0   0001H.1   UNIT         _BIT_GROUP_
            BIT     0021H.1   0000H.2   UNIT         ?BI?MAIN
            BIT     0021H.3   0000H.2   UNIT         ?BI?UART
            BIT     0021H.5   0000H.1   UNIT         ?BI?EEPROM
                    0021H.6   0000H.2                *** GAP ***
            IDATA   0022H     0064H     UNIT         ?ID?MAIN
            IDATA   0086H     0001H     UNIT         ?STACK

            * * * * * * *  X D A T A   M E M O R Y  * * * * * * *
            XDATA   0000H     00A1H     UNIT         _XDATA_GROUP_
            XDATA   00A1H     0070H     UNIT         ?XD?MAIN
            XDATA   0111H     0042H     UNIT         ?XD?PROG
            XDATA   0153H     0037H     UNIT         ?XD?VERIFICADOR
            XDATA   018AH     001EH     UNIT         ?XD?PTO_PARALELO
            XDATA   01A8H     0003H     UNIT         ?XD?EEPROM
            XDATA   01ABH     0003H     UNIT         ?XD?UART
            XDATA   01AEH     0003H     UNIT         ?XD?STRTOK
            XDATA   01B1H     0002H     UNIT         ?XD?ACCESCAN
            XDATA   01B3H     0001H     UNIT         ?XD?CLOCK
            XDATA   01B4H     0001H     UNIT         ?XD?IO_SENSORES
            XDATA   01B5H     0001H     UNIT         ?XD?PANTALLAS

            * * * * * * *   C O D E   M E M O R Y   * * * * * * *
            CODE    0000H     0003H     ABSOLUTE     
            CODE    0003H     0008H     UNIT         ?PR?P_CK?CLOCK
            CODE    000BH     0003H     ABSOLUTE     
            CODE    000EH     0015H     UNIT         ?PR?_STRLEN?STRLEN
            CODE    0023H     0003H     ABSOLUTE     
            CODE    0026H     0BC5H     UNIT         ?PR?SECUENCIAEXPEDIDOR?VERIFICADOR
            CODE    0BEBH     0B44H     UNIT         ?C?LIB_CODE
            CODE    172FH     07C4H     UNIT         ?CO?PROG
BL51 BANKED LINKER/LOCATER V6.22.2.0                                                  08/05/2020  11:21:06  PAGE 3


            CODE    1EF3H     0537H     UNIT         ?PR?_ANALIZA_TIEMPO?CLOCK
            CODE    242AH     048BH     UNIT         ?CO?VERIFICADOR
            CODE    28B5H     0483H     UNIT         ?PR?PRINTF?PRINTF
            CODE    2D38H     0431H     UNIT         ?CO?PANTALLAS
            CODE    3169H     0368H     UNIT         ?PR?_PANTALLALCD?PANTALLAS
            CODE    34D1H     0311H     UNIT         ?PR?_VALIDA_TRAMA_PTO?ACCESCAN
            CODE    37E2H     02D0H     UNIT         ?PR?_TWO_BYTEHEX_DECIMAL?CLOCK
            CODE    3AB2H     02CDH     UNIT         ?PR?_TRAMA_PTO_PARALELO_NEW?PTO_PARALELO
            CODE    3D7FH     0292H     UNIT         ?PR?_CMD_LPR_SALIDA?ACCESCAN
            CODE    4011H     01D8H     UNIT         ?PR?_BLOCK_READ_CLOCK_ASCII?CLOCK
            CODE    41E9H     01C1H     UNIT         ?PR?_HASH_ID?PROG
            CODE    43AAH     01B9H     UNIT         ?PR?MENU?PROG
            CODE    4563H     01B3H     UNIT         ?PR?COM_ISR?UART
            CODE    4716H     0179H     UNIT         ?PR?_CHECK_FECHAOUT?CLOCK
            CODE    488FH     0166H     UNIT         ?PR?_POW?POW
            CODE    49F5H     0165H     UNIT         ?CO?LINTECH
            CODE    4B5AH     0162H     UNIT         ?PR?_PANTALLALCD_LINEA_2?PANTALLAS
            CODE    4CBCH     0149H     UNIT         ?PR?_WR_MF?LINTECH
            CODE    4E05H     0140H     UNIT         ?PR?SECUENCIA_INICIO_EXPEDIDOR?VERIFICADOR
            CODE    4F45H     013EH     UNIT         ?PR?PROG_SIN_COBRO?PROG
            CODE    5083H     0129H     UNIT         ?PR?LOG?LOG
            CODE    51ACH     0115H     UNIT         ?PR?_VALIDAR_CLK?CLOCK
            CODE    52C1H     0110H     UNIT         ?PR?LOAD_AND_SEND_ID_COD?PTO_PARALELO
            CODE    53D1H     00FFH     UNIT         ?PR?_TRAMA_PTO_PARALELO_P?PTO_PARALELO
            CODE    54D0H     00FCH     UNIT         ?PR?PROG_DEBUG?PROG
            CODE    55CCH     00FCH     UNIT         ?PR?PROG_USE_LPR?PROG
            CODE    56C8H     00FCH     UNIT         ?PR?PROG_COMPARACION_ACTIVA?PROG
            CODE    57C4H     00FCH     UNIT         ?PR?TIPO_PANTALLA?PROG
            CODE    58C0H     00FCH     UNIT         ?PR?DCTO_CAJA?PROG
            CODE    59BCH     00EAH     UNIT         ?PR?_MOV_CARD?LINTECH
            CODE    5AA6H     00E4H     UNIT         ?PR?_STRTOK?STRTOK
            CODE    5B8AH     00DBH     UNIT         ?PR?_ATOI?ATOI
            CODE    5C65H     00D6H     UNIT         ?PR?_CMD_LPR_SALIDA_WIEGAND?ACCESCAN
            CODE    5D3BH     00C4H     UNIT         ?PR?_BLOCK_READ_CLOCK?CLOCK
            CODE    5DFFH     00C3H     UNIT         ?PR?_RD_MF?LINTECH
            CODE    5EC2H     00BDH     UNIT         ?PR?PROG_COD_PARK?PROG
            CODE    5F7FH     00BDH     UNIT         ?PR?PROG_TIEMPO_GRACIA?PROG
            CODE    603CH     00B6H     UNIT         ?PR?PROG_ID_CLIENTE?PROG
            CODE    60F2H     00B4H     UNIT         ?PR?_SEND_PORT?PTO_PARALELO
            CODE    61A6H     00AFH     UNIT         ?PR?ERROR_RX_PTO?VERIFICADOR
            CODE    6255H     00A9H     UNIT         ?PR?DWLOAD_EEPROM?LINTECH
            CODE    62FEH     00A7H     UNIT         ?CO?TIBBO
            CODE    63A5H     00A6H     UNIT         ?PR?_BLOCK_READ_CLOCK_HEX?CLOCK
            CODE    644BH     00A6H     UNIT         ?PR?_DEBUG_FECHA_ACTUAL?TIBBO
            CODE    64F1H     00A0H     UNIT         ?CO?IO_SENSORES
            CODE    6591H     009DH     UNIT         ?PR?_INICIALIZA?LINTECH
            CODE    662EH     009CH     UNIT         ?PR?_RECIBE_PORT?PTO_PARALELO
            CODE    66CAH     009BH     UNIT         ?C_INITSEG
            CODE    6765H     009AH     UNIT         ?PR?EXP?EXP
            CODE    67FFH     0095H     UNIT         ?PR?_RECIBE_CMD_MONITOR?ACCESCAN
            CODE    6894H     0091H     UNIT         ?PR?_CARD_INSERCION?LINTECH
            CODE    6925H     0091H     UNIT         ?PR?LOADVERIFY_EEPROM?LINTECH
            CODE    69B6H     0090H     UNIT         ?PR?_LEE_CLK?CLOCK
            CODE    6A46H     0090H     UNIT         ?PR?_GETOPTION?PROG
            CODE    6AD6H     008FH     UNIT         ?PR?_BLOCK_WRITE_CLOCK_ASCII?CLOCK
            CODE    6B65H     008CH     UNIT         ?C_C51STARTUP
            CODE    6BF1H     0088H     UNIT         ?PR?_SEND_PORTERR?PTO_PARALELO
BL51 BANKED LINKER/LOCATER V6.22.2.0                                                  08/05/2020  11:21:06  PAGE 4


            CODE    6C79H     0088H     UNIT         ?PR?RX_DATA?TIBBO
            CODE    6D01H     0085H     UNIT         ?PR?MAIN?MAIN
            CODE    6D86H     0084H     UNIT         ?PR?_STRSPN?STRSPN
            CODE    6E0AH     0081H     UNIT         ?PR?_STRPBRK?STRPBRK
            CODE    6E8BH     0080H     UNIT         ?PR?MSJ_LCD_INFORMATIVO?IO_SENSORES
            CODE    6F0BH     0080H     UNIT         ?PR?_INGRESADATO?PROG
            CODE    6F8BH     0080H     UNIT         ?PR?AUT_CARD_CHECK_STATUS?LINTECH
            CODE    700BH     007CH     UNIT         ?PR?_CHECK_STATUS?LINTECH
            CODE    7087H     0076H     UNIT         ?PR?_DEBUGBUFFERMF?TIBBO
            CODE    70FDH     0073H     UNIT         ?PR?VALIDASENSORESPASO?IO_SENSORES
            CODE    7170H     006BH     UNIT         ?PR?_STRCAT?STRCAT
            CODE    71DBH     0063H     UNIT         ?PR?SHOW?PROG
            CODE    723EH     0062H     UNIT         ?PR?_LISTACOMANDOS?PROG
            CODE    72A0H     005BH     UNIT         ?PR?_RASPBERRY_DATA?PANTALLAS
            CODE    72FBH     0057H     UNIT         ?PR?RELOJ_PANTALLA_LCD?PANTALLAS
            CODE    7352H     0056H     UNIT         ?PR?VARIABLE_INICIO?EEPROM
            CODE    73A8H     0053H     UNIT         ?PR?_BYTEHEX_DECIMAL?CLOCK
            CODE    73FBH     004DH     UNIT         ?PR?L_D_M?EEPROM
            CODE    7448H     004BH     UNIT         ?PR?_TX_AUX?TIBBO
            CODE    7493H     0048H     UNIT         ?PR?_DEBUG_PTO_PARALELO?TIBBO
            CODE    74DBH     0047H     UNIT         ?PR?_DEBUG_CHR_TIBBO?TIBBO
            CODE    7522H     0046H     UNIT         ?PR?_ESCRIBIRCADENASOFT_BUFFER?MAIN
            CODE    7568H     0046H     UNIT         ?PR?_LCD_TXT_NUM_CHAR?PANTALLAS
            CODE    75AEH     0046H     UNIT         ?PR?_DEBUG_HEXDEC?TIBBO
            CODE    75F4H     0045H     UNIT         ?PR?_VALIDARCLAVE?PROG
            CODE    7639H     0044H     UNIT         ?PR?_LCD_TXT?PANTALLAS
            CODE    767DH     0044H     UNIT         ?PR?_DEBUG_TXT_TIBBO?TIBBO
            CODE    76C1H     0041H     UNIT         ?PR?_MONITOR_CHR?ACCESCAN
            CODE    7702H     0041H     UNIT         ?PR?_TWO_ONE?CLOCK
            CODE    7743H     0040H     UNIT         ?PR?_GETCMD?PROG
            CODE    7783H     003FH     UNIT         ?PR?_EB_CLK?CLOCK
            CODE    77C2H     003FH     UNIT         ?PR?_WR_EEPROM?EEPROM
            CODE    7801H     003EH     UNIT         ?PR?_PUTCHAR?MAIN
            CODE    783FH     003DH     UNIT         ?PR?_RD_EEPROM?EEPROM
            CODE    787CH     003BH     UNIT         ?PR?_COM_PUTCHAR?UART
            CODE    78B7H     003AH     UNIT         ?PR?_DELAY_10MS?DELAY
            CODE    78F1H     0037H     UNIT         ?PR?TIMER0_INT?MAIN
            CODE    7928H     002CH     UNIT         ?PR?LOAD_AND_SEND_INFO_RELOJ?PTO_PARALELO
            CODE    7954H     002AH     UNIT         ?PR?COM_INITIALIZE?UART
            CODE    797EH     0028H     UNIT         ?PR?_WR_CLK?CLOCK
            CODE    79A6H     0028H     UNIT         ?PR?COM_BAUDRATE?UART
            CODE    79CEH     0027H     UNIT         ?PR?_TX_CHRLCD?PANTALLAS
            CODE    79F5H     0026H     UNIT         ?PR?COM_GETCHAR?UART
            CODE    7A1BH     0024H     UNIT         ?PR?TRAMA_VALIDACION_P_N?VERIFICADOR
            CODE    7A3FH     0022H     UNIT         ?PR?_E_D_M?EEPROM
            CODE    7A61H     0021H     UNIT         ?PR?_HEX_BCD?CLOCK
            CODE    7A82H     0020H     UNIT         ?PR?ACKD?EEPROM
            CODE    7AA2H     0020H     UNIT         ?PR?ACK_LECT?EEPROM
            CODE    7AC2H     001FH     UNIT         ?PR?VALIDASENSOR?IO_SENSORES
            CODE    7AE1H     001FH     UNIT         ?PR?VALIDASENSORES_OUT?IO_SENSORES
            CODE    7B00H     001FH     UNIT         ?PR?TIME_BIT?TIBBO
            CODE    7B1FH     001EH     UNIT         ?PR?_BCD_HEX?CLOCK
            CODE    7B3DH     001DH     UNIT         ?CO?PTO_PARALELO
            CODE    7B5AH     001BH     UNIT         ?PR?_DELAY_1MS?DELAY
            CODE    7B75H     0017H     UNIT         ?PR?DISPLAYCURSOR?PROG
            CODE    7B8CH     0017H     UNIT         ?PR?TIME_MBIT?TIBBO
            CODE    7BA3H     0014H     UNIT         ?PR?_ISSPACE?ISSPACE
BL51 BANKED LINKER/LOCATER V6.22.2.0                                                  08/05/2020  11:21:06  PAGE 5


            CODE    7BB7H     0012H     UNIT         ?PR?_DELAY_20US?DELAY
            CODE    7BC9H     0012H     UNIT         ?PR?START?EEPROM
            CODE    7BDBH     0012H     UNIT         ?PR?DIR_BOARD?IO_SENSORES
            CODE    7BEDH     0012H     UNIT         ?PR?PULSO_BUS?PTO_PARALELO
            CODE    7BFFH     0012H     UNIT         ?PR?COM_RBUFLEN?UART
            CODE    7C11H     0012H     UNIT         ?PR?COM_TBUFLEN?UART
            CODE    7C23H     0010H     UNIT         ?PR?INI_TIMER?MAIN
            CODE    7C33H     0010H     UNIT         ?PR?INICIA_BOARD?MAIN
            CODE    7C43H     000FH     UNIT         ?PR?_ISDIGIT?ISDIGIT
            CODE    7C52H     000CH     UNIT         ?PR?_GETKEY?MAIN
            CODE    7C5EH     000AH     UNIT         ?PR?COND_INI_PTO?PTO_PARALELO
            CODE    7C68H     0009H     UNIT         ?PR?STOP?EEPROM
            CODE    7C71H     0009H     UNIT         ?PR?DEBUG_DIVIDIR_TEXTO?TIBBO
            CODE    7C7AH     0007H     UNIT         ?PR?COND_INI_CLOCK?CLOCK
            CODE    7C81H     0007H     UNIT         ?PR?SEL_FUNCION?IO_SENSORES
            CODE    7C88H     0007H     UNIT         ?PR?SEL_AUTO?IO_SENSORES
            CODE    7C8FH     0007H     UNIT         ?PR?SEL_SENSOR2?IO_SENSORES
            CODE    7C96H     0007H     UNIT         ?PR?SEL_SENSOR1?IO_SENSORES
            CODE    7C9DH     0007H     UNIT         ?PR?SEL_DIR1?IO_SENSORES
            CODE    7CA4H     0007H     UNIT         ?PR?SEL_DIR2?IO_SENSORES
            CODE    7CABH     0006H     UNIT         ?PR?P_ME?EEPROM
            CODE    7CB1H     0005H     UNIT         ?PR?ON_TIMER0_INTERRUP?MAIN
            CODE    7CB6H     0005H     UNIT         ?CO?ACCESCAN
            CODE    7CBBH     0005H     UNIT         ?PR?COND_INI_TIBBO?TIBBO
            CODE    7CC0H     0003H     UNIT         ?PR?OFF_TIMER0_INTERRUP?MAIN
            CODE    7CC3H     0001H     UNIT         ?PR?DELAY?DELAY



OVERLAY MAP OF MODULE:   .\Objects\verificador_v_01_raspberry (MAIN)


SEGMENT                                             BIT_GROUP          DATA_GROUP          XDATA_GROUP
  +--> CALLED SEGMENT                            START    LENGTH     START    LENGTH     START    LENGTH
--------------------------------------------------------------------------------------------------------
?C_C51STARTUP                                    -----    -----      -----    -----      -----    -----
  +--> ?PR?MAIN?MAIN
  +--> ?C_INITSEG

?PR?MAIN?MAIN                                    -----    -----      -----    -----      0000H    0001H
  +--> ?PR?INI_TIMER?MAIN
  +--> ?PR?ON_TIMER0_INTERRUP?MAIN
  +--> ?PR?COM_INITIALIZE?UART
  +--> ?PR?COM_BAUDRATE?UART
  +--> ?PR?INICIA_BOARD?MAIN
  +--> ?PR?TIME_BIT?TIBBO
  +--> ?PR?_DELAY_20US?DELAY
  +--> ?PR?TIME_MBIT?TIBBO
  +--> ?PR?_TX_AUX?TIBBO
  +--> ?PR?SEL_FUNCION?IO_SENSORES
  +--> ?PR?MENU?PROG
  +--> ?PR?VARIABLE_INICIO?EEPROM
  +--> ?PR?SECUENCIA_INICIO_EXPEDIDOR?VERIFI...
  +--> ?PR?_RECIBE_CMD_MONITOR?ACCESCAN
  +--> ?PR?SECUENCIAEXPEDIDOR?VERIFICADOR
  +--> ?PR?_RECIBE_PORT?PTO_PARALELO
  +--> ?PR?_VALIDA_TRAMA_PTO?ACCESCAN
BL51 BANKED LINKER/LOCATER V6.22.2.0                                                  08/05/2020  11:21:06  PAGE 6


  +--> ?PR?_DEBUG_PTO_PARALELO?TIBBO
  +--> ?PR?MSJ_LCD_INFORMATIVO?IO_SENSORES

?PR?COM_INITIALIZE?UART                          -----    -----      -----    -----      -----    -----
  +--> ?PR?COM_BAUDRATE?UART

?PR?INICIA_BOARD?MAIN                            -----    -----      -----    -----      -----    -----
  +--> ?PR?COND_INI_TIBBO?TIBBO
  +--> ?PR?COND_INI_CLOCK?CLOCK
  +--> ?PR?COND_INI_PTO?PTO_PARALELO

?PR?_TX_AUX?TIBBO                                -----    -----      -----    -----      -----    -----
  +--> ?PR?TIME_BIT?TIBBO

?PR?MENU?PROG                                    -----    -----      -----    -----      0001H    005CH
  +--> ?CO?PROG
  +--> ?PR?PRINTF?PRINTF
  +--> ?PR?_INGRESADATO?PROG
  +--> ?PR?_GETCMD?PROG
  +--> ?PR?_HASH_ID?PROG
  +--> ?PR?_VALIDARCLAVE?PROG
  +--> ?PR?DISPLAYCURSOR?PROG
  +--> ?PR?_STRLEN?STRLEN
  +--> ?PR?_GETOPTION?PROG
  +--> ?PR?_STRCAT?STRCAT
  +--> ?PR?_LISTACOMANDOS?PROG
  +--> ?PR?PROG_ID_CLIENTE?PROG
  +--> ?PR?PROG_COD_PARK?PROG
  +--> ?PR?PROG_TIEMPO_GRACIA?PROG
  +--> ?PR?PROG_SIN_COBRO?PROG
  +--> ?PR?PROG_DEBUG?PROG
  +--> ?PR?PROG_USE_LPR?PROG
  +--> ?PR?PROG_COMPARACION_ACTIVA?PROG
  +--> ?PR?TIPO_PANTALLA?PROG
  +--> ?PR?DCTO_CAJA?PROG
  +--> ?PR?SHOW?PROG

?PR?PRINTF?PRINTF                                0020H.0  0001H.1    0008H    0005H      006DH    0030H
  +--> ?PR?_PUTCHAR?MAIN

?PR?_PUTCHAR?MAIN                                -----    -----      -----    -----      009DH    0003H
  +--> ?PR?_COM_PUTCHAR?UART

?PR?_COM_PUTCHAR?UART                            -----    -----      -----    -----      00A0H    0001H
  +--> ?PR?COM_TBUFLEN?UART

?PR?_INGRESADATO?PROG                            -----    -----      -----    -----      0069H    0004H
  +--> ?PR?_GETKEY?MAIN
  +--> ?CO?PROG
  +--> ?PR?PRINTF?PRINTF
  +--> ?PR?_PUTCHAR?MAIN

?PR?_GETKEY?MAIN                                 -----    -----      -----    -----      -----    -----
  +--> ?PR?COM_GETCHAR?UART

?PR?COM_GETCHAR?UART                             -----    -----      -----    -----      -----    -----
  +--> ?PR?COM_RBUFLEN?UART
BL51 BANKED LINKER/LOCATER V6.22.2.0                                                  08/05/2020  11:21:06  PAGE 7



?PR?_GETCMD?PROG                                 -----    -----      -----    -----      005DH    0007H
  +--> ?CO?PROG
  +--> ?PR?_STRTOK?STRTOK

?PR?_STRTOK?STRTOK                               -----    -----      -----    -----      0068H    0006H
  +--> ?PR?_STRSPN?STRSPN
  +--> ?PR?_STRPBRK?STRPBRK

?PR?_STRSPN?STRSPN                               -----    -----      -----    -----      006EH    0008H

?PR?_STRPBRK?STRPBRK                             -----    -----      -----    -----      006EH    0009H

?PR?_HASH_ID?PROG                                -----    -----      -----    -----      005DH    0036H
  +--> ?CO?PROG
  +--> ?PR?_STRLEN?STRLEN

?PR?_VALIDARCLAVE?PROG                           -----    -----      -----    -----      005DH    000AH

?PR?DISPLAYCURSOR?PROG                           -----    -----      -----    -----      -----    -----
  +--> ?CO?PROG
  +--> ?PR?PRINTF?PRINTF

?PR?_GETOPTION?PROG                              -----    -----      -----    -----      005DH    000BH
  +--> ?CO?PROG
  +--> ?PR?_STRTOK?STRTOK

?PR?_STRCAT?STRCAT                               -----    -----      -----    -----      005DH    0009H

?PR?_LISTACOMANDOS?PROG                          -----    -----      -----    -----      005DH    0007H

?PR?PROG_ID_CLIENTE?PROG                         -----    -----      -----    -----      005DH    000CH
  +--> ?PR?_RD_EEPROM?EEPROM
  +--> ?CO?PROG
  +--> ?PR?PRINTF?PRINTF
  +--> ?PR?_INGRESADATO?PROG
  +--> ?PR?_ATOI?ATOI
  +--> ?PR?_WR_EEPROM?EEPROM

?PR?_RD_EEPROM?EEPROM                            -----    -----      -----    -----      -----    -----
  +--> ?PR?START?EEPROM
  +--> ?PR?ACK_LECT?EEPROM
  +--> ?PR?_E_D_M?EEPROM
  +--> ?PR?ACKD?EEPROM
  +--> ?PR?L_D_M?EEPROM
  +--> ?PR?STOP?EEPROM

?PR?ACK_LECT?EEPROM                              -----    -----      -----    -----      -----    -----
  +--> ?PR?_E_D_M?EEPROM

?PR?_E_D_M?EEPROM                                -----    -----      -----    -----      -----    -----
  +--> ?PR?P_ME?EEPROM

?PR?ACKD?EEPROM                                  -----    -----      -----    -----      -----    -----
  +--> ?PR?_E_D_M?EEPROM

?PR?_ATOI?ATOI                                   0020H.0  0000H.1    -----    -----      0069H    0005H
BL51 BANKED LINKER/LOCATER V6.22.2.0                                                  08/05/2020  11:21:06  PAGE 8


  +--> ?PR?_ISSPACE?ISSPACE
  +--> ?PR?_ISDIGIT?ISDIGIT

?PR?_WR_EEPROM?EEPROM                            -----    -----      -----    -----      -----    -----
  +--> ?PR?START?EEPROM
  +--> ?PR?ACKD?EEPROM
  +--> ?PR?_E_D_M?EEPROM
  +--> ?PR?STOP?EEPROM
  +--> ?PR?_DELAY_1MS?DELAY
  +--> ?PR?_DELAY_20US?DELAY

?PR?_DELAY_1MS?DELAY                             -----    -----      -----    -----      -----    -----
  +--> ?PR?_DELAY_20US?DELAY

?PR?PROG_COD_PARK?PROG                           -----    -----      -----    -----      005DH    000CH
  +--> ?PR?_RD_EEPROM?EEPROM
  +--> ?CO?PROG
  +--> ?PR?PRINTF?PRINTF
  +--> ?PR?_INGRESADATO?PROG
  +--> ?PR?_ATOI?ATOI
  +--> ?PR?_WR_EEPROM?EEPROM

?PR?PROG_TIEMPO_GRACIA?PROG                      -----    -----      -----    -----      005DH    000CH
  +--> ?PR?_RD_EEPROM?EEPROM
  +--> ?CO?PROG
  +--> ?PR?PRINTF?PRINTF
  +--> ?PR?_INGRESADATO?PROG
  +--> ?PR?_ATOI?ATOI
  +--> ?PR?_WR_EEPROM?EEPROM

?PR?PROG_SIN_COBRO?PROG                          -----    -----      -----    -----      005DH    000CH
  +--> ?PR?_RD_EEPROM?EEPROM
  +--> ?CO?PROG
  +--> ?PR?PRINTF?PRINTF
  +--> ?PR?_INGRESADATO?PROG
  +--> ?PR?_ATOI?ATOI
  +--> ?PR?_WR_EEPROM?EEPROM

?PR?PROG_DEBUG?PROG                              -----    -----      -----    -----      005DH    000CH
  +--> ?PR?_RD_EEPROM?EEPROM
  +--> ?CO?PROG
  +--> ?PR?PRINTF?PRINTF
  +--> ?PR?_INGRESADATO?PROG
  +--> ?PR?_ATOI?ATOI
  +--> ?PR?_WR_EEPROM?EEPROM

?PR?PROG_USE_LPR?PROG                            -----    -----      -----    -----      005DH    000CH
  +--> ?PR?_RD_EEPROM?EEPROM
  +--> ?CO?PROG
  +--> ?PR?PRINTF?PRINTF
  +--> ?PR?_INGRESADATO?PROG
  +--> ?PR?_ATOI?ATOI
  +--> ?PR?_WR_EEPROM?EEPROM

?PR?PROG_COMPARACION_ACTIVA?PROG                 -----    -----      -----    -----      005DH    000CH
  +--> ?PR?_RD_EEPROM?EEPROM
  +--> ?CO?PROG
BL51 BANKED LINKER/LOCATER V6.22.2.0                                                  08/05/2020  11:21:06  PAGE 9


  +--> ?PR?PRINTF?PRINTF
  +--> ?PR?_INGRESADATO?PROG
  +--> ?PR?_ATOI?ATOI
  +--> ?PR?_WR_EEPROM?EEPROM

?PR?TIPO_PANTALLA?PROG                           -----    -----      -----    -----      005DH    000CH
  +--> ?PR?_RD_EEPROM?EEPROM
  +--> ?CO?PROG
  +--> ?PR?PRINTF?PRINTF
  +--> ?PR?_INGRESADATO?PROG
  +--> ?PR?_ATOI?ATOI
  +--> ?PR?_WR_EEPROM?EEPROM

?PR?DCTO_CAJA?PROG                               -----    -----      -----    -----      005DH    000CH
  +--> ?PR?_RD_EEPROM?EEPROM
  +--> ?CO?PROG
  +--> ?PR?PRINTF?PRINTF
  +--> ?PR?_INGRESADATO?PROG
  +--> ?PR?_ATOI?ATOI
  +--> ?PR?_WR_EEPROM?EEPROM

?PR?SHOW?PROG                                    -----    -----      -----    -----      -----    -----
  +--> ?CO?PROG
  +--> ?PR?PRINTF?PRINTF

?PR?VARIABLE_INICIO?EEPROM                       -----    -----      -----    -----      -----    -----
  +--> ?PR?_RD_EEPROM?EEPROM

?PR?SECUENCIA_INICIO_EXPEDIDOR?VERIFI...         -----    -----      -----    -----      0001H    0001H
  +--> ?PR?_INICIALIZA?LINTECH
  +--> ?PR?TRAMA_VALIDACION_P_N?VERIFICADOR
  +--> ?CO?VERIFICADOR
  +--> ?PR?_DEBUG_TXT_TIBBO?TIBBO
  +--> ?PR?_DEBUGBUFFERMF?TIBBO
  +--> ?PR?DWLOAD_EEPROM?LINTECH

?PR?_INICIALIZA?LINTECH                          -----    -----      -----    -----      0002H    000CH
  +--> ?CO?LINTECH
  +--> ?PR?_DEBUG_TXT_TIBBO?TIBBO
  +--> ?PR?_DEBUGBUFFERMF?TIBBO
  +--> ?PR?_ESCRIBIRCADENASOFT_BUFFER?MAIN

?PR?_DEBUG_TXT_TIBBO?TIBBO                       -----    -----      -----    -----      003AH    0004H
  +--> ?CO?TIBBO
  +--> ?PR?_TX_AUX?TIBBO

?PR?_DEBUGBUFFERMF?TIBBO                         -----    -----      -----    -----      0034H    0006H
  +--> ?PR?DEBUG_DIVIDIR_TEXTO?TIBBO
  +--> ?CO?TIBBO
  +--> ?PR?_DEBUG_TXT_TIBBO?TIBBO
  +--> ?PR?_DEBUG_CHR_TIBBO?TIBBO
  +--> ?PR?_TX_AUX?TIBBO

?PR?DEBUG_DIVIDIR_TEXTO?TIBBO                    -----    -----      -----    -----      -----    -----
  +--> ?CO?TIBBO
  +--> ?PR?_DEBUG_TXT_TIBBO?TIBBO

BL51 BANKED LINKER/LOCATER V6.22.2.0                                                  08/05/2020  11:21:06  PAGE 10


?PR?_DEBUG_CHR_TIBBO?TIBBO                       -----    -----      -----    -----      -----    -----
  +--> ?PR?_TX_AUX?TIBBO

?PR?_ESCRIBIRCADENASOFT_BUFFER?MAIN              -----    -----      -----    -----      0034H    0006H
  +--> ?PR?_PUTCHAR?MAIN

?PR?DWLOAD_EEPROM?LINTECH                        -----    -----      -----    -----      0002H    0016H
  +--> ?CO?LINTECH
  +--> ?PR?_DEBUG_TXT_TIBBO?TIBBO
  +--> ?PR?_DEBUGBUFFERMF?TIBBO
  +--> ?PR?_ESCRIBIRCADENASOFT_BUFFER?MAIN

?PR?_RECIBE_CMD_MONITOR?ACCESCAN                 -----    -----      -----    -----      0001H    0006H
  +--> ?PR?RX_DATA?TIBBO

?PR?RX_DATA?TIBBO                                -----    -----      -----    -----      -----    -----
  +--> ?PR?TIME_MBIT?TIBBO
  +--> ?PR?TIME_BIT?TIBBO

?PR?SECUENCIAEXPEDIDOR?VERIFICADOR               -----    -----      -----    -----      0001H    000DH
  +--> ?PR?_CARD_INSERCION?LINTECH
  +--> ?PR?TRAMA_VALIDACION_P_N?VERIFICADOR
  +--> ?CO?VERIFICADOR
  +--> ?PR?ERROR_RX_PTO?VERIFICADOR
  +--> ?PR?_CHECK_STATUS?LINTECH
  +--> ?PR?_DEBUG_TXT_TIBBO?TIBBO
  +--> ?PR?_DEBUGBUFFERMF?TIBBO
  +--> ?PR?VALIDASENSORESPASO?IO_SENSORES
  +--> ?PR?_SEND_PORTERR?PTO_PARALELO
  +--> ?PR?_PANTALLALCD?PANTALLAS
  +--> ?PR?AUT_CARD_CHECK_STATUS?LINTECH
  +--> ?PR?LOADVERIFY_EEPROM?LINTECH
  +--> ?PR?_RD_MF?LINTECH
  +--> ?PR?_DEBUG_HEXDEC?TIBBO
  +--> ?PR?_DEBUG_CHR_TIBBO?TIBBO
  +--> ?PR?_BLOCK_READ_CLOCK_HEX?CLOCK
  +--> ?PR?_RD_EEPROM?EEPROM
  +--> ?PR?DEBUG_DIVIDIR_TEXTO?TIBBO
  +--> ?PR?PRINTF?PRINTF
  +--> ?PR?_ANALIZA_TIEMPO?CLOCK
  +--> ?PR?_CHECK_FECHAOUT?CLOCK
  +--> ?PR?_TRAMA_PTO_PARALELO_NEW?PTO_PARALELO
  +--> ?PR?_CMD_LPR_SALIDA?ACCESCAN
  +--> ?PR?_WR_MF?LINTECH
  +--> ?PR?_MOV_CARD?LINTECH
  +--> ?PR?VALIDASENSORES_OUT?IO_SENSORES
  +--> ?PR?_TRAMA_PTO_PARALELO_P?PTO_PARALELO

?PR?_CARD_INSERCION?LINTECH                      -----    -----      -----    -----      000EH    000AH
  +--> ?CO?LINTECH
  +--> ?PR?_DEBUG_TXT_TIBBO?TIBBO
  +--> ?PR?_DEBUGBUFFERMF?TIBBO
  +--> ?PR?_ESCRIBIRCADENASOFT_BUFFER?MAIN

?PR?ERROR_RX_PTO?VERIFICADOR                     -----    -----      -----    -----      000EH    0001H
  +--> ?CO?VERIFICADOR
  +--> ?PR?_DEBUG_TXT_TIBBO?TIBBO
BL51 BANKED LINKER/LOCATER V6.22.2.0                                                  08/05/2020  11:21:06  PAGE 11


  +--> ?PR?_DEBUG_CHR_TIBBO?TIBBO
  +--> ?PR?_DELAY_10MS?DELAY

?PR?_DELAY_10MS?DELAY                            -----    -----      -----    -----      000FH    0004H
  +--> ?PR?_DELAY_1MS?DELAY

?PR?_CHECK_STATUS?LINTECH                        -----    -----      -----    -----      000EH    000BH
  +--> ?CO?LINTECH
  +--> ?PR?_DEBUG_TXT_TIBBO?TIBBO
  +--> ?PR?_DEBUGBUFFERMF?TIBBO
  +--> ?PR?_ESCRIBIRCADENASOFT_BUFFER?MAIN

?PR?VALIDASENSORESPASO?IO_SENSORES               -----    -----      -----    -----      -----    -----
  +--> ?PR?SEL_SENSOR2?IO_SENSORES
  +--> ?PR?VALIDASENSOR?IO_SENSORES
  +--> ?PR?SEL_SENSOR1?IO_SENSORES
  +--> ?PR?SEL_AUTO?IO_SENSORES
  +--> ?CO?IO_SENSORES
  +--> ?PR?_DEBUG_TXT_TIBBO?TIBBO

?PR?_SEND_PORTERR?PTO_PARALELO                   -----    -----      -----    -----      000EH    0006H
  +--> ?PR?PULSO_BUS?PTO_PARALELO
  +--> ?PR?_DELAY_20US?DELAY

?PR?PULSO_BUS?PTO_PARALELO                       -----    -----      -----    -----      -----    -----
  +--> ?PR?_DELAY_20US?DELAY

?PR?_PANTALLALCD?PANTALLAS                       -----    -----      -----    -----      0010H    0008H
  +--> ?CO?PANTALLAS
  +--> ?PR?_LCD_TXT?PANTALLAS
  +--> ?PR?_STRLEN?STRLEN
  +--> ?PR?_TX_CHRLCD?PANTALLAS
  +--> ?PR?_RASPBERRY_DATA?PANTALLAS

?PR?_LCD_TXT?PANTALLAS                           -----    -----      -----    -----      003AH    0005H
  +--> ?PR?_TX_CHRLCD?PANTALLAS

?PR?_TX_CHRLCD?PANTALLAS                         -----    -----      -----    -----      003FH    0002H
  +--> ?PR?_PUTCHAR?MAIN

?PR?_RASPBERRY_DATA?PANTALLAS                    -----    -----      -----    -----      003AH    0005H
  +--> ?PR?_STRLEN?STRLEN
  +--> ?PR?_PUTCHAR?MAIN

?PR?AUT_CARD_CHECK_STATUS?LINTECH                -----    -----      -----    -----      000EH    000BH
  +--> ?CO?LINTECH
  +--> ?PR?_DEBUG_TXT_TIBBO?TIBBO
  +--> ?PR?_DEBUGBUFFERMF?TIBBO
  +--> ?PR?_ESCRIBIRCADENASOFT_BUFFER?MAIN

?PR?LOADVERIFY_EEPROM?LINTECH                    -----    -----      -----    -----      000EH    0010H
  +--> ?CO?LINTECH
  +--> ?PR?_DEBUG_TXT_TIBBO?TIBBO
  +--> ?PR?_DEBUGBUFFERMF?TIBBO
  +--> ?PR?_ESCRIBIRCADENASOFT_BUFFER?MAIN

?PR?_RD_MF?LINTECH                               -----    -----      -----    -----      000EH    0012H
BL51 BANKED LINKER/LOCATER V6.22.2.0                                                  08/05/2020  11:21:06  PAGE 12


  +--> ?CO?LINTECH
  +--> ?PR?_DEBUG_TXT_TIBBO?TIBBO
  +--> ?PR?_DEBUG_CHR_TIBBO?TIBBO
  +--> ?PR?_DEBUGBUFFERMF?TIBBO
  +--> ?PR?_ESCRIBIRCADENASOFT_BUFFER?MAIN

?PR?_DEBUG_HEXDEC?TIBBO                          -----    -----      -----    -----      000EH    0002H
  +--> ?PR?_TX_AUX?TIBBO

?PR?_BLOCK_READ_CLOCK_HEX?CLOCK                  -----    -----      -----    -----      0034H    0003H
  +--> ?PR?_LEE_CLK?CLOCK
  +--> ?PR?_BCD_HEX?CLOCK

?PR?_LEE_CLK?CLOCK                               -----    -----      -----    -----      0037H    0003H
  +--> ?PR?_DELAY_20US?DELAY
  +--> ?PR?_EB_CLK?CLOCK
  +--> ?PR?P_CK?CLOCK

?PR?_EB_CLK?CLOCK                                -----    -----      -----    -----      003AH    0003H
  +--> ?PR?P_CK?CLOCK

?PR?P_CK?CLOCK                                   -----    -----      -----    -----      -----    -----
  +--> ?PR?DELAY?DELAY

?PR?_ANALIZA_TIEMPO?CLOCK                        0020H.0  0000H.2    -----    -----      000EH    000FH

?PR?_CHECK_FECHAOUT?CLOCK                        -----    -----      -----    -----      000EH    000AH
  +--> ?PR?_BLOCK_READ_CLOCK_HEX?CLOCK
  +--> ?PR?_DEBUG_FECHA_ACTUAL?TIBBO

?PR?_DEBUG_FECHA_ACTUAL?TIBBO                    -----    -----      -----    -----      0018H    0003H
  +--> ?CO?TIBBO
  +--> ?PR?_DEBUG_TXT_TIBBO?TIBBO
  +--> ?PR?_HEX_BCD?CLOCK
  +--> ?PR?_DEBUG_CHR_TIBBO?TIBBO
  +--> ?PR?_TX_AUX?TIBBO

?PR?_TRAMA_PTO_PARALELO_NEW?PTO_PARALELO         -----    -----      -----    -----      000EH    0026H
  +--> ?PR?_BLOCK_READ_CLOCK_HEX?CLOCK
  +--> ?PR?_SEND_PORT?PTO_PARALELO
  +--> ?PR?DEBUG_DIVIDIR_TEXTO?TIBBO
  +--> ?CO?PTO_PARALELO
  +--> ?PR?_DEBUG_TXT_TIBBO?TIBBO
  +--> ?PR?_DEBUGBUFFERMF?TIBBO

?PR?_SEND_PORT?PTO_PARALELO                      -----    -----      -----    -----      0034H    000AH
  +--> ?PR?PULSO_BUS?PTO_PARALELO
  +--> ?PR?_DELAY_20US?DELAY

?PR?_CMD_LPR_SALIDA?ACCESCAN                     -----    -----      -----    -----      000EH    0025H
  +--> ?PR?DIR_BOARD?IO_SENSORES
  +--> ?PR?_HEX_BCD?CLOCK
  +--> ?PR?_MONITOR_CHR?ACCESCAN

?PR?DIR_BOARD?IO_SENSORES                        -----    -----      -----    -----      -----    -----
  +--> ?PR?SEL_DIR1?IO_SENSORES
  +--> ?PR?SEL_DIR2?IO_SENSORES
BL51 BANKED LINKER/LOCATER V6.22.2.0                                                  08/05/2020  11:21:06  PAGE 13



?PR?_MONITOR_CHR?ACCESCAN                        -----    -----      -----    -----      0033H    0005H
  +--> ?PR?_TX_AUX?TIBBO

?PR?_WR_MF?LINTECH                               -----    -----      -----    -----      000EH    0026H
  +--> ?CO?LINTECH
  +--> ?PR?_DEBUG_TXT_TIBBO?TIBBO
  +--> ?PR?_DEBUG_CHR_TIBBO?TIBBO
  +--> ?PR?DIR_BOARD?IO_SENSORES
  +--> ?PR?_DEBUGBUFFERMF?TIBBO
  +--> ?PR?_ESCRIBIRCADENASOFT_BUFFER?MAIN

?PR?_MOV_CARD?LINTECH                            -----    -----      -----    -----      000EH    000CH
  +--> ?CO?LINTECH
  +--> ?PR?_DEBUG_TXT_TIBBO?TIBBO
  +--> ?PR?_DEBUGBUFFERMF?TIBBO
  +--> ?PR?_ESCRIBIRCADENASOFT_BUFFER?MAIN

?PR?VALIDASENSORES_OUT?IO_SENSORES               -----    -----      -----    -----      -----    -----
  +--> ?PR?SEL_SENSOR2?IO_SENSORES
  +--> ?PR?VALIDASENSOR?IO_SENSORES

?PR?_TRAMA_PTO_PARALELO_P?PTO_PARALELO           -----    -----      -----    -----      000EH    0008H
  +--> ?PR?_SEND_PORT?PTO_PARALELO
  +--> ?PR?DEBUG_DIVIDIR_TEXTO?TIBBO
  +--> ?PR?_DEBUGBUFFERMF?TIBBO

?PR?_RECIBE_PORT?PTO_PARALELO                    -----    -----      -----    -----      0001H    0008H
  +--> ?PR?OFF_TIMER0_INTERRUP?MAIN
  +--> ?PR?ON_TIMER0_INTERRUP?MAIN

?PR?_VALIDA_TRAMA_PTO?ACCESCAN                   -----    -----      -----    -----      0001H    000FH
  +--> ?PR?_RD_EEPROM?EEPROM
  +--> ?PR?_VALIDAR_CLK?CLOCK
  +--> ?PR?_BLOCK_WRITE_CLOCK_ASCII?CLOCK
  +--> ?PR?RELOJ_PANTALLA_LCD?PANTALLAS
  +--> ?PR?_PANTALLALCD?PANTALLAS
  +--> ?CO?ACCESCAN
  +--> ?PR?_DEBUG_TXT_TIBBO?TIBBO
  +--> ?PR?_BYTEHEX_DECIMAL?CLOCK
  +--> ?PR?_TWO_BYTEHEX_DECIMAL?CLOCK
  +--> ?PR?VALIDASENSORESPASO?IO_SENSORES
  +--> ?PR?_CMD_LPR_SALIDA_WIEGAND?ACCESCAN
  +--> ?PR?_PANTALLALCD_LINEA_2?PANTALLAS

?PR?_BLOCK_WRITE_CLOCK_ASCII?CLOCK               -----    -----      -----    -----      0010H    0003H
  +--> ?PR?_TWO_ONE?CLOCK
  +--> ?PR?_WR_CLK?CLOCK

?PR?_WR_CLK?CLOCK                                -----    -----      -----    -----      0013H    0002H
  +--> ?PR?_DELAY_20US?DELAY
  +--> ?PR?_EB_CLK?CLOCK

?PR?RELOJ_PANTALLA_LCD?PANTALLAS                 -----    -----      -----    -----      0010H    000DH
  +--> ?CO?PANTALLAS
  +--> ?PR?_BLOCK_READ_CLOCK?CLOCK
  +--> ?PR?_LCD_TXT_NUM_CHAR?PANTALLAS
BL51 BANKED LINKER/LOCATER V6.22.2.0                                                  08/05/2020  11:21:06  PAGE 14


  +--> ?PR?_RASPBERRY_DATA?PANTALLAS

?PR?_BLOCK_READ_CLOCK?CLOCK                      -----    -----      -----    -----      001DH    0003H
  +--> ?PR?_LEE_CLK?CLOCK

?PR?_LCD_TXT_NUM_CHAR?PANTALLAS                  -----    -----      -----    -----      001DH    0006H
  +--> ?PR?_TX_CHRLCD?PANTALLAS

?PR?_BYTEHEX_DECIMAL?CLOCK                       -----    -----      -----    -----      0010H    0001H

?PR?_TWO_BYTEHEX_DECIMAL?CLOCK                   -----    -----      -----    -----      0010H    000CH
  +--> ?PR?_POW?POW

?PR?_POW?POW                                     -----    -----      -----    -----      001CH    000AH
  +--> ?PR?LOG?LOG
  +--> ?PR?EXP?EXP

?PR?LOG?LOG                                      0020H.0  0000H.1    -----    -----      0026H    0004H

?PR?_CMD_LPR_SALIDA_WIEGAND?ACCESCAN             -----    -----      -----    -----      0010H    0022H
  +--> ?PR?DIR_BOARD?IO_SENSORES
  +--> ?PR?_BLOCK_READ_CLOCK_ASCII?CLOCK
  +--> ?PR?_MONITOR_CHR?ACCESCAN

?PR?_BLOCK_READ_CLOCK_ASCII?CLOCK                -----    -----      -----    -----      0032H    0003H
  +--> ?PR?_LEE_CLK?CLOCK

?PR?_PANTALLALCD_LINEA_2?PANTALLAS               -----    -----      -----    -----      0010H    002AH
  +--> ?CO?PANTALLAS
  +--> ?PR?_LCD_TXT?PANTALLAS
  +--> ?PR?_STRLEN?STRLEN
  +--> ?PR?_TX_CHRLCD?PANTALLAS
  +--> ?PR?_STRCAT?STRCAT
  +--> ?PR?_RASPBERRY_DATA?PANTALLAS

?PR?_DEBUG_PTO_PARALELO?TIBBO                    -----    -----      -----    -----      0001H    0004H
  +--> ?CO?TIBBO
  +--> ?PR?_DEBUG_TXT_TIBBO?TIBBO
  +--> ?PR?_DEBUGBUFFERMF?TIBBO
  +--> ?PR?_DEBUG_CHR_TIBBO?TIBBO
  +--> ?PR?DEBUG_DIVIDIR_TEXTO?TIBBO

?PR?MSJ_LCD_INFORMATIVO?IO_SENSORES              -----    -----      -----    -----      0001H    0001H
  +--> ?PR?SEL_FUNCION?IO_SENSORES
  +--> ?PR?LOAD_AND_SEND_INFO_RELOJ?PTO_PARA...
  +--> ?PR?LOAD_AND_SEND_ID_COD?PTO_PARALELO
  +--> ?PR?_RD_EEPROM?EEPROM
  +--> ?PR?_SEND_PORTERR?PTO_PARALELO

?PR?LOAD_AND_SEND_INFO_RELOJ?PTO_PARA...         -----    -----      -----    -----      0002H    000BH
  +--> ?PR?_BLOCK_READ_CLOCK?CLOCK
  +--> ?PR?_LEE_CLK?CLOCK
  +--> ?PR?_SEND_PORT?PTO_PARALELO

?PR?LOAD_AND_SEND_ID_COD?PTO_PARALELO            -----    -----      -----    -----      0002H    0011H
  +--> ?CO?PTO_PARALELO
  +--> ?PR?PRINTF?PRINTF
BL51 BANKED LINKER/LOCATER V6.22.2.0                                                  08/05/2020  11:21:06  PAGE 15


  +--> ?PR?_SEND_PORT?PTO_PARALELO



SYMBOL TABLE OF MODULE:  .\Objects\verificador_v_01_raspberry (MAIN)

  VALUE           TYPE          NAME
  ----------------------------------

  -------         MODULE        MAIN
  C:0000H         SYMBOL        _ICE_DUMMY_
  D:0080H         PUBLIC        P0
  D:0090H         PUBLIC        P1
  C:78F1H         PUBLIC        timer0_int
  D:00B0H         PUBLIC        P3
  B:00A8H.7       PUBLIC        EA
  C:7CC0H         PUBLIC        off_Timer0_Interrup
  X:00C9H         PUBLIC        ValTimeOutCom
  X:00CAH         PUBLIC        Buffer_Rta_Lintech
  X:00FCH         PUBLIC        Timer_wait
  X:00FDH         PUBLIC        g_cContByteRx
  B:0080H.0       PUBLIC        rx_ip
  B:0080H.3       PUBLIC        Atascado
  C:6D01H         PUBLIC        main
  X:00FEH         PUBLIC        Timer_tivo
  B:0090H.7       PUBLIC        lock
  I:0022H         PUBLIC        rbuf
  C:7CB1H         PUBLIC        on_Timer0_Interrup
  I:0054H         PUBLIC        tbuf
  B:0090H.1       PUBLIC        DataIn
  D:0089H         PUBLIC        TMOD
  X:0100H         PUBLIC        Debug_Tibbo
  B:0021H.1       PUBLIC        prto_ready
  X:0101H         PUBLIC        Raspberry
  X:0102H         PUBLIC        SIN_COBRO
  X:0104H         PUBLIC        Tipo_Vehiculo
  B:00B0H.3       PUBLIC        busy
  C:7C23H         PUBLIC        ini_timer
  B:00A8H.1       PUBLIC        ET0
  B:0088H.5       PUBLIC        TF0
  X:0105H         PUBLIC        COMPARACION_ACTIVA
  D:008CH         PUBLIC        TH0
  X:0106H         PUBLIC        ACK
  X:0107H         PUBLIC        g_cEstadoComSoft
  D:008AH         PUBLIC        TL0
  B:0088H.4       PUBLIC        TR0
  C:7C33H         PUBLIC        inicia_board
  X:0108H         PUBLIC        T_GRACIA
  X:010AH         PUBLIC        COD_PARK
  B:0080H.7       PUBLIC        sel_com
  X:010CH         PUBLIC        STX_LINTECH
  C:7C52H         PUBLIC        _getkey
  X:010DH         PUBLIC        g_cEstadoComSeqMF
  X:010EH         PUBLIC        ETX
  X:010FH         PUBLIC        ID_CLIENTE
  C:7522H         PUBLIC        _EscribirCadenaSoft_buffer
  B:0021H.2       PUBLIC        buffer_ready
BL51 BANKED LINKER/LOCATER V6.22.2.0                                                  08/05/2020  11:21:06  PAGE 16


  C:7801H         PUBLIC        _putchar
  -------         PROC          TIMER0_INT
  C:78F1H         LINE#         13
  C:78F7H         LINE#         15
  C:78FFH         LINE#         16
  C:78FFH         LINE#         17
  C:7901H         LINE#         18
  C:7903H         LINE#         19
  C:7905H         LINE#         21
  C:7905H         LINE#         22
  C:790BH         LINE#         23
  C:7911H         LINE#         24
  C:791FH         LINE#         25
  C:7921H         LINE#         26
  C:7921H         LINE#         27
  -------         ENDPROC       TIMER0_INT
  -------         PROC          INI_TIMER
  C:7C23H         LINE#         30
  C:7C23H         LINE#         31
  C:7C23H         LINE#         33
  C:7C2BH         LINE#         35
  C:7C2EH         LINE#         36
  C:7C30H         LINE#         37
  C:7C32H         LINE#         39
  -------         ENDPROC       INI_TIMER
  -------         PROC          ON_TIMER0_INTERRUP
  C:7CB1H         LINE#         42
  C:7CB1H         LINE#         43
  C:7CB1H         LINE#         44
  C:7CB3H         LINE#         45
  C:7CB5H         LINE#         47
  -------         ENDPROC       ON_TIMER0_INTERRUP
  -------         PROC          OFF_TIMER0_INTERRUP
  C:7CC0H         LINE#         50
  C:7CC0H         LINE#         51
  C:7CC0H         LINE#         52
  C:7CC2H         LINE#         54
  -------         ENDPROC       OFF_TIMER0_INTERRUP
  -------         PROC          _GETKEY
  -------         DO            
  D:0006H         SYMBOL        k
  -------         ENDDO         
  C:7C52H         LINE#         62
  C:7C52H         LINE#         63
  C:7C52H         LINE#         67
  C:7C52H         LINE#         68
  C:7C55H         LINE#         69
  C:7C55H         LINE#         70
  C:7C5DH         LINE#         72
  C:7C5DH         LINE#         73
  -------         ENDPROC       _GETKEY
  -------         PROC          _PUTCHAR
  X:009DH         SYMBOL        c
  -------         DO            
  X:009EH         SYMBOL        i
  -------         ENDDO         
  C:7801H         LINE#         77
BL51 BANKED LINKER/LOCATER V6.22.2.0                                                  08/05/2020  11:21:06  PAGE 17


  C:7806H         LINE#         78
  C:7806H         LINE#         81
  C:7815H         LINE#         82
  C:7815H         LINE#         83
  C:782BH         LINE#         84
  C:782BH         LINE#         86
  C:7839H         LINE#         87
  C:7839H         LINE#         89
  C:783EH         LINE#         90
  -------         ENDPROC       _PUTCHAR
  -------         PROC          _ESCRIBIRCADENASOFT_BUFFER
  X:0034H         SYMBOL        buffer
  X:0037H         SYMBOL        tamano_cadena
  -------         DO            
  X:0038H         SYMBOL        i
  X:0039H         SYMBOL        d
  -------         ENDDO         
  C:7522H         LINE#         94
  C:7530H         LINE#         95
  C:7530H         LINE#         97
  C:753EH         LINE#         98
  C:753EH         LINE#         99
  C:7555H         LINE#         100
  C:755FH         LINE#         101
  C:7567H         LINE#         102
  -------         ENDPROC       _ESCRIBIRCADENASOFT_BUFFER
  -------         PROC          INICIA_BOARD
  C:7C33H         LINE#         139
  C:7C33H         LINE#         140
  C:7C33H         LINE#         141
  C:7C36H         LINE#         142
  C:7C39H         LINE#         143
  C:7C3CH         LINE#         144
  C:7C3EH         LINE#         145
  C:7C40H         LINE#         146
  C:7C42H         LINE#         148
  -------         ENDPROC       INICIA_BOARD
  -------         PROC          MAIN
  -------         DO            
  X:00A1H         SYMBOL        buffer
  X:0000H         SYMBOL        Length_trama
  -------         ENDDO         
  C:6D01H         LINE#         158
  C:6D01H         LINE#         159
  C:6D01H         LINE#         167
  C:6D04H         LINE#         168
  C:6D07H         LINE#         169
  C:6D0AH         LINE#         170
  C:6D0DH         LINE#         171
  C:6D10H         LINE#         172
  C:6D12H         LINE#         174
  C:6D15H         LINE#         175
  C:6D1CH         LINE#         176
  C:6D1FH         LINE#         177
  C:6D24H         LINE#         179
  C:6D27H         LINE#         181
  C:6D2AH         LINE#         182
BL51 BANKED LINKER/LOCATER V6.22.2.0                                                  08/05/2020  11:21:06  PAGE 18


  C:6D2AH         LINE#         183
  C:6D2DH         LINE#         184
  C:6D2DH         LINE#         185
  C:6D30H         LINE#         186
  C:6D36H         LINE#         187
  C:6D3CH         LINE#         189
  C:6D3CH         LINE#         190
  C:6D3CH         LINE#         192
  C:6D3FH         LINE#         194
  C:6D3FH         LINE#         195
  C:6D42H         LINE#         196
  C:6D42H         LINE#         198
  C:6D50H         LINE#         201
  C:6D50H         LINE#         203
  C:6D53H         LINE#         205
  C:6D56H         LINE#         206
  C:6D56H         LINE#         209
  C:6D65H         LINE#         212
  C:6D6EH         LINE#         215
  C:6D7CH         LINE#         218
  C:6D7CH         LINE#         220
  C:6D7EH         LINE#         222
  C:6D7EH         LINE#         223
  C:6D81H         LINE#         224
  C:6D81H         LINE#         225
  C:6D84H         LINE#         229
  -------         ENDPROC       MAIN
  -------         ENDMOD        MAIN

  -------         MODULE        ACCESCAN
  C:0000H         SYMBOL        _ICE_DUMMY_
  D:0080H         PUBLIC        P0
  D:0090H         PUBLIC        P1
  B:0080H.2       PUBLIC        led_err_imp
  C:76C1H         PUBLIC        _Monitor_chr
  C:3D7FH         PUBLIC        _Cmd_LPR_Salida
  B:0080H.3       PUBLIC        Atascado
  B:0080H.0       PUBLIC        rx_ip
  B:0090H.7       PUBLIC        lock
  X:01B2H         PUBLIC        USE_LPR
  C:34D1H         PUBLIC        _Valida_Trama_Pto
  C:67FFH         PUBLIC        _recibe_cmd_Monitor
  C:5C65H         PUBLIC        _Cmd_LPR_Salida_wiegand
  -------         PROC          _VALIDA_TRAMA_PTO
  X:0001H         SYMBOL        buffer
  X:0004H         SYMBOL        length_trama
  -------         DO            
  X:01B1H         SYMBOL        cont
  X:0005H         SYMBOL        buff
  -------         ENDDO         
  C:34D1H         LINE#         83
  C:34DFH         LINE#         84
  C:34DFH         LINE#         88
  C:34EDH         LINE#         90
  C:3524H         LINE#         91
  C:3524H         LINE#         92
  C:3539H         LINE#         93
BL51 BANKED LINKER/LOCATER V6.22.2.0                                                  08/05/2020  11:21:06  PAGE 19


  C:3539H         LINE#         94
  C:354CH         LINE#         96
  C:354FH         LINE#         98
  C:354FH         LINE#         100
  C:354FH         LINE#         102
  C:3561H         LINE#         103
  C:3561H         LINE#         104
  C:3567H         LINE#         105
  C:3574H         LINE#         106
  C:3574H         LINE#         107
  C:3579H         LINE#         108
  C:357BH         LINE#         109
  C:3580H         LINE#         110
  C:3582H         LINE#         111
  C:3584H         LINE#         112
  C:3588H         LINE#         113
  C:3588H         LINE#         114
  C:3589H         LINE#         116
  C:35A1H         LINE#         117
  C:35A1H         LINE#         119
  C:35AEH         LINE#         120
  C:35AEH         LINE#         121
  C:35B0H         LINE#         122
  C:35B2H         LINE#         123
  C:35B4H         LINE#         124
  C:35B6H         LINE#         125
  C:35B6H         LINE#         127
  C:35DCH         LINE#         128
  C:35DCH         LINE#         129
  C:35E0H         LINE#         130
  C:35E5H         LINE#         131
  C:35EEH         LINE#         132
  C:35F3H         LINE#         133
  C:35F3H         LINE#         136
  C:35F4H         LINE#         139
  C:3606H         LINE#         140
  C:3606H         LINE#         141
  C:3608H         LINE#         142
  C:360BH         LINE#         144
  C:361DH         LINE#         145
  C:361DH         LINE#         146
  C:361FH         LINE#         147
  C:3622H         LINE#         149
  C:363CH         LINE#         150
  C:363CH         LINE#         151
  C:363EH         LINE#         152
  C:3641H         LINE#         155
  C:365BH         LINE#         156
  C:365BH         LINE#         157
  C:365DH         LINE#         158
  C:365FH         LINE#         161
  C:3679H         LINE#         162
  C:3679H         LINE#         163
  C:367BH         LINE#         164
  C:367DH         LINE#         168
  C:3697H         LINE#         169
  C:3697H         LINE#         170
BL51 BANKED LINKER/LOCATER V6.22.2.0                                                  08/05/2020  11:21:06  PAGE 20


  C:3699H         LINE#         171
  C:369BH         LINE#         174
  C:36B5H         LINE#         175
  C:36B5H         LINE#         176
  C:36B7H         LINE#         177
  C:36B9H         LINE#         179
  C:36D3H         LINE#         180
  C:36D3H         LINE#         181
  C:36D8H         LINE#         182
  C:36D8H         LINE#         184
  C:3708H         LINE#         185
  C:3708H         LINE#         186
  C:3716H         LINE#         187
  C:3719H         LINE#         190
  C:375CH         LINE#         191
  C:375CH         LINE#         193
  C:3771H         LINE#         194
  C:3777H         LINE#         195
  C:37A1H         LINE#         198
  C:37A9H         LINE#         199
  C:37A9H         LINE#         202
  C:37B0H         LINE#         203
  C:37B0H         LINE#         204
  C:37B5H         LINE#         205
  C:37B5H         LINE#         206
  C:37B7H         LINE#         208
  C:37B7H         LINE#         209
  C:37C0H         LINE#         210
  C:37C8H         LINE#         211
  C:37C8H         LINE#         216
  C:37CAH         LINE#         219
  C:37CAH         LINE#         222
  C:37D1H         LINE#         223
  C:37D1H         LINE#         224
  C:37D6H         LINE#         225
  C:37D6H         LINE#         226
  C:37E1H         LINE#         230
  C:37E1H         LINE#         231
  C:37E1H         LINE#         233
  -------         ENDPROC       _VALIDA_TRAMA_PTO
  -------         PROC          _RECIBE_CMD_MONITOR
  X:0001H         SYMBOL        buffer_cmd
  -------         DO            
  X:0004H         SYMBOL        j
  X:0005H         SYMBOL        NumDatos
  D:0005H         SYMBOL        time_out
  X:0006H         SYMBOL        MaxChrRx
  D:0006H         SYMBOL        contador
  -------         ENDDO         
  C:67FFH         LINE#         239
  C:680AH         LINE#         240
  C:680AH         LINE#         244
  C:680FH         LINE#         245
  C:6813H         LINE#         247
  C:681BH         LINE#         248
  C:681BH         LINE#         249
  C:682CH         LINE#         250
BL51 BANKED LINKER/LOCATER V6.22.2.0                                                  08/05/2020  11:21:06  PAGE 21


  C:682CH         LINE#         251
  C:682FH         LINE#         252
  C:6830H         LINE#         253
  C:6836H         LINE#         254
  C:6836H         LINE#         255
  C:683BH         LINE#         256
  C:6844H         LINE#         257
  C:6844H         LINE#         258
  C:6846H         LINE#         259
  C:684EH         LINE#         260
  C:684EH         LINE#         261
  C:6850H         LINE#         262
  C:6855H         LINE#         263
  C:685BH         LINE#         264
  C:686DH         LINE#         265
  C:6877H         LINE#         266
  C:687FH         LINE#         268
  C:688EH         LINE#         271
  C:688EH         LINE#         272
  C:6893H         LINE#         273
  -------         ENDPROC       _RECIBE_CMD_MONITOR
  -------         PROC          _MONITOR_CHR
  X:0033H         SYMBOL        str
  X:0036H         SYMBOL        num_char
  -------         DO            
  X:0037H         SYMBOL        j
  -------         ENDDO         
  C:76C1H         LINE#         303
  C:76CFH         LINE#         304
  C:76CFH         LINE#         306
  C:76DDH         LINE#         307
  C:76DDH         LINE#         308
  C:76EFH         LINE#         309
  C:76F9H         LINE#         310
  C:7701H         LINE#         311
  -------         ENDPROC       _MONITOR_CHR
  -------         PROC          _CMD_LPR_SALIDA_WIEGAND
  X:0010H         SYMBOL        buffer
  -------         DO            
  X:0013H         SYMBOL        Buffer_Lpr
  X:0031H         SYMBOL        j
  -------         ENDDO         
  C:5C65H         LINE#         316
  C:5C70H         LINE#         317
  C:5C70H         LINE#         319
  C:5C76H         LINE#         320
  C:5C7BH         LINE#         321
  C:5C83H         LINE#         322
  C:5C87H         LINE#         323
  C:5C90H         LINE#         324
  C:5C90H         LINE#         325
  C:5CA1H         LINE#         326
  C:5CA3H         LINE#         328
  C:5CA3H         LINE#         329
  C:5CB4H         LINE#         330
  C:5CB4H         LINE#         334
  C:5CCBH         LINE#         335
BL51 BANKED LINKER/LOCATER V6.22.2.0                                                  08/05/2020  11:21:06  PAGE 22


  C:5CCBH         LINE#         336
  C:5CDAH         LINE#         337
  C:5CE4H         LINE#         339
  C:5CECH         LINE#         340
  C:5D00H         LINE#         342
  C:5D10H         LINE#         343
  C:5D21H         LINE#         344
  C:5D2EH         LINE#         348
  -------         ENDPROC       _CMD_LPR_SALIDA_WIEGAND
  -------         PROC          _CMD_LPR_SALIDA
  X:000EH         SYMBOL        buffer_S1_B0
  X:0011H         SYMBOL        buffer_S1_B2
  -------         DO            
  X:0014H         SYMBOL        Buffer_Lpr
  D:0004H         SYMBOL        temp
  X:0032H         SYMBOL        j
  -------         ENDDO         
  C:3D7FH         LINE#         353
  C:3D8AH         LINE#         354
  C:3D8AH         LINE#         359
  C:3D90H         LINE#         360
  C:3D95H         LINE#         361
  C:3D9DH         LINE#         362
  C:3DA1H         LINE#         364
  C:3DB7H         LINE#         365
  C:3DB7H         LINE#         366
  C:3DC8H         LINE#         367
  C:3DCAH         LINE#         369
  C:3DCAH         LINE#         370
  C:3DDBH         LINE#         371
  C:3DDBH         LINE#         375
  C:3DDBH         LINE#         376
  C:3DFDH         LINE#         377
  C:3E07H         LINE#         378
  C:3E17H         LINE#         384
  C:3E2BH         LINE#         386
  C:3E41H         LINE#         387
  C:3E66H         LINE#         388
  C:3E7FH         LINE#         390
  C:3E98H         LINE#         391
  C:3EBDH         LINE#         392
  C:3ED6H         LINE#         394
  C:3EEFH         LINE#         395
  C:3F14H         LINE#         396
  C:3F2DH         LINE#         398
  C:3F46H         LINE#         399
  C:3F6BH         LINE#         400
  C:3F84H         LINE#         402
  C:3F9DH         LINE#         403
  C:3FC2H         LINE#         404
  C:3FDBH         LINE#         408
  C:3FEFH         LINE#         411
  C:4003H         LINE#         413
  -------         ENDPROC       _CMD_LPR_SALIDA
  -------         ENDMOD        ACCESCAN

  -------         MODULE        CLOCK
BL51 BANKED LINKER/LOCATER V6.22.2.0                                                  08/05/2020  11:21:06  PAGE 23


  C:0000H         SYMBOL        _ICE_DUMMY_
  C:7736H         PUBLIC        _two_one
  D:0090H         PUBLIC        P1
  C:51ACH         PUBLIC        _validar_clk
  C:797EH         PUBLIC        _wr_clk
  C:4716H         PUBLIC        _check_fechaOut
  B:00D0H.7       PUBLIC        CY
  C:0003H         PUBLIC        p_ck
  X:01B3H         PUBLIC        data_clk
  C:7C7AH         PUBLIC        cond_ini_clock
  C:5D3BH         PUBLIC        _Block_read_Clock
  B:0090H.4       PUBLIC        sck
  C:63A5H         PUBLIC        _Block_read_Clock_Hex
  C:4011H         PUBLIC        _Block_read_clock_ascii
  C:7A61H         PUBLIC        _hex_bcd
  C:7B1FH         PUBLIC        _bcd_hex
  C:73A8H         PUBLIC        _ByteHex_Decimal
  C:69C0H         PUBLIC        _lee_clk
  C:1EF3H         PUBLIC        _analiza_tiempo
  B:0090H.5       PUBLIC        io
  C:6AD6H         PUBLIC        _Block_write_clock_ascii
  B:0090H.6       PUBLIC        rst
  C:7783H         PUBLIC        _eb_clk
  C:37E2H         PUBLIC        _Two_ByteHex_Decimal
  -------         PROC          P_CK
  C:0003H         LINE#         37
  C:0003H         LINE#         38
  C:0003H         LINE#         39
  C:0005H         LINE#         40
  C:0008H         LINE#         41
  C:000AH         LINE#         42
  -------         ENDPROC       P_CK
  -------         PROC          _EB_CLK
  X:003AH         SYMBOL        dir_clk
  -------         DO            
  X:003BH         SYMBOL        nbits
  -------         ENDDO         
  C:7783H         LINE#         44
  C:7788H         LINE#         46
  C:778DH         LINE#         47
  C:778DH         LINE#         48
  C:7796H         LINE#         49
  C:7799H         LINE#         50
  C:7799H         LINE#         51
  C:779BH         LINE#         52
  C:779DH         LINE#         54
  C:779DH         LINE#         55
  C:779FH         LINE#         56
  C:779FH         LINE#         57
  C:77A2H         LINE#         58
  C:77C1H         LINE#         59
  -------         ENDPROC       _EB_CLK
  C:69B6H         SYMBOL        L?0173
  -------         PROC          L?0172
  -------         ENDPROC       L?0172
  C:69B6H         SYMBOL        L?0173
  -------         PROC          _LEE_CLK
BL51 BANKED LINKER/LOCATER V6.22.2.0                                                  08/05/2020  11:21:06  PAGE 24


  X:0037H         SYMBOL        dir_clk
  -------         DO            
  X:0038H         SYMBOL        nbits
  -------         ENDDO         
  C:69C0H         LINE#         61
  C:69C5H         LINE#         63
  C:69C7H         LINE#         64
  C:69CEH         LINE#         65
  C:69D6H         LINE#         66
  C:69EFH         LINE#         67
  C:69EFH         LINE#         68
  C:69F2H         LINE#         69
  C:69F2H         LINE#         70
  C:69F9H         LINE#         71
  C:6A03H         LINE#         72
  C:6A08H         LINE#         73
  C:6A08H         LINE#         74
  C:6A08H         LINE#         75
  C:6A0BH         LINE#         76
  C:6A0BH         LINE#         77
  C:6A12H         LINE#         78
  C:6A23H         LINE#         79
  C:6A23H         LINE#         80
  C:6A2BH         LINE#         81
  C:6A2BH         LINE#         82
  C:6A2BH         LINE#         83
  C:6A2EH         LINE#         84
  C:6A3EH         LINE#         85
  C:6A40H         LINE#         86
  C:6A45H         LINE#         87
  -------         ENDPROC       _LEE_CLK
  -------         PROC          _WR_CLK
  X:0013H         SYMBOL        dir_clk
  X:0014H         SYMBOL        byte
  C:797EH         LINE#         89
  C:7986H         LINE#         90
  C:7988H         LINE#         91
  C:798FH         LINE#         92
  C:7997H         LINE#         93
  C:79A0H         LINE#         94
  C:79A3H         LINE#         95
  C:79A5H         LINE#         97
  -------         ENDPROC       _WR_CLK
  C:7702H         SYMBOL        L?0170
  C:7720H         SYMBOL        L?0171
  -------         PROC          L?0169
  -------         ENDPROC       L?0169
  C:7702H         SYMBOL        L?0170
  C:7720H         SYMBOL        L?0171
  -------         PROC          _TWO_ONE
  D:0007H         SYMBOL        byte_h
  D:0005H         SYMBOL        byte_l
  -------         DO            
  D:0007H         SYMBOL        byte_out
  -------         ENDDO         
  C:7736H         LINE#         99
  C:7736H         LINE#         100
BL51 BANKED LINKER/LOCATER V6.22.2.0                                                  08/05/2020  11:21:06  PAGE 25


  C:7736H         LINE#         102
  C:7739H         LINE#         103
  C:773DH         LINE#         104
  C:7740H         LINE#         105
  C:7742H         LINE#         106
  C:7742H         LINE#         107
  -------         ENDPROC       _TWO_ONE
  -------         PROC          _VALIDAR_CLK
  D:0001H         SYMBOL        datos_clock
  -------         DO            
  D:0007H         SYMBOL        validador
  -------         ENDDO         
  C:51ACH         LINE#         111
  C:51ACH         LINE#         112
  C:51ACH         LINE#         113
  C:51AEH         LINE#         116
  C:51C3H         LINE#         117
  C:51C3H         LINE#         119
  C:51DBH         LINE#         120
  C:51DBH         LINE#         122
  C:51F3H         LINE#         123
  C:51F3H         LINE#         124
  C:520BH         LINE#         125
  C:520BH         LINE#         126
  C:5223H         LINE#         127
  C:5223H         LINE#         128
  C:5238H         LINE#         129
  C:5238H         LINE#         130
  C:524AH         LINE#         131
  C:524AH         LINE#         132
  C:525CH         LINE#         133
  C:525CH         LINE#         134
  C:526EH         LINE#         135
  C:526EH         LINE#         136
  C:5280H         LINE#         137
  C:5280H         LINE#         138
  C:5292H         LINE#         139
  C:5292H         LINE#         140
  C:52A2H         LINE#         141
  C:52A2H         LINE#         142
  C:52A2H         LINE#         143
  C:52A2H         LINE#         144
  C:52A3H         LINE#         146
  C:52A3H         LINE#         147
  C:52A5H         LINE#         148
  C:52A5H         LINE#         149
  C:52A6H         LINE#         151
  C:52A6H         LINE#         152
  C:52A8H         LINE#         154
  C:52A8H         LINE#         155
  C:52A9H         LINE#         157
  C:52A9H         LINE#         158
  C:52ABH         LINE#         160
  C:52ABH         LINE#         162
  C:52ACH         LINE#         164
  C:52ACH         LINE#         165
  C:52AEH         LINE#         167
BL51 BANKED LINKER/LOCATER V6.22.2.0                                                  08/05/2020  11:21:06  PAGE 26


  C:52AEH         LINE#         168
  C:52AFH         LINE#         170
  C:52AFH         LINE#         171
  C:52B1H         LINE#         173
  C:52B1H         LINE#         174
  C:52B2H         LINE#         176
  C:52B2H         LINE#         177
  C:52B4H         LINE#         179
  C:52B4H         LINE#         180
  C:52B5H         LINE#         182
  C:52B5H         LINE#         183
  C:52B7H         LINE#         185
  C:52B7H         LINE#         186
  C:52B7H         LINE#         188
  C:52B8H         LINE#         190
  C:52B8H         LINE#         191
  C:52BAH         LINE#         193
  C:52BAH         LINE#         195
  C:52BBH         LINE#         198
  C:52BBH         LINE#         199
  C:52BDH         LINE#         201
  C:52BDH         LINE#         203
  C:52BEH         LINE#         206
  C:52BEH         LINE#         207
  C:52C0H         LINE#         209
  C:52C0H         LINE#         211
  C:52C0H         LINE#         213
  -------         ENDPROC       _VALIDAR_CLK
  -------         PROC          _BLOCK_WRITE_CLOCK_ASCII
  X:0010H         SYMBOL        datos_clock
  C:6AD6H         LINE#         219
  C:6AE1H         LINE#         221
  C:6AE1H         LINE#         225
  C:6AEBH         LINE#         226
  C:6AEBH         LINE#         227
  C:6AEBH         LINE#         228
  C:6AEBH         LINE#         230
  C:6AF5H         LINE#         231
  C:6AFFH         LINE#         232
  C:6B09H         LINE#         233
  C:6B09H         LINE#         234
  C:6B09H         LINE#         235
  C:6B09H         LINE#         237
  C:6B13H         LINE#         238
  C:6B13H         LINE#         239
  C:6B13H         LINE#         240
  C:6B13H         LINE#         242
  C:6B1DH         LINE#         243
  C:6B1DH         LINE#         244
  C:6B1DH         LINE#         245
  C:6B1DH         LINE#         247
  C:6B27H         LINE#         248
  C:6B27H         LINE#         249
  C:6B27H         LINE#         250
  C:6B27H         LINE#         252
  C:6B31H         LINE#         253
  C:6B3BH         LINE#         254
BL51 BANKED LINKER/LOCATER V6.22.2.0                                                  08/05/2020  11:21:06  PAGE 27


  C:6B45H         LINE#         255
  C:6B4FH         LINE#         257
  -------         ENDPROC       _BLOCK_WRITE_CLOCK_ASCII
  -------         PROC          _BCD_HEX
  D:0007H         SYMBOL        l_data
  -------         DO            
  D:0006H         SYMBOL        temp
  D:0005H         SYMBOL        j
  -------         ENDDO         
  C:7B1FH         LINE#         263
  C:7B1FH         LINE#         264
  C:7B1FH         LINE#         266
  C:7B21H         LINE#         267
  C:7B25H         LINE#         268
  C:7B28H         LINE#         269
  C:7B2AH         LINE#         270
  C:7B2AH         LINE#         271
  C:7B2EH         LINE#         272
  C:7B35H         LINE#         273
  C:7B35H         LINE#         274
  C:7B39H         LINE#         275
  C:7B3CH         LINE#         276
  C:7B3CH         LINE#         277
  C:7B3CH         LINE#         278
  -------         ENDPROC       _BCD_HEX
  -------         PROC          _HEX_BCD
  D:0007H         SYMBOL        byte
  -------         DO            
  D:0006H         SYMBOL        nibble_h
  D:0005H         SYMBOL        nibble_l
  D:0004H         SYMBOL        k
  D:0007H         SYMBOL        byte_out
  -------         ENDDO         
  C:7A61H         LINE#         282
  C:7A61H         LINE#         283
  C:7A61H         LINE#         288
  C:7A63H         LINE#         289
  C:7A64H         LINE#         291
  C:7A6AH         LINE#         292
  C:7A6AH         LINE#         293
  C:7A6BH         LINE#         294
  C:7A70H         LINE#         295
  C:7A70H         LINE#         296
  C:7A71H         LINE#         297
  C:7A72H         LINE#         298
  C:7A72H         LINE#         299
  C:7A75H         LINE#         300
  C:7A79H         LINE#         301
  C:7A7CH         LINE#         302
  C:7A7FH         LINE#         303
  C:7A81H         LINE#         304
  C:7A81H         LINE#         306
  -------         ENDPROC       _HEX_BCD
  -------         PROC          _BYTEHEX_DECIMAL
  D:0001H         SYMBOL        buffer
  D:0005H         SYMBOL        valorhex
  -------         DO            
BL51 BANKED LINKER/LOCATER V6.22.2.0                                                  08/05/2020  11:21:06  PAGE 28


  X:0010H         SYMBOL        numero
  D:0007H         SYMBOL        centena
  D:0006H         SYMBOL        decena
  -------         ENDDO         
  C:73A8H         LINE#         312
  C:73A8H         LINE#         313
  C:73A8H         LINE#         316
  C:73AAH         LINE#         317
  C:73ABH         LINE#         318
  C:73B0H         LINE#         320
  C:73BDH         LINE#         321
  C:73BDH         LINE#         322
  C:73C1H         LINE#         323
  C:73C2H         LINE#         324
  C:73C4H         LINE#         325
  C:73CAH         LINE#         326
  C:73D1H         LINE#         327
  C:73DEH         LINE#         328
  C:73DEH         LINE#         329
  C:73E2H         LINE#         330
  C:73E3H         LINE#         331
  C:73E5H         LINE#         332
  C:73EBH         LINE#         333
  C:73F2H         LINE#         334
  -------         ENDPROC       _BYTEHEX_DECIMAL
  -------         PROC          _TWO_BYTEHEX_DECIMAL
  X:0010H         SYMBOL        buffer
  X:0013H         SYMBOL        id_h
  X:0014H         SYMBOL        id_l
  -------         DO            
  X:0015H         SYMBOL        valor
  D:0006H         SYMBOL        numero
  X:0017H         SYMBOL        temp
  X:0018H         SYMBOL        dmil
  X:0019H         SYMBOL        mil
  X:001AH         SYMBOL        centena
  X:001BH         SYMBOL        decena
  -------         ENDDO         
  C:37E2H         LINE#         342
  C:37F0H         LINE#         343
  C:37F0H         LINE#         347
  C:37F7H         LINE#         348
  C:37FBH         LINE#         349
  C:37FDH         LINE#         350
  C:37FFH         LINE#         351
  C:3801H         LINE#         354
  C:3806H         LINE#         355
  C:3809H         LINE#         356
  C:380FH         LINE#         358
  C:386AH         LINE#         359
  C:3872H         LINE#         360
  C:3875H         LINE#         361
  C:38D0H         LINE#         363
  C:38D8H         LINE#         364
  C:38DBH         LINE#         365
  C:38E1H         LINE#         366
  C:393CH         LINE#         367
BL51 BANKED LINKER/LOCATER V6.22.2.0                                                  08/05/2020  11:21:06  PAGE 29


  C:3944H         LINE#         368
  C:3947H         LINE#         369
  C:39A2H         LINE#         370
  C:39A2H         LINE#         372
  C:39ABH         LINE#         373
  C:39ABH         LINE#         374
  C:39B3H         LINE#         375
  C:39B9H         LINE#         376
  C:39BBH         LINE#         377
  C:39D1H         LINE#         378
  C:39DBH         LINE#         379
  C:39E4H         LINE#         380
  C:39E4H         LINE#         381
  C:39ECH         LINE#         382
  C:39F2H         LINE#         383
  C:39F4H         LINE#         384
  C:3A0AH         LINE#         385
  C:3A14H         LINE#         386
  C:3A1DH         LINE#         387
  C:3A1DH         LINE#         388
  C:3A25H         LINE#         389
  C:3A2BH         LINE#         390
  C:3A2DH         LINE#         391
  C:3A43H         LINE#         392
  C:3A4DH         LINE#         393
  C:3A56H         LINE#         394
  C:3A56H         LINE#         395
  C:3A5EH         LINE#         396
  C:3A64H         LINE#         397
  C:3A66H         LINE#         398
  C:3A7CH         LINE#         399
  C:3A86H         LINE#         400
  C:3A99H         LINE#         401
  C:3AA3H         LINE#         402
  -------         ENDPROC       _TWO_BYTEHEX_DECIMAL
  -------         PROC          _BLOCK_READ_CLOCK_ASCII
  X:0032H         SYMBOL        datos_clock
  -------         DO            
  D:0007H         SYMBOL        dato
  -------         ENDDO         
  C:4011H         LINE#         408
  C:4014H         LINE#         409
  C:4014H         LINE#         415
  C:4017H         LINE#         416
  C:402FH         LINE#         417
  C:4039H         LINE#         418
  C:404EH         LINE#         419
  C:4058H         LINE#         422
  C:405DH         LINE#         423
  C:4075H         LINE#         424
  C:407FH         LINE#         425
  C:4094H         LINE#         426
  C:409EH         LINE#         429
  C:40A3H         LINE#         430
  C:40BBH         LINE#         431
  C:40C5H         LINE#         432
  C:40DAH         LINE#         433
BL51 BANKED LINKER/LOCATER V6.22.2.0                                                  08/05/2020  11:21:06  PAGE 30


  C:40E4H         LINE#         437
  C:40E9H         LINE#         438
  C:4101H         LINE#         439
  C:410BH         LINE#         440
  C:4120H         LINE#         441
  C:412AH         LINE#         444
  C:412FH         LINE#         445
  C:4147H         LINE#         446
  C:4151H         LINE#         447
  C:4166H         LINE#         448
  C:4170H         LINE#         451
  C:4175H         LINE#         452
  C:418DH         LINE#         453
  C:4197H         LINE#         454
  C:41ACH         LINE#         455
  C:41B6H         LINE#         458
  C:41BBH         LINE#         459
  C:41D0H         LINE#         460
  C:41DAH         LINE#         461
  -------         ENDPROC       _BLOCK_READ_CLOCK_ASCII
  -------         PROC          _BLOCK_READ_CLOCK_HEX
  X:0034H         SYMBOL        datos_clock
  C:63A5H         LINE#         464
  C:63A8H         LINE#         465
  C:63A8H         LINE#         468
  C:63BDH         LINE#         469
  C:63C7H         LINE#         471
  C:63DEH         LINE#         472
  C:63E8H         LINE#         474
  C:63FFH         LINE#         475
  C:6409H         LINE#         477
  C:6420H         LINE#         478
  C:642AH         LINE#         480
  C:6441H         LINE#         481
  -------         ENDPROC       _BLOCK_READ_CLOCK_HEX
  -------         PROC          _BLOCK_READ_CLOCK
  X:001DH         SYMBOL        datos_clock
  C:5D3BH         LINE#         508
  C:5D3EH         LINE#         509
  C:5D3EH         LINE#         511
  C:5D50H         LINE#         512
  C:5D5AH         LINE#         514
  C:5D6EH         LINE#         515
  C:5D78H         LINE#         517
  C:5D8CH         LINE#         518
  C:5D96H         LINE#         520
  C:5DAAH         LINE#         521
  C:5DB4H         LINE#         523
  C:5DC8H         LINE#         524
  C:5DD2H         LINE#         526
  C:5DE6H         LINE#         527
  C:5DF0H         LINE#         528
  -------         ENDPROC       _BLOCK_READ_CLOCK
  -------         PROC          COND_INI_CLOCK
  C:7C7AH         LINE#         531
  C:7C7AH         LINE#         532
  C:7C7AH         LINE#         533
BL51 BANKED LINKER/LOCATER V6.22.2.0                                                  08/05/2020  11:21:06  PAGE 31


  C:7C7CH         LINE#         534
  C:7C7EH         LINE#         535
  C:7C80H         LINE#         536
  -------         ENDPROC       COND_INI_CLOCK
  -------         PROC          _CHECK_FECHAOUT
  X:000EH         SYMBOL        buffer
  -------         DO            
  X:0011H         SYMBOL        temp
  X:0012H         SYMBOL        datos_clk
  -------         ENDDO         
  C:4716H         LINE#         546
  C:4721H         LINE#         547
  C:4721H         LINE#         548
  C:4725H         LINE#         554
  C:476EH         LINE#         555
  C:476EH         LINE#         557
  C:4773H         LINE#         559
  C:4776H         LINE#         561
  C:4776H         LINE#         563
  C:477FH         LINE#         565
  C:4787H         LINE#         566
  C:4787H         LINE#         567
  C:4790H         LINE#         569
  C:4790H         LINE#         572
  C:47B3H         LINE#         573
  C:47B3H         LINE#         574
  C:47B3H         LINE#         575
  C:47B6H         LINE#         576
  C:47C0H         LINE#         577
  C:47C0H         LINE#         578
  C:47E6H         LINE#         579
  C:47E6H         LINE#         580
  C:47E6H         LINE#         581
  C:47E9H         LINE#         582
  C:47F3H         LINE#         583
  C:47F3H         LINE#         584
  C:4819H         LINE#         585
  C:4819H         LINE#         586
  C:4819H         LINE#         587
  C:481BH         LINE#         588
  C:4822H         LINE#         589
  C:4822H         LINE#         590
  C:4848H         LINE#         591
  C:4848H         LINE#         592
  C:4848H         LINE#         593
  C:484AH         LINE#         594
  C:4851H         LINE#         595
  C:4851H         LINE#         596
  C:4876H         LINE#         597
  C:4876H         LINE#         598
  C:487BH         LINE#         599
  C:487DH         LINE#         607
  C:487DH         LINE#         608
  C:487DH         LINE#         609
  C:487DH         LINE#         610
  C:487FH         LINE#         612
  C:487FH         LINE#         613
BL51 BANKED LINKER/LOCATER V6.22.2.0                                                  08/05/2020  11:21:06  PAGE 32


  C:487FH         LINE#         614
  C:487FH         LINE#         615
  C:4881H         LINE#         617
  C:4881H         LINE#         618
  C:4881H         LINE#         619
  C:4881H         LINE#         620
  C:4883H         LINE#         622
  C:4883H         LINE#         623
  C:4889H         LINE#         625
  C:4889H         LINE#         627
  C:4889H         LINE#         628
  C:488EH         LINE#         629
  -------         ENDPROC       _CHECK_FECHAOUT
  -------         PROC          _ANALIZA_TIEMPO
  X:000EH         SYMBOL        buffer
  X:0011H         SYMBOL        Val_DctoMinutos
  -------         DO            
  X:0013H         SYMBOL        ano_inT
  B:0020H.0       SYMBOL        bisiesto
  X:0015H         SYMBOL        ano_out
  X:0016H         SYMBOL        mes_out
  X:0017H         SYMBOL        dia_out
  X:0018H         SYMBOL        hora_out
  X:0019H         SYMBOL        min_out
  X:001AH         SYMBOL        Horas_Dcto
  X:001BH         SYMBOL        Minutos_Dcto
  X:001CH         SYMBOL        Xtemp
  B:0020H.1       SYMBOL        Tiempo_Dcto
  -------         ENDDO         
  C:1EF3H         LINE#         632
  C:1F06H         LINE#         633
  C:1F06H         LINE#         637
  C:1F08H         LINE#         642
  C:1F0AH         LINE#         644
  C:1F65H         LINE#         645
  C:1F65H         LINE#         650
  C:1F77H         LINE#         651
  C:1F77H         LINE#         652
  C:1F87H         LINE#         653
  C:1F91H         LINE#         655
  C:1F93H         LINE#         657
  C:1F93H         LINE#         658
  C:1F99H         LINE#         659
  C:1F9EH         LINE#         660
  C:1F9EH         LINE#         664
  C:1FA8H         LINE#         665
  C:1FA8H         LINE#         666
  C:1FC0H         LINE#         667
  C:1FCCH         LINE#         668
  C:1FCCH         LINE#         670
  C:1FD6H         LINE#         671
  C:1FE4H         LINE#         673
  C:1FF1H         LINE#         674
  C:1FFDH         LINE#         675
  C:1FFDH         LINE#         676
  C:2007H         LINE#         677
  C:2015H         LINE#         679
BL51 BANKED LINKER/LOCATER V6.22.2.0                                                  08/05/2020  11:21:06  PAGE 33


  C:2022H         LINE#         680
  C:2057H         LINE#         681
  C:2057H         LINE#         682
  C:2064H         LINE#         683
  C:2064H         LINE#         684
  C:2068H         LINE#         685
  C:207EH         LINE#         686
  C:2087H         LINE#         687
  C:2087H         LINE#         688
  C:208FH         LINE#         689
  C:2093H         LINE#         690
  C:2096H         LINE#         697
  C:2096H         LINE#         698
  C:20ABH         LINE#         699
  C:20ABH         LINE#         700
  C:20ABH         LINE#         701
  C:20AEH         LINE#         702
  C:20DCH         LINE#         703
  C:20DCH         LINE#         704
  C:20E9H         LINE#         705
  C:20E9H         LINE#         706
  C:20EDH         LINE#         707
  C:20F4H         LINE#         708
  C:20F4H         LINE#         709
  C:20F6H         LINE#         711
  C:20F6H         LINE#         712
  C:2100H         LINE#         713
  C:2100H         LINE#         714
  C:2100H         LINE#         716
  C:2103H         LINE#         717
  C:2122H         LINE#         718
  C:2122H         LINE#         720
  C:2139H         LINE#         721
  C:213BH         LINE#         761
  C:2164H         LINE#         762
  C:2164H         LINE#         763
  C:2166H         LINE#         764
  C:2166H         LINE#         766
  C:2169H         LINE#         767
  C:2169H         LINE#         768
  C:2182H         LINE#         769
  C:2182H         LINE#         770
  C:2189H         LINE#         771
  C:2190H         LINE#         772
  C:2197H         LINE#         774
  C:2199H         LINE#         776
  C:2199H         LINE#         777
  C:21A0H         LINE#         778
  C:21A5H         LINE#         779
  C:21AFH         LINE#         780
  C:21AFH         LINE#         781
  C:21B2H         LINE#         783
  C:21B2H         LINE#         784
  C:21C0H         LINE#         785
  C:21C0H         LINE#         786
  C:21C4H         LINE#         787
  C:21D6H         LINE#         788
BL51 BANKED LINKER/LOCATER V6.22.2.0                                                  08/05/2020  11:21:06  PAGE 34


  C:21D6H         LINE#         789
  C:21D8H         LINE#         791
  C:21D8H         LINE#         792
  C:21DDH         LINE#         793
  C:21F2H         LINE#         794
  C:21F2H         LINE#         795
  C:21F2H         LINE#         796
  C:21F2H         LINE#         798
  C:21F5H         LINE#         800
  C:21F5H         LINE#         801
  C:21FAH         LINE#         802
  C:220FH         LINE#         803
  C:220FH         LINE#         804
  C:220FH         LINE#         805
  C:2212H         LINE#         807
  C:2212H         LINE#         808
  C:2227H         LINE#         809
  C:2231H         LINE#         810
  C:2231H         LINE#         811
  C:2231H         LINE#         812
  C:2233H         LINE#         814
  C:2233H         LINE#         815
  C:2248H         LINE#         816
  C:2252H         LINE#         817
  C:225CH         LINE#         818
  C:225CH         LINE#         819
  C:225CH         LINE#         820
  C:225EH         LINE#         822
  C:225EH         LINE#         823
  C:2273H         LINE#         824
  C:227DH         LINE#         825
  C:2287H         LINE#         826
  C:2291H         LINE#         827
  C:2298H         LINE#         828
  C:2298H         LINE#         832
  C:22A2H         LINE#         833
  C:22A2H         LINE#         834
  C:22A8H         LINE#         835
  C:22B6H         LINE#         836
  C:22B6H         LINE#         837
  C:22BFH         LINE#         838
  C:22CDH         LINE#         840
  C:22D3H         LINE#         841
  C:22FAH         LINE#         842
  C:22FAH         LINE#         843
  C:230AH         LINE#         844
  C:230AH         LINE#         845
  C:230EH         LINE#         846
  C:2314H         LINE#         847
  C:2322H         LINE#         848
  C:2322H         LINE#         849
  C:2324H         LINE#         850
  C:2328H         LINE#         851
  C:232BH         LINE#         853
  C:232BH         LINE#         854
  C:232CH         LINE#         855
  C:232CH         LINE#         856
BL51 BANKED LINKER/LOCATER V6.22.2.0                                                  08/05/2020  11:21:06  PAGE 35


  C:232CH         LINE#         857
  C:232FH         LINE#         858
  C:2347H         LINE#         859
  C:2347H         LINE#         860
  C:2354H         LINE#         861
  C:2354H         LINE#         862
  C:2358H         LINE#         863
  C:235DH         LINE#         864
  C:235DH         LINE#         865
  C:2360H         LINE#         867
  C:2360H         LINE#         868
  C:2364H         LINE#         869
  C:2364H         LINE#         870
  C:2364H         LINE#         871
  C:2366H         LINE#         872
  C:236FH         LINE#         873
  C:236FH         LINE#         875
  C:2384H         LINE#         876
  C:2386H         LINE#         909
  C:23A5H         LINE#         910
  C:23A5H         LINE#         911
  C:23A7H         LINE#         912
  C:23A7H         LINE#         915
  C:23AAH         LINE#         916
  C:23AAH         LINE#         917
  C:23B8H         LINE#         918
  C:23B8H         LINE#         919
  C:23BCH         LINE#         920
  C:23C1H         LINE#         921
  C:23C1H         LINE#         922
  C:23C3H         LINE#         924
  C:23C3H         LINE#         925
  C:23C8H         LINE#         926
  C:23CCH         LINE#         927
  C:23CCH         LINE#         928
  C:23CCH         LINE#         929
  C:23CEH         LINE#         931
  C:23CEH         LINE#         932
  C:23DBH         LINE#         933
  C:23DBH         LINE#         934
  C:23DFH         LINE#         935
  C:23E5H         LINE#         936
  C:23EAH         LINE#         937
  C:23EAH         LINE#         938
  C:23EAH         LINE#         940
  C:23EAH         LINE#         942
  C:23EAH         LINE#         943
  C:23EAH         LINE#         946
  C:2401H         LINE#         947
  C:240BH         LINE#         948
  C:2415H         LINE#         949
  C:241FH         LINE#         950
  C:2429H         LINE#         952
  C:2429H         LINE#         955
  -------         ENDPROC       _ANALIZA_TIEMPO
  -------         ENDMOD        CLOCK

BL51 BANKED LINKER/LOCATER V6.22.2.0                                                  08/05/2020  11:21:06  PAGE 36


  -------         MODULE        DELAY
  C:0000H         SYMBOL        _ICE_DUMMY_
  C:78B7H         PUBLIC        _Delay_10ms
  C:7BB7H         PUBLIC        _Delay_20us
  C:7B5AH         PUBLIC        _Delay_1ms
  C:7CC3H         PUBLIC        Delay
  -------         PROC          _DELAY_20US
  D:0006H         SYMBOL        cnt
  -------         DO            
  D:0004H         SYMBOL        i
  -------         ENDDO         
  C:7BB7H         LINE#         20
  C:7BB7H         LINE#         21
  C:7BB7H         LINE#         24
  C:7BC1H         LINE#         26
  C:7BC8H         LINE#         27
  -------         ENDPROC       _DELAY_20US
  -------         PROC          _DELAY_1MS
  D:0002H         SYMBOL        cnt
  -------         DO            
  D:0082H         SYMBOL        i
  -------         ENDDO         
  C:7B5AH         LINE#         38
  C:7B5EH         LINE#         39
  C:7B5EH         LINE#         41
  C:7B74H         LINE#         42
  -------         ENDPROC       _DELAY_1MS
  -------         PROC          _DELAY_10MS
  X:000FH         SYMBOL        cnt
  -------         DO            
  X:0011H         SYMBOL        i
  -------         ENDDO         
  C:78B7H         LINE#         54
  C:78BFH         LINE#         55
  C:78BFH         LINE#         57
  C:78F0H         LINE#         58
  -------         ENDPROC       _DELAY_10MS
  -------         PROC          DELAY
  C:7CC3H         LINE#         60
  C:7CC3H         LINE#         62
  -------         ENDPROC       DELAY
  -------         ENDMOD        DELAY

  -------         MODULE        EEPROM
  C:0000H         SYMBOL        _ICE_DUMMY_
  D:0090H         PUBLIC        P1
  X:01A8H         PUBLIC        l_chr
  C:7A85H         PUBLIC        ackd
  B:0021H.5       PUBLIC        memory_flag
  B:00D0H.7       PUBLIC        CY
  C:7CABH         PUBLIC        p_me
  C:7352H         PUBLIC        variable_inicio
  C:7BD1H         PUBLIC        start
  B:0090H.2       PUBLIC        sda
  C:7AA5H         PUBLIC        ack_lect
  B:0090H.3       PUBLIC        scl
  C:7843H         PUBLIC        _rd_eeprom
BL51 BANKED LINKER/LOCATER V6.22.2.0                                                  08/05/2020  11:21:06  PAGE 37


  C:7C68H         PUBLIC        stop
  X:01A9H         PUBLIC        l_data_eeprom
  C:77C2H         PUBLIC        _wr_eeprom
  X:01AAH         PUBLIC        byte_rd
  C:7A3FH         PUBLIC        _e_d_m
  C:73FBH         PUBLIC        l_d_m
  -------         PROC          L?0036
  -------         ENDPROC       L?0036
  -------         PROC          ACKD
  -------         DO            
  D:0006H         SYMBOL        i
  -------         ENDDO         
  C:7A85H         LINE#         44
  C:7A85H         LINE#         45
  C:7A85H         LINE#         47
  C:7A87H         LINE#         48
  C:7A89H         LINE#         49
  C:7A8BH         LINE#         50
  C:7A8EH         LINE#         51
  C:7A8EH         LINE#         52
  C:7A91H         LINE#         53
  C:7A91H         LINE#         54
  C:7A93H         LINE#         55
  C:7A95H         LINE#         57
  C:7A96H         LINE#         58
  C:7A96H         LINE#         59
  C:7AA1H         LINE#         61
  C:7AA1H         LINE#         62
  C:7AA1H         LINE#         64
  C:7AA1H         LINE#         65
  -------         ENDPROC       ACKD
  -------         PROC          L?0038
  -------         ENDPROC       L?0038
  -------         PROC          ACK_LECT
  -------         DO            
  D:0006H         SYMBOL        i
  -------         ENDDO         
  C:7AA5H         LINE#         68
  C:7AA5H         LINE#         69
  C:7AA5H         LINE#         71
  C:7AA7H         LINE#         72
  C:7AA9H         LINE#         73
  C:7AABH         LINE#         74
  C:7AAEH         LINE#         75
  C:7AAEH         LINE#         76
  C:7AB1H         LINE#         77
  C:7AB1H         LINE#         78
  C:7AB3H         LINE#         79
  C:7AB5H         LINE#         80
  C:7AB6H         LINE#         81
  C:7AB6H         LINE#         82
  C:7AC1H         LINE#         83
  -------         ENDPROC       ACK_LECT
  -------         PROC          P_ME
  C:7CABH         LINE#         85
  C:7CABH         LINE#         86
  C:7CABH         LINE#         87
BL51 BANKED LINKER/LOCATER V6.22.2.0                                                  08/05/2020  11:21:06  PAGE 38


  C:7CADH         LINE#         88
  C:7CAEH         LINE#         89
  C:7CB0H         LINE#         90
  -------         ENDPROC       P_ME
  -------         PROC          _E_D_M
  D:0007H         SYMBOL        a_serial_eeprom
  -------         DO            
  D:0006H         SYMBOL        nbits
  -------         ENDDO         
  C:7A3FH         LINE#         92
  C:7A3FH         LINE#         93
  C:7A3FH         LINE#         95
  C:7A4BH         LINE#         96
  C:7A4BH         LINE#         97
  C:7A4FH         LINE#         98
  C:7A52H         LINE#         99
  C:7A52H         LINE#         100
  C:7A54H         LINE#         101
  C:7A56H         LINE#         103
  C:7A56H         LINE#         104
  C:7A58H         LINE#         105
  C:7A58H         LINE#         106
  C:7A5AH         LINE#         107
  C:7A5DH         LINE#         108
  C:7A60H         LINE#         110
  -------         ENDPROC       _E_D_M
  -------         PROC          L?0037
  -------         ENDPROC       L?0037
  -------         PROC          START
  C:7BD1H         LINE#         112
  C:7BD1H         LINE#         113
  C:7BD1H         LINE#         114
  C:7BD3H         LINE#         115
  C:7BD5H         LINE#         116
  C:7BD6H         LINE#         117
  C:7BD8H         LINE#         118
  C:7BDAH         LINE#         120
  -------         ENDPROC       START
  -------         PROC          STOP
  C:7C68H         LINE#         122
  C:7C68H         LINE#         123
  C:7C68H         LINE#         124
  C:7C6AH         LINE#         125
  C:7C6CH         LINE#         126
  C:7C6EH         LINE#         127
  C:7C70H         LINE#         129
  -------         ENDPROC       STOP
  -------         PROC          L_D_M
  -------         DO            
  D:0003H         SYMBOL        nbits
  -------         ENDDO         
  C:73FBH         LINE#         131
  C:73FBH         LINE#         132
  C:73FBH         LINE#         134
  C:7408H         LINE#         135
  C:7408H         LINE#         136
  C:740AH         LINE#         137
BL51 BANKED LINKER/LOCATER V6.22.2.0                                                  08/05/2020  11:21:06  PAGE 39


  C:740DH         LINE#         138
  C:740DH         LINE#         139
  C:7414H         LINE#         140
  C:741DH         LINE#         141
  C:741DH         LINE#         142
  C:7421H         LINE#         143
  C:7423H         LINE#         144
  C:7423H         LINE#         145
  C:7423H         LINE#         146
  C:7426H         LINE#         147
  C:7426H         LINE#         148
  C:742DH         LINE#         149
  C:7437H         LINE#         150
  C:7437H         LINE#         151
  C:743BH         LINE#         152
  C:743DH         LINE#         153
  C:743DH         LINE#         154
  C:743DH         LINE#         155
  C:7440H         LINE#         156
  C:7442H         LINE#         157
  C:7447H         LINE#         158
  -------         ENDPROC       L_D_M
  -------         PROC          _WR_EEPROM
  D:0002H         SYMBOL        control
  D:0004H         SYMBOL        Dir
  D:0003H         SYMBOL        data_eeprom
  -------         DO            
  D:0005H         SYMBOL        dir_h
  D:0001H         SYMBOL        dir_l
  -------         ENDDO         
  C:77C2H         LINE#         164
  C:77C4H         LINE#         165
  C:77C4H         LINE#         167
  C:77C8H         LINE#         168
  C:77C8H         LINE#         169
  C:77C8H         LINE#         172
  C:77C8H         LINE#         173
  C:77C8H         LINE#         175
  C:77CBH         LINE#         176
  C:77CDH         LINE#         177
  C:77D0H         LINE#         178
  C:77D2H         LINE#         179
  C:77D5H         LINE#         180
  C:77DAH         LINE#         181
  C:77DDH         LINE#         182
  C:77E2H         LINE#         183
  C:77E5H         LINE#         184
  C:77E8H         LINE#         185
  C:77EFH         LINE#         187
  C:77F1H         LINE#         188
  C:77F3H         LINE#         189
  C:77FAH         LINE#         190
  -------         ENDPROC       _WR_EEPROM
  C:783FH         SYMBOL        L?0035
  -------         PROC          L?0034
  -------         ENDPROC       L?0034
  C:783FH         SYMBOL        L?0035
BL51 BANKED LINKER/LOCATER V6.22.2.0                                                  08/05/2020  11:21:06  PAGE 40


  -------         PROC          _RD_EEPROM
  D:0003H         SYMBOL        control
  D:0004H         SYMBOL        Dir
  -------         DO            
  D:0005H         SYMBOL        dir_h
  D:0002H         SYMBOL        dir_l
  -------         ENDDO         
  C:7843H         LINE#         228
  C:7845H         LINE#         229
  C:7845H         LINE#         232
  C:7849H         LINE#         233
  C:7849H         LINE#         234
  C:7849H         LINE#         236
  C:7849H         LINE#         237
  C:7849H         LINE#         239
  C:784CH         LINE#         240
  C:784EH         LINE#         241
  C:7851H         LINE#         242
  C:7853H         LINE#         243
  C:7856H         LINE#         244
  C:785BH         LINE#         245
  C:785EH         LINE#         246
  C:7861H         LINE#         247
  C:7867H         LINE#         248
  C:786AH         LINE#         249
  C:786CH         LINE#         250
  C:786FH         LINE#         251
  C:7872H         LINE#         252
  C:7874H         LINE#         253
  C:7876H         LINE#         254
  C:787BH         LINE#         255
  -------         ENDPROC       _RD_EEPROM
  -------         PROC          VARIABLE_INICIO
  C:7352H         LINE#         259
  C:7352H         LINE#         260
  C:7352H         LINE#         262
  C:7362H         LINE#         263
  C:736FH         LINE#         264
  C:737CH         LINE#         265
  C:7389H         LINE#         266
  C:7393H         LINE#         268
  C:739DH         LINE#         269
  C:73A7H         LINE#         270
  -------         ENDPROC       VARIABLE_INICIO
  -------         ENDMOD        EEPROM

  -------         MODULE        IO_SENSORES
  C:0000H         SYMBOL        _ICE_DUMMY_
  D:0090H         PUBLIC        P1
  D:00B0H         PUBLIC        P3
  C:7BDBH         PUBLIC        Dir_board
  B:0090H.1       PUBLIC        DataIn
  C:7C88H         PUBLIC        sel_Auto
  C:70FDH         PUBLIC        ValidaSensoresPaso
  B:00B0H.3       PUBLIC        busy
  C:7AE1H         PUBLIC        ValidaSensores_Out
  C:7AC2H         PUBLIC        ValidaSensor
BL51 BANKED LINKER/LOCATER V6.22.2.0                                                  08/05/2020  11:21:06  PAGE 41


  C:7C96H         PUBLIC        sel_Sensor1
  C:7C8FH         PUBLIC        sel_Sensor2
  B:00B0H.5       PUBLIC        sel_A
  B:00B0H.6       PUBLIC        sel_B
  B:00B0H.7       PUBLIC        sel_C
  C:6E8BH         PUBLIC        msj_lcd_informativo
  C:7C9DH         PUBLIC        sel_Dir1
  C:7CA4H         PUBLIC        sel_Dir2
  C:7C81H         PUBLIC        sel_Funcion
  -------         PROC          SEL_FUNCION
  C:7C81H         LINE#         29
  C:7C81H         LINE#         30
  C:7C81H         LINE#         31
  C:7C83H         LINE#         32
  C:7C85H         LINE#         33
  C:7C87H         LINE#         34
  -------         ENDPROC       SEL_FUNCION
  -------         PROC          SEL_AUTO
  C:7C88H         LINE#         36
  C:7C88H         LINE#         37
  C:7C88H         LINE#         38
  C:7C8AH         LINE#         39
  C:7C8CH         LINE#         40
  C:7C8EH         LINE#         41
  -------         ENDPROC       SEL_AUTO
  -------         PROC          SEL_SENSOR2
  C:7C8FH         LINE#         52
  C:7C8FH         LINE#         53
  C:7C8FH         LINE#         54
  C:7C91H         LINE#         55
  C:7C93H         LINE#         56
  C:7C95H         LINE#         57
  -------         ENDPROC       SEL_SENSOR2
  -------         PROC          SEL_SENSOR1
  C:7C96H         LINE#         59
  C:7C96H         LINE#         60
  C:7C96H         LINE#         61
  C:7C98H         LINE#         62
  C:7C9AH         LINE#         63
  C:7C9CH         LINE#         64
  -------         ENDPROC       SEL_SENSOR1
  -------         PROC          SEL_DIR1
  C:7C9DH         LINE#         66
  C:7C9DH         LINE#         67
  C:7C9DH         LINE#         68
  C:7C9FH         LINE#         69
  C:7CA1H         LINE#         70
  C:7CA3H         LINE#         71
  -------         ENDPROC       SEL_DIR1
  -------         PROC          SEL_DIR2
  C:7CA4H         LINE#         73
  C:7CA4H         LINE#         74
  C:7CA4H         LINE#         75
  C:7CA6H         LINE#         76
  C:7CA8H         LINE#         77
  C:7CAAH         LINE#         78
  -------         ENDPROC       SEL_DIR2
BL51 BANKED LINKER/LOCATER V6.22.2.0                                                  08/05/2020  11:21:06  PAGE 42


  -------         PROC          VALIDASENSOR
  -------         DO            
  D:0007H         SYMBOL        Valido
  D:0004H         SYMBOL        Tmin
  -------         ENDDO         
  C:7AC2H         LINE#         80
  C:7AC2H         LINE#         81
  C:7AC2H         LINE#         83
  C:7AC4H         LINE#         84
  C:7AC8H         LINE#         85
  C:7AD3H         LINE#         86
  C:7AD3H         LINE#         87
  C:7AD8H         LINE#         88
  C:7ADCH         LINE#         89
  C:7ADCH         LINE#         90
  C:7ADEH         LINE#         91
  C:7ADEH         LINE#         92
  C:7AE0H         LINE#         93
  C:7AE0H         LINE#         94
  -------         ENDPROC       VALIDASENSOR
  -------         PROC          DIR_BOARD
  -------         DO            
  D:0007H         SYMBOL        Board
  -------         ENDDO         
  C:7BDBH         LINE#         98
  C:7BDBH         LINE#         99
  C:7BDBH         LINE#         100
  C:7BDDH         LINE#         102
  C:7BE0H         LINE#         103
  C:7BE3H         LINE#         104
  C:7BE3H         LINE#         105
  C:7BE4H         LINE#         106
  C:7BE4H         LINE#         107
  C:7BE7H         LINE#         108
  C:7BEAH         LINE#         109
  C:7BEAH         LINE#         110
  C:7BECH         LINE#         111
  C:7BECH         LINE#         112
  C:7BECH         LINE#         113
  -------         ENDPROC       DIR_BOARD
  -------         PROC          VALIDASENSORESPASO
  C:70FDH         LINE#         121
  C:70FDH         LINE#         122
  C:70FDH         LINE#         124
  C:7100H         LINE#         125
  C:7103H         LINE#         126
  C:7103H         LINE#         127
  C:7111H         LINE#         128
  C:7111H         LINE#         129
  C:7114H         LINE#         130
  C:7117H         LINE#         131
  C:711AH         LINE#         132
  C:711FH         LINE#         133
  C:711FH         LINE#         134
  C:7126H         LINE#         135
  C:712AH         LINE#         136
  C:712CH         LINE#         138
BL51 BANKED LINKER/LOCATER V6.22.2.0                                                  08/05/2020  11:21:06  PAGE 43


  C:712CH         LINE#         140
  C:712CH         LINE#         141
  C:7133H         LINE#         142
  C:7138H         LINE#         143
  C:713AH         LINE#         144
  C:713AH         LINE#         147
  C:713AH         LINE#         149
  C:713DH         LINE#         150
  C:7142H         LINE#         151
  C:7142H         LINE#         153
  C:7149H         LINE#         154
  C:714FH         LINE#         155
  C:7152H         LINE#         156
  C:7152H         LINE#         158
  C:7152H         LINE#         159
  C:7156H         LINE#         160
  C:7158H         LINE#         161
  C:7158H         LINE#         164
  C:7158H         LINE#         165
  C:7158H         LINE#         167
  C:7158H         LINE#         168
  C:7161H         LINE#         169
  C:7164H         LINE#         170
  C:7164H         LINE#         171
  C:7164H         LINE#         172
  C:7164H         LINE#         173
  C:716DH         LINE#         174
  C:716FH         LINE#         175
  C:716FH         LINE#         177
  -------         ENDPROC       VALIDASENSORESPASO
  -------         PROC          VALIDASENSORES_OUT
  -------         DO            
  D:0006H         SYMBOL        valido
  -------         ENDDO         
  C:7AE1H         LINE#         179
  C:7AE1H         LINE#         180
  C:7AE1H         LINE#         181
  C:7AE3H         LINE#         183
  C:7AE6H         LINE#         184
  C:7AE9H         LINE#         185
  C:7AE9H         LINE#         186
  C:7AF8H         LINE#         187
  C:7AF8H         LINE#         188
  C:7AF8H         LINE#         189
  C:7AFAH         LINE#         190
  C:7AFAH         LINE#         192
  C:7AFAH         LINE#         193
  C:7AFAH         LINE#         194
  C:7AFDH         LINE#         195
  C:7AFDH         LINE#         196
  C:7AFDH         LINE#         198
  C:7AFDH         LINE#         199
  C:7AFDH         LINE#         200
  C:7AFFH         LINE#         201
  C:7AFFH         LINE#         202
  -------         ENDPROC       VALIDASENSORES_OUT
  -------         PROC          MSJ_LCD_INFORMATIVO
BL51 BANKED LINKER/LOCATER V6.22.2.0                                                  08/05/2020  11:21:06  PAGE 44


  -------         DO            
  X:0001H         SYMBOL        info
  X:01B4H         SYMBOL        toggle
  -------         ENDDO         
  C:6E8BH         LINE#         209
  C:6E8BH         LINE#         210
  C:6E8BH         LINE#         211
  C:6E90H         LINE#         213
  C:6E93H         LINE#         214
  C:6E96H         LINE#         215
  C:6E96H         LINE#         216
  C:6EA2H         LINE#         217
  C:6EA2H         LINE#         218
  C:6EA5H         LINE#         219
  C:6EA5H         LINE#         220
  C:6EA7H         LINE#         221
  C:6EAAH         LINE#         222
  C:6EB0H         LINE#         223
  C:6EB0H         LINE#         224
  C:6EB2H         LINE#         225
  C:6EC0H         LINE#         226
  C:6EC0H         LINE#         227
  C:6EC3H         LINE#         228
  C:6EC3H         LINE#         229
  C:6EC5H         LINE#         230
  C:6EC8H         LINE#         231
  C:6ECEH         LINE#         232
  C:6ECEH         LINE#         233
  C:6ED0H         LINE#         234
  C:6EDEH         LINE#         235
  C:6EDEH         LINE#         236
  C:6EE1H         LINE#         237
  C:6EE1H         LINE#         238
  C:6EE3H         LINE#         239
  C:6EF1H         LINE#         240
  C:6EF1H         LINE#         241
  C:6EF3H         LINE#         242
  C:6EFAH         LINE#         244
  C:6EFFH         LINE#         245
  C:6EFFH         LINE#         247
  C:6EFFH         LINE#         249
  C:6EFFH         LINE#         251
  C:6F02H         LINE#         252
  C:6F05H         LINE#         253
  C:6F05H         LINE#         254
  C:6F0AH         LINE#         255
  C:6F0AH         LINE#         257
  -------         ENDPROC       MSJ_LCD_INFORMATIVO
  -------         ENDMOD        IO_SENSORES

  -------         MODULE        PANTALLAS
  C:0000H         SYMBOL        _ICE_DUMMY_
  D:0080H         PUBLIC        P0
  C:72FBH         PUBLIC        Reloj_Pantalla_Lcd
  C:3169H         PUBLIC        _PantallaLCD
  C:7641H         PUBLIC        _LCD_txt
  C:72A0H         PUBLIC        _Raspberry_data
BL51 BANKED LINKER/LOCATER V6.22.2.0                                                  08/05/2020  11:21:06  PAGE 45


  C:79D7H         PUBLIC        _tx_chrlcd
  C:3150H         SYMBOL        _?ix1000
  C:315DH         SYMBOL        _?ix1001
  C:3163H         SYMBOL        _?ix1002
  C:7568H         PUBLIC        _LCD_txt_num_char
  C:4B5AH         PUBLIC        _PantallaLCD_LINEA_2
  B:0098H.4       PUBLIC        REN
  B:0080H.7       PUBLIC        sel_com
  C:79CEH         SYMBOL        L?0109
  C:79D1H         SYMBOL        L?0110
  -------         PROC          L?0108
  -------         ENDPROC       L?0108
  C:79CEH         SYMBOL        L?0109
  C:79D1H         SYMBOL        L?0110
  -------         PROC          _TX_CHRLCD
  D:0007H         SYMBOL        data_com
  X:003FH         SYMBOL        enable_char_add
  -------         DO            
  X:0040H         SYMBOL        d
  -------         ENDDO         
  C:79D7H         LINE#         59
  C:79DCH         LINE#         60
  C:79DCH         LINE#         62
  C:79E4H         LINE#         63
  C:79F4H         LINE#         65
  -------         ENDPROC       _TX_CHRLCD
  -------         PROC          L?0111
  -------         ENDPROC       L?0111
  -------         PROC          _LCD_TXT
  X:003AH         SYMBOL        msg
  X:003DH         SYMBOL        enable_char_add
  -------         DO            
  X:003EH         SYMBOL        i
  -------         ENDDO         
  C:7641H         LINE#         72
  C:764FH         LINE#         73
  C:764FH         LINE#         76
  C:766CH         LINE#         77
  C:766CH         LINE#         78
  C:7674H         LINE#         79
  C:767CH         LINE#         80
  -------         ENDPROC       _LCD_TXT
  -------         PROC          _LCD_TXT_NUM_CHAR
  X:001DH         SYMBOL        msg
  X:0020H         SYMBOL        length_char
  X:0021H         SYMBOL        enable_char_add
  -------         DO            
  X:0022H         SYMBOL        i
  -------         ENDDO         
  C:7568H         LINE#         87
  C:7576H         LINE#         88
  C:7576H         LINE#         91
  C:7589H         LINE#         92
  C:7589H         LINE#         93
  C:75A5H         LINE#         94
  C:75ADH         LINE#         95
  -------         ENDPROC       _LCD_TXT_NUM_CHAR
BL51 BANKED LINKER/LOCATER V6.22.2.0                                                  08/05/2020  11:21:06  PAGE 46


  -------         PROC          _RASPBERRY_DATA
  X:003AH         SYMBOL        msg
  -------         DO            
  X:01B5H         SYMBOL        i
  X:003DH         SYMBOL        lenth_cadena
  X:003EH         SYMBOL        d
  -------         ENDDO         
  C:72A0H         LINE#         100
  C:72ABH         LINE#         101
  C:72ABH         LINE#         106
  C:72B3H         LINE#         111
  C:72D1H         LINE#         112
  C:72D1H         LINE#         113
  C:72E8H         LINE#         114
  C:72F2H         LINE#         118
  C:72FAH         LINE#         122
  -------         ENDPROC       _RASPBERRY_DATA
  -------         PROC          RELOJ_PANTALLA_LCD
  -------         DO            
  X:0010H         SYMBOL        Ini_Clock_LCD
  -------         ENDDO         
  C:72FBH         LINE#         131
  C:72FBH         LINE#         132
  C:72FBH         LINE#         134
  C:730EH         LINE#         135
  C:7314H         LINE#         136
  C:7314H         LINE#         137
  C:7316H         LINE#         138
  C:731FH         LINE#         142
  C:7321H         LINE#         143
  C:7331H         LINE#         145
  C:7333H         LINE#         146
  C:7335H         LINE#         148
  C:7336H         LINE#         150
  C:7336H         LINE#         151
  C:7338H         LINE#         152
  C:733DH         LINE#         153
  C:7346H         LINE#         154
  C:734FH         LINE#         155
  C:7351H         LINE#         156
  C:7351H         LINE#         157
  -------         ENDPROC       RELOJ_PANTALLA_LCD
  -------         PROC          _PANTALLALCD
  X:0010H         SYMBOL        cod_msg
  -------         DO            
  X:0011H         SYMBOL        Ini_LCD_Line_one
  X:0017H         SYMBOL        num_chr
  -------         ENDDO         
  C:3169H         LINE#         161
  C:316EH         LINE#         162
  C:316EH         LINE#         164
  C:3181H         LINE#         171
  C:3183H         LINE#         173
  C:318CH         LINE#         174
  C:318CH         LINE#         175
  C:3196H         LINE#         177
  C:31D7H         LINE#         178
BL51 BANKED LINKER/LOCATER V6.22.2.0                                                  08/05/2020  11:21:06  PAGE 47


  C:31D7H         LINE#         180
  C:31D7H         LINE#         181
  C:31E5H         LINE#         182
  C:31EBH         LINE#         183
  C:31EEH         LINE#         184
  C:31F4H         LINE#         185
  C:31F7H         LINE#         187
  C:31F7H         LINE#         189
  C:3205H         LINE#         190
  C:320BH         LINE#         191
  C:320EH         LINE#         192
  C:3214H         LINE#         193
  C:3217H         LINE#         195
  C:3217H         LINE#         197
  C:3225H         LINE#         198
  C:322BH         LINE#         199
  C:322EH         LINE#         200
  C:3234H         LINE#         201
  C:3237H         LINE#         202
  C:3237H         LINE#         203
  C:3245H         LINE#         204
  C:324BH         LINE#         205
  C:324EH         LINE#         206
  C:3254H         LINE#         207
  C:3257H         LINE#         208
  C:3257H         LINE#         209
  C:3265H         LINE#         210
  C:326BH         LINE#         211
  C:326EH         LINE#         212
  C:3274H         LINE#         213
  C:3277H         LINE#         214
  C:3277H         LINE#         215
  C:3285H         LINE#         216
  C:328BH         LINE#         217
  C:328EH         LINE#         218
  C:3294H         LINE#         219
  C:3297H         LINE#         220
  C:3297H         LINE#         222
  C:32A5H         LINE#         223
  C:32ABH         LINE#         224
  C:32AEH         LINE#         225
  C:32B4H         LINE#         226
  C:32B7H         LINE#         227
  C:32B7H         LINE#         233
  C:32B7H         LINE#         234
  C:32C5H         LINE#         235
  C:32CBH         LINE#         236
  C:32CEH         LINE#         237
  C:32D4H         LINE#         238
  C:32D7H         LINE#         239
  C:32D7H         LINE#         240
  C:32E5H         LINE#         241
  C:32EBH         LINE#         242
  C:32EEH         LINE#         243
  C:32F4H         LINE#         244
  C:32F7H         LINE#         246
  C:32F7H         LINE#         247
BL51 BANKED LINKER/LOCATER V6.22.2.0                                                  08/05/2020  11:21:06  PAGE 48


  C:3305H         LINE#         248
  C:330BH         LINE#         249
  C:330EH         LINE#         250
  C:3314H         LINE#         251
  C:3317H         LINE#         253
  C:3317H         LINE#         254
  C:3325H         LINE#         255
  C:332BH         LINE#         256
  C:332EH         LINE#         257
  C:3334H         LINE#         258
  C:3337H         LINE#         263
  C:3337H         LINE#         265
  C:3345H         LINE#         266
  C:334BH         LINE#         267
  C:334EH         LINE#         268
  C:3354H         LINE#         269
  C:3357H         LINE#         270
  C:3357H         LINE#         272
  C:3365H         LINE#         273
  C:336BH         LINE#         274
  C:336EH         LINE#         275
  C:3374H         LINE#         276
  C:3377H         LINE#         277
  C:3377H         LINE#         279
  C:3385H         LINE#         280
  C:338BH         LINE#         281
  C:338EH         LINE#         282
  C:3394H         LINE#         283
  C:3396H         LINE#         284
  C:3396H         LINE#         286
  C:33A4H         LINE#         287
  C:33AAH         LINE#         288
  C:33ADH         LINE#         289
  C:33B3H         LINE#         290
  C:33B5H         LINE#         292
  C:33B5H         LINE#         294
  C:33C3H         LINE#         295
  C:33C9H         LINE#         296
  C:33CCH         LINE#         297
  C:33D2H         LINE#         298
  C:33D4H         LINE#         300
  C:33D4H         LINE#         301
  C:33E2H         LINE#         302
  C:33E8H         LINE#         303
  C:33EBH         LINE#         304
  C:33F6H         LINE#         305
  C:33F6H         LINE#         306
  C:33F6H         LINE#         308
  C:33F6H         LINE#         309
  C:33F6H         LINE#         310
  C:33F8H         LINE#         312
  C:33F9H         LINE#         314
  C:33F9H         LINE#         315
  C:33FBH         LINE#         316
  C:343CH         LINE#         317
  C:343CH         LINE#         320
  C:343CH         LINE#         321
BL51 BANKED LINKER/LOCATER V6.22.2.0                                                  08/05/2020  11:21:06  PAGE 49


  C:3442H         LINE#         322
  C:3445H         LINE#         323
  C:3445H         LINE#         325
  C:344BH         LINE#         326
  C:344DH         LINE#         328
  C:344DH         LINE#         330
  C:3453H         LINE#         331
  C:3455H         LINE#         332
  C:3455H         LINE#         333
  C:345BH         LINE#         334
  C:345DH         LINE#         335
  C:345DH         LINE#         336
  C:3463H         LINE#         337
  C:3465H         LINE#         338
  C:3465H         LINE#         339
  C:346BH         LINE#         340
  C:346DH         LINE#         341
  C:346DH         LINE#         343
  C:3473H         LINE#         344
  C:3475H         LINE#         345
  C:3475H         LINE#         346
  C:347BH         LINE#         347
  C:347DH         LINE#         349
  C:347DH         LINE#         350
  C:3483H         LINE#         351
  C:3485H         LINE#         353
  C:3485H         LINE#         354
  C:348BH         LINE#         355
  C:348DH         LINE#         357
  C:348DH         LINE#         358
  C:3493H         LINE#         359
  C:3495H         LINE#         361
  C:3495H         LINE#         362
  C:349BH         LINE#         363
  C:349DH         LINE#         367
  C:349DH         LINE#         369
  C:34A3H         LINE#         370
  C:34A5H         LINE#         371
  C:34A5H         LINE#         373
  C:34ABH         LINE#         374
  C:34ADH         LINE#         375
  C:34ADH         LINE#         377
  C:34B3H         LINE#         379
  C:34B5H         LINE#         380
  C:34B5H         LINE#         382
  C:34BBH         LINE#         383
  C:34BDH         LINE#         384
  C:34BDH         LINE#         386
  C:34C3H         LINE#         387
  C:34C5H         LINE#         389
  C:34C5H         LINE#         391
  C:34CEH         LINE#         392
  C:34CEH         LINE#         394
  C:34CEH         LINE#         396
  C:34CEH         LINE#         397
  C:34CEH         LINE#         398
  C:34D0H         LINE#         399
BL51 BANKED LINKER/LOCATER V6.22.2.0                                                  08/05/2020  11:21:06  PAGE 50


  C:34D0H         LINE#         403
  -------         ENDPROC       _PANTALLALCD
  -------         PROC          _PANTALLALCD_LINEA_2
  X:0010H         SYMBOL        cod_msg
  X:0011H         SYMBOL        buffer
  -------         DO            
  X:0014H         SYMBOL        Ini_LCD_Line_one
  X:001AH         SYMBOL        num_chr
  X:001BH         SYMBOL        buf
  -------         ENDDO         
  C:4B5AH         LINE#         404
  C:4B68H         LINE#         405
  C:4B68H         LINE#         407
  C:4B7BH         LINE#         414
  C:4B7DH         LINE#         416
  C:4B86H         LINE#         417
  C:4B86H         LINE#         420
  C:4B94H         LINE#         421
  C:4B94H         LINE#         423
  C:4B94H         LINE#         424
  C:4B97H         LINE#         425
  C:4BA5H         LINE#         426
  C:4BBAH         LINE#         427
  C:4BC0H         LINE#         428
  C:4BC6H         LINE#         429
  C:4BCCH         LINE#         430
  C:4BCCH         LINE#         431
  C:4BCEH         LINE#         432
  C:4BCEH         LINE#         433
  C:4BD1H         LINE#         434
  C:4BDFH         LINE#         435
  C:4BF4H         LINE#         436
  C:4BFAH         LINE#         437
  C:4C00H         LINE#         438
  C:4C0BH         LINE#         439
  C:4C1BH         LINE#         440
  C:4C1BH         LINE#         441
  C:4C1BH         LINE#         443
  C:4C1BH         LINE#         445
  C:4C1BH         LINE#         446
  C:4C1DH         LINE#         447
  C:4C1EH         LINE#         449
  C:4C1EH         LINE#         450
  C:4C20H         LINE#         451
  C:4C2EH         LINE#         452
  C:4C2EH         LINE#         453
  C:4C2EH         LINE#         455
  C:4C3DH         LINE#         456
  C:4C3DH         LINE#         457
  C:4C3DH         LINE#         458
  C:4C3DH         LINE#         460
  C:4C3FH         LINE#         462
  C:4C3FH         LINE#         463
  C:4C4EH         LINE#         464
  C:4C61H         LINE#         465
  C:4C7BH         LINE#         466
  C:4C99H         LINE#         467
BL51 BANKED LINKER/LOCATER V6.22.2.0                                                  08/05/2020  11:21:06  PAGE 51


  C:4CB0H         LINE#         468
  C:4CB9H         LINE#         469
  C:4CB9H         LINE#         470
  C:4CB9H         LINE#         472
  C:4CB9H         LINE#         473
  C:4CB9H         LINE#         474
  C:4CBBH         LINE#         475
  C:4CBBH         LINE#         478
  -------         ENDPROC       _PANTALLALCD_LINEA_2
  -------         ENDMOD        PANTALLAS

  -------         MODULE        PROG
  C:0000H         SYMBOL        _ICE_DUMMY_
  C:4F45H         PUBLIC        Prog_Sin_Cobro
  C:54D0H         PUBLIC        Prog_debug
  C:58C0H         PUBLIC        dcto_caja
  C:6A59H         PUBLIC        _GetOption
  X:0115H         PUBLIC        validacion
  X:011EH         PUBLIC        cursor
  C:71DBH         PUBLIC        Show
  C:56C8H         PUBLIC        Prog_Comparacion_Activa
  C:603CH         PUBLIC        prog_id_cliente
  C:75FFH         PUBLIC        _ValidarClave
  C:43AAH         PUBLIC        menu
  C:55CCH         PUBLIC        Prog_Use_Lpr
  C:723EH         PUBLIC        _ListaComandos
  C:1EBCH         SYMBOL        _?ix1000
  C:1EC7H         SYMBOL        _?ix1001
  C:1ED7H         SYMBOL        _?ix1002
  C:1EE7H         SYMBOL        _?ix1003
  C:1EEBH         SYMBOL        _?ix1004
  C:1EEFH         SYMBOL        _?ix1005
  C:41E9H         PUBLIC        _hash_id
  C:5F7FH         PUBLIC        Prog_tiempo_gracia
  C:6F13H         PUBLIC        _IngresaDato
  X:0132H         PUBLIC        comandos
  C:7B75H         PUBLIC        DisplayCursor
  C:5EC2H         PUBLIC        prog_cod_park
  C:57C4H         PUBLIC        tipo_pantalla
  C:7749H         PUBLIC        _GetCMD
  -------         PROC          _HASH_ID
  X:005DH         SYMBOL        clave
  -------         DO            
  X:0060H         SYMBOL        len_clave
  X:0061H         SYMBOL        i
  X:0111H         SYMBOL        temp
  X:0113H         SYMBOL        temp1
  X:0062H         SYMBOL        aleatorio
  X:006DH         SYMBOL        suma
  X:007DH         SYMBOL        xxor
  X:008DH         SYMBOL        usuario1
  -------         ENDDO         
  C:41E9H         LINE#         63
  C:41F4H         LINE#         64
  C:41F4H         LINE#         67
  C:4207H         LINE#         68
  C:421AH         LINE#         69
BL51 BANKED LINKER/LOCATER V6.22.2.0                                                  08/05/2020  11:21:06  PAGE 52


  C:422DH         LINE#         72
  C:4240H         LINE#         73
  C:4252H         LINE#         74
  C:4252H         LINE#         75
  C:427EH         LINE#         76
  C:4289H         LINE#         77
  C:4296H         LINE#         78
  C:42B4H         LINE#         79
  C:42BFH         LINE#         80
  C:42CCH         LINE#         81
  C:42F0H         LINE#         82
  C:42F8H         LINE#         83
  C:42F8H         LINE#         84
  C:42FDH         LINE#         85
  C:42FDH         LINE#         86
  C:4316H         LINE#         87
  C:4316H         LINE#         88
  C:4322H         LINE#         90
  C:4322H         LINE#         91
  C:4331H         LINE#         92
  C:4331H         LINE#         93
  C:433DH         LINE#         94
  C:433DH         LINE#         95
  C:4356H         LINE#         96
  C:4356H         LINE#         97
  C:4361H         LINE#         98
  C:4361H         LINE#         99
  C:437AH         LINE#         100
  C:437AH         LINE#         101
  C:4385H         LINE#         102
  C:4385H         LINE#         103
  C:439AH         LINE#         105
  C:43A3H         LINE#         106
  C:43A9H         LINE#         107
  -------         ENDPROC       _HASH_ID
  -------         PROC          _LISTACOMANDOS
  X:005DH         SYMBOL        cmd
  -------         DO            
  X:0060H         SYMBOL        buf
  X:0063H         SYMBOL        i
  -------         ENDDO         
  C:723EH         LINE#         114
  C:7249H         LINE#         115
  C:7249H         LINE#         119
  C:725CH         LINE#         120
  C:725CH         LINE#         121
  C:7274H         LINE#         122
  C:728FH         LINE#         123
  C:7295H         LINE#         124
  C:729DH         LINE#         126
  C:729FH         LINE#         127
  -------         ENDPROC       _LISTACOMANDOS
  -------         PROC          L?0134
  -------         ENDPROC       L?0134
  -------         PROC          _VALIDARCLAVE
  X:005DH         SYMBOL        buffer
  -------         DO            
BL51 BANKED LINKER/LOCATER V6.22.2.0                                                  08/05/2020  11:21:06  PAGE 53


  X:0060H         SYMBOL        buf
  -------         ENDDO         
  C:75FFH         LINE#         133
  C:760AH         LINE#         134
  C:760AH         LINE#         137
  C:7619H         LINE#         138
  C:7634H         LINE#         139
  C:7636H         LINE#         142
  C:7638H         LINE#         143
  -------         ENDPROC       _VALIDARCLAVE
  C:7743H         SYMBOL        L?0133
  -------         PROC          L?0132
  -------         ENDPROC       L?0132
  C:7743H         SYMBOL        L?0133
  -------         PROC          _GETCMD
  X:005DH         SYMBOL        in
  -------         DO            
  X:0060H         SYMBOL        tokens
  -------         ENDDO         
  C:7749H         LINE#         150
  C:7754H         LINE#         151
  C:7754H         LINE#         152
  C:7767H         LINE#         153
  -------         ENDPROC       _GETCMD
  -------         PROC          L?0131
  -------         ENDPROC       L?0131
  -------         PROC          _GETOPTION
  X:005DH         SYMBOL        in
  -------         DO            
  X:0060H         SYMBOL        tokensSpace
  X:0064H         SYMBOL        tokensQuote
  -------         ENDDO         
  C:6A59H         LINE#         159
  C:6A64H         LINE#         160
  C:6A64H         LINE#         161
  C:6A77H         LINE#         162
  C:6A8AH         LINE#         165
  C:6A9CH         LINE#         166
  C:6AA8H         LINE#         169
  C:6AAFH         LINE#         170
  C:6ABCH         LINE#         172
  C:6AD5H         LINE#         173
  -------         ENDPROC       _GETOPTION
  -------         PROC          DISPLAYCURSOR
  C:7B75H         LINE#         178
  C:7B75H         LINE#         179
  C:7B75H         LINE#         180
  -------         ENDPROC       DISPLAYCURSOR
  C:6F0FH         SYMBOL        L?0130
  -------         PROC          L?0129
  -------         ENDPROC       L?0129
  C:6F0FH         SYMBOL        L?0130
  -------         PROC          _INGRESADATO
  X:0069H         SYMBOL        buffer
  X:006CH         SYMBOL        modo
  -------         DO            
  D:0006H         SYMBOL        i
BL51 BANKED LINKER/LOCATER V6.22.2.0                                                  08/05/2020  11:21:06  PAGE 54


  -------         ENDDO         
  C:6F13H         LINE#         187
  C:6F21H         LINE#         188
  C:6F21H         LINE#         193
  C:6F21H         LINE#         194
  C:6F33H         LINE#         195
  C:6F39H         LINE#         196
  C:6F39H         LINE#         197
  C:6F54H         LINE#         198
  C:6F56H         LINE#         200
  C:6F56H         LINE#         201
  C:6F5BH         LINE#         202
  C:6F5BH         LINE#         203
  C:6F6CH         LINE#         204
  C:6F76H         LINE#         205
  C:6F85H         LINE#         207
  C:6F8AH         LINE#         211
  -------         ENDPROC       _INGRESADATO
  -------         PROC          PROG_ID_CLIENTE
  -------         DO            
  X:005DH         SYMBOL        buffer
  X:0067H         SYMBOL        dataee
  -------         ENDDO         
  C:603CH         LINE#         228
  C:603CH         LINE#         229
  C:603CH         LINE#         233
  C:604EH         LINE#         234
  C:606BH         LINE#         236
  C:6082H         LINE#         238
  C:608BH         LINE#         239
  C:6092H         LINE#         240
  C:60A3H         LINE#         241
  C:60ACH         LINE#         243
  C:60BEH         LINE#         244
  C:60DBH         LINE#         245
  -------         ENDPROC       PROG_ID_CLIENTE
  -------         PROC          PROG_COD_PARK
  -------         DO            
  X:005DH         SYMBOL        buffer
  X:0067H         SYMBOL        dataee
  -------         ENDDO         
  C:5EC2H         LINE#         250
  C:5EC2H         LINE#         251
  C:5EC2H         LINE#         255
  C:5ED5H         LINE#         256
  C:5EF2H         LINE#         258
  C:5F09H         LINE#         260
  C:5F12H         LINE#         261
  C:5F1DH         LINE#         262
  C:5F2EH         LINE#         263
  C:5F38H         LINE#         265
  C:5F4BH         LINE#         266
  C:5F68H         LINE#         267
  -------         ENDPROC       PROG_COD_PARK
  -------         PROC          PROG_TIEMPO_GRACIA
  -------         DO            
  X:005DH         SYMBOL        buffer
BL51 BANKED LINKER/LOCATER V6.22.2.0                                                  08/05/2020  11:21:06  PAGE 55


  X:0067H         SYMBOL        dataee
  -------         ENDDO         
  C:5F7FH         LINE#         272
  C:5F7FH         LINE#         273
  C:5F7FH         LINE#         277
  C:5F92H         LINE#         278
  C:5FAFH         LINE#         280
  C:5FC6H         LINE#         282
  C:5FCFH         LINE#         283
  C:5FDAH         LINE#         284
  C:5FEBH         LINE#         285
  C:5FF5H         LINE#         287
  C:6008H         LINE#         288
  C:6025H         LINE#         289
  -------         ENDPROC       PROG_TIEMPO_GRACIA
  -------         PROC          PROG_SIN_COBRO
  -------         DO            
  X:005DH         SYMBOL        buffer
  X:0067H         SYMBOL        dataee
  -------         ENDDO         
  C:4F45H         LINE#         295
  C:4F45H         LINE#         296
  C:4F45H         LINE#         302
  C:4F58H         LINE#         303
  C:4F75H         LINE#         304
  C:4F7FH         LINE#         305
  C:4F7FH         LINE#         306
  C:4F92H         LINE#         307
  C:4F94H         LINE#         308
  C:4FA0H         LINE#         309
  C:4FA0H         LINE#         310
  C:4FB3H         LINE#         311
  C:4FB5H         LINE#         313
  C:4FB5H         LINE#         314
  C:4FCCH         LINE#         315
  C:4FCCH         LINE#         317
  C:4FD5H         LINE#         318
  C:4FE0H         LINE#         319
  C:4FF1H         LINE#         320
  C:4FFBH         LINE#         322
  C:500EH         LINE#         323
  C:502BH         LINE#         324
  C:5035H         LINE#         325
  C:5035H         LINE#         326
  C:5048H         LINE#         327
  C:504AH         LINE#         328
  C:5056H         LINE#         329
  C:5056H         LINE#         330
  C:5069H         LINE#         331
  C:506BH         LINE#         333
  C:506BH         LINE#         334
  C:5082H         LINE#         335
  C:5082H         LINE#         337
  -------         ENDPROC       PROG_SIN_COBRO
  -------         PROC          PROG_DEBUG
  -------         DO            
  X:005DH         SYMBOL        buffer
BL51 BANKED LINKER/LOCATER V6.22.2.0                                                  08/05/2020  11:21:06  PAGE 56


  X:0067H         SYMBOL        dataee
  -------         ENDDO         
  C:54D0H         LINE#         343
  C:54D0H         LINE#         344
  C:54D0H         LINE#         349
  C:54E3H         LINE#         350
  C:5500H         LINE#         351
  C:550AH         LINE#         352
  C:550AH         LINE#         353
  C:551DH         LINE#         354
  C:551FH         LINE#         356
  C:551FH         LINE#         357
  C:5536H         LINE#         358
  C:5536H         LINE#         360
  C:553FH         LINE#         361
  C:554AH         LINE#         362
  C:555BH         LINE#         363
  C:5565H         LINE#         365
  C:5578H         LINE#         366
  C:5595H         LINE#         367
  C:559FH         LINE#         368
  C:559FH         LINE#         369
  C:55B2H         LINE#         370
  C:55B4H         LINE#         372
  C:55B4H         LINE#         373
  C:55CBH         LINE#         374
  C:55CBH         LINE#         375
  -------         ENDPROC       PROG_DEBUG
  -------         PROC          PROG_USE_LPR
  -------         DO            
  X:005DH         SYMBOL        buffer
  X:0067H         SYMBOL        dataee
  -------         ENDDO         
  C:55CCH         LINE#         380
  C:55CCH         LINE#         381
  C:55CCH         LINE#         386
  C:55DFH         LINE#         387
  C:55FCH         LINE#         388
  C:5606H         LINE#         389
  C:5606H         LINE#         390
  C:5619H         LINE#         391
  C:561BH         LINE#         393
  C:561BH         LINE#         394
  C:5632H         LINE#         395
  C:5632H         LINE#         397
  C:563BH         LINE#         398
  C:5646H         LINE#         399
  C:5657H         LINE#         400
  C:5661H         LINE#         402
  C:5674H         LINE#         403
  C:5691H         LINE#         404
  C:569BH         LINE#         405
  C:569BH         LINE#         406
  C:56AEH         LINE#         407
  C:56B0H         LINE#         409
  C:56B0H         LINE#         410
  C:56C7H         LINE#         411
BL51 BANKED LINKER/LOCATER V6.22.2.0                                                  08/05/2020  11:21:06  PAGE 57


  C:56C7H         LINE#         412
  -------         ENDPROC       PROG_USE_LPR
  -------         PROC          PROG_COMPARACION_ACTIVA
  -------         DO            
  X:005DH         SYMBOL        buffer
  X:0067H         SYMBOL        dataee
  -------         ENDDO         
  C:56C8H         LINE#         416
  C:56C8H         LINE#         417
  C:56C8H         LINE#         422
  C:56DBH         LINE#         423
  C:56F8H         LINE#         424
  C:5702H         LINE#         425
  C:5702H         LINE#         426
  C:5715H         LINE#         427
  C:5717H         LINE#         429
  C:5717H         LINE#         430
  C:572EH         LINE#         431
  C:572EH         LINE#         433
  C:5737H         LINE#         434
  C:5742H         LINE#         435
  C:5753H         LINE#         436
  C:575DH         LINE#         438
  C:5770H         LINE#         439
  C:578DH         LINE#         440
  C:5797H         LINE#         441
  C:5797H         LINE#         442
  C:57AAH         LINE#         443
  C:57ACH         LINE#         445
  C:57ACH         LINE#         446
  C:57C3H         LINE#         447
  C:57C3H         LINE#         448
  -------         ENDPROC       PROG_COMPARACION_ACTIVA
  -------         PROC          TIPO_PANTALLA
  -------         DO            
  X:005DH         SYMBOL        buffer
  X:0067H         SYMBOL        dataee
  -------         ENDDO         
  C:57C4H         LINE#         454
  C:57C4H         LINE#         455
  C:57C4H         LINE#         460
  C:57D7H         LINE#         461
  C:57F4H         LINE#         462
  C:57FEH         LINE#         463
  C:57FEH         LINE#         464
  C:5811H         LINE#         465
  C:5813H         LINE#         467
  C:5813H         LINE#         468
  C:582AH         LINE#         469
  C:582AH         LINE#         471
  C:5833H         LINE#         472
  C:583EH         LINE#         473
  C:584FH         LINE#         474
  C:5859H         LINE#         476
  C:586CH         LINE#         477
  C:5889H         LINE#         478
  C:5893H         LINE#         479
BL51 BANKED LINKER/LOCATER V6.22.2.0                                                  08/05/2020  11:21:06  PAGE 58


  C:5893H         LINE#         480
  C:58A6H         LINE#         481
  C:58A8H         LINE#         483
  C:58A8H         LINE#         484
  C:58BFH         LINE#         485
  C:58BFH         LINE#         487
  -------         ENDPROC       TIPO_PANTALLA
  -------         PROC          DCTO_CAJA
  -------         DO            
  X:005DH         SYMBOL        buffer
  X:0067H         SYMBOL        dataee
  -------         ENDDO         
  C:58C0H         LINE#         493
  C:58C0H         LINE#         494
  C:58C0H         LINE#         499
  C:58D3H         LINE#         500
  C:58F0H         LINE#         501
  C:58FAH         LINE#         502
  C:58FAH         LINE#         503
  C:590DH         LINE#         504
  C:590FH         LINE#         506
  C:590FH         LINE#         507
  C:5926H         LINE#         508
  C:5926H         LINE#         510
  C:592FH         LINE#         511
  C:593AH         LINE#         512
  C:594BH         LINE#         513
  C:5955H         LINE#         515
  C:5968H         LINE#         516
  C:5985H         LINE#         517
  C:598FH         LINE#         518
  C:598FH         LINE#         519
  C:59A2H         LINE#         520
  C:59A4H         LINE#         522
  C:59A4H         LINE#         523
  C:59BBH         LINE#         524
  C:59BBH         LINE#         525
  -------         ENDPROC       DCTO_CAJA
  -------         PROC          SHOW
  C:71DBH         LINE#         529
  C:71DBH         LINE#         530
  C:71DBH         LINE#         531
  C:71E4H         LINE#         532
  C:71EDH         LINE#         533
  C:71F6H         LINE#         534
  C:71FFH         LINE#         535
  C:7208H         LINE#         536
  C:7211H         LINE#         537
  C:721AH         LINE#         538
  C:7223H         LINE#         539
  C:722CH         LINE#         540
  C:7235H         LINE#         541
  -------         ENDPROC       SHOW
  -------         PROC          MENU
  -------         DO            
  X:0001H         SYMBOL        cmd
  X:0004H         SYMBOL        option1
BL51 BANKED LINKER/LOCATER V6.22.2.0                                                  08/05/2020  11:21:06  PAGE 59


  X:0007H         SYMBOL        option2
  X:000AH         SYMBOL        usuario
  X:000DH         SYMBOL        opt_buffer
  X:0035H         SYMBOL        buffer
  -------         ENDDO         
  C:43AAH         LINE#         549
  C:43AAH         LINE#         550
  C:43AAH         LINE#         559
  C:43B3H         LINE#         564
  C:43B3H         LINE#         565
  C:43BCH         LINE#         568
  C:43BFH         LINE#         569
  C:43CDH         LINE#         570
  C:43E1H         LINE#         571
  C:43E7H         LINE#         574
  C:43E7H         LINE#         575
  C:43F0H         LINE#         577
  C:43FBH         LINE#         578
  C:4409H         LINE#         579
  C:4418H         LINE#         582
  C:441EH         LINE#         585
  C:4421H         LINE#         586
  C:4421H         LINE#         587
  C:4421H         LINE#         588
  C:4424H         LINE#         591
  C:4427H         LINE#         592
  C:4435H         LINE#         593
  C:4449H         LINE#         594
  C:445DH         LINE#         599
  C:4473H         LINE#         600
  C:4473H         LINE#         602
  C:4482H         LINE#         603
  C:4484H         LINE#         604
  C:4494H         LINE#         605
  C:4494H         LINE#         607
  C:44A3H         LINE#         608
  C:44C1H         LINE#         609
  C:44C1H         LINE#         615
  C:44D4H         LINE#         616
  C:44D4H         LINE#         617
  C:4505H         LINE#         618
  C:4505H         LINE#         619
  C:4505H         LINE#         620
  C:4508H         LINE#         622
  C:450BH         LINE#         624
  C:450BH         LINE#         625
  C:450EH         LINE#         626
  C:4511H         LINE#         628
  C:4511H         LINE#         630
  C:4514H         LINE#         632
  C:4517H         LINE#         634
  C:4517H         LINE#         635
  C:451AH         LINE#         637
  C:451DH         LINE#         639
  C:451DH         LINE#         640
  C:4520H         LINE#         641
  C:4523H         LINE#         642
BL51 BANKED LINKER/LOCATER V6.22.2.0                                                  08/05/2020  11:21:06  PAGE 60


  C:4523H         LINE#         643
  C:4526H         LINE#         644
  C:4529H         LINE#         645
  C:4529H         LINE#         646
  C:452CH         LINE#         648
  C:452FH         LINE#         649
  C:452FH         LINE#         650
  C:4532H         LINE#         651
  C:4535H         LINE#         653
  C:4535H         LINE#         654
  C:4538H         LINE#         655
  C:453BH         LINE#         656
  C:453BH         LINE#         658
  C:453EH         LINE#         659
  C:4541H         LINE#         660
  C:4541H         LINE#         663
  C:4541H         LINE#         667
  C:4541H         LINE#         668
  C:455FH         LINE#         669
  C:4562H         LINE#         670
  C:4562H         LINE#         671
  C:4562H         LINE#         672
  C:4562H         LINE#         673
  -------         ENDPROC       MENU
  -------         ENDMOD        PROG

  -------         MODULE        PTO_PARALELO
  C:0000H         SYMBOL        _ICE_DUMMY_
  D:0080H         PUBLIC        P0
  D:00A0H         PUBLIC        P2
  D:00B0H         PUBLIC        P3
  B:0080H.2       PUBLIC        led_err_imp
  C:52C1H         PUBLIC        load_and_send_id_cod
  C:662EH         PUBLIC        _recibe_port
  B:00B0H.2       PUBLIC        ready
  B:0080H.6       PUBLIC        rx_in_data
  C:7BEDH         PUBLIC        Pulso_Bus
  C:6BF1H         PUBLIC        _send_portERR
  B:00B0H.3       PUBLIC        busy
  C:7928H         PUBLIC        load_and_send_info_reloj
  C:60F2H         PUBLIC        _send_port
  B:00B0H.4       PUBLIC        port_clk
  C:3AB2H         PUBLIC        _Trama_pto_Paralelo_new
  C:53D1H         PUBLIC        _Trama_pto_Paralelo_P
  C:7C5EH         PUBLIC        cond_ini_pto
  -------         PROC          _RECIBE_PORT
  X:0001H         SYMBOL        buffer_port
  -------         DO            
  D:0006H         SYMBOL        count
  X:0004H         SYMBOL        time_out
  X:0005H         SYMBOL        num_data
  X:0006H         SYMBOL        T_ANCHO
  X:0008H         SYMBOL        data_temp
  -------         ENDDO         
  C:662EH         LINE#         46
  C:6639H         LINE#         47
  C:6639H         LINE#         51
BL51 BANKED LINKER/LOCATER V6.22.2.0                                                  08/05/2020  11:21:06  PAGE 61


  C:6642H         LINE#         52
  C:6645H         LINE#         55
  C:6648H         LINE#         56
  C:6648H         LINE#         58
  C:664BH         LINE#         59
  C:6650H         LINE#         60
  C:6652H         LINE#         61
  C:6656H         LINE#         62
  C:6658H         LINE#         65
  C:665DH         LINE#         66
  C:6666H         LINE#         67
  C:6666H         LINE#         68
  C:6669H         LINE#         69
  C:6669H         LINE#         71
  C:666EH         LINE#         72
  C:6672H         LINE#         73
  C:6672H         LINE#         74
  C:6674H         LINE#         75
  C:6676H         LINE#         76
  C:6676H         LINE#         77
  C:6676H         LINE#         79
  C:6676H         LINE#         80
  C:6683H         LINE#         81
  C:6683H         LINE#         83
  C:6686H         LINE#         84
  C:6686H         LINE#         86
  C:668CH         LINE#         88
  C:668EH         LINE#         89
  C:66A2H         LINE#         90
  C:66ACH         LINE#         91
  C:66B2H         LINE#         92
  C:66B8H         LINE#         93
  C:66BAH         LINE#         94
  C:66BAH         LINE#         95
  C:66BAH         LINE#         96
  C:66BAH         LINE#         97
  C:66BAH         LINE#         99
  C:66BDH         LINE#         100
  C:66BFH         LINE#         101
  C:66C1H         LINE#         102
  C:66C1H         LINE#         103
  C:66C4H         LINE#         105
  C:66C9H         LINE#         106
  -------         ENDPROC       _RECIBE_PORT
  -------         PROC          _SEND_PORT
  X:0034H         SYMBOL        buffer_port
  X:0037H         SYMBOL        length_char
  -------         DO            
  X:0038H         SYMBOL        cont
  X:003CH         SYMBOL        timeOut
  X:003DH         SYMBOL        length
  -------         ENDDO         
  C:60F2H         LINE#         113
  C:6100H         LINE#         114
  C:6100H         LINE#         119
  C:6104H         LINE#         121
  C:6106H         LINE#         122
BL51 BANKED LINKER/LOCATER V6.22.2.0                                                  08/05/2020  11:21:06  PAGE 62


  C:6108H         LINE#         123
  C:610AH         LINE#         124
  C:610FH         LINE#         125
  C:6111H         LINE#         126
  C:611BH         LINE#         128
  C:6124H         LINE#         129
  C:6124H         LINE#         130
  C:6126H         LINE#         131
  C:6128H         LINE#         132
  C:614CH         LINE#         133
  C:6160H         LINE#         134
  C:6160H         LINE#         135
  C:6163H         LINE#         136
  C:6165H         LINE#         137
  C:6165H         LINE#         138
  C:6167H         LINE#         139
  C:6170H         LINE#         140
  C:6170H         LINE#         144
  C:6170H         LINE#         146
  C:6180H         LINE#         147
  C:6183H         LINE#         148
  C:618DH         LINE#         150
  C:6193H         LINE#         151
  C:6196H         LINE#         153
  C:6196H         LINE#         154
  C:6199H         LINE#         155
  C:619BH         LINE#         156
  C:619DH         LINE#         157
  C:619FH         LINE#         158
  -------         ENDPROC       _SEND_PORT
  -------         PROC          _TRAMA_PTO_PARALELO_P
  D:0001H         SYMBOL        buffer_S1_B0
  X:0011H         SYMBOL        buffer_S1_B2
  X:0014H         SYMBOL        cmd
  -------         DO            
  X:018AH         SYMBOL        Buffer_port
  X:0015H         SYMBOL        j
  -------         ENDDO         
  C:53D1H         LINE#         226
  C:53D1H         LINE#         227
  C:53D1H         LINE#         230
  C:53D7H         LINE#         231
  C:53DCH         LINE#         232
  C:53E4H         LINE#         233
  C:53E8H         LINE#         235
  C:53E8H         LINE#         236
  C:53FFH         LINE#         237
  C:5406H         LINE#         238
  C:540BH         LINE#         239
  C:5415H         LINE#         240
  C:5428H         LINE#         242
  C:5428H         LINE#         243
  C:543CH         LINE#         244
  C:5458H         LINE#         245
  C:5458H         LINE#         258
  C:546CH         LINE#         261
  C:5482H         LINE#         262
BL51 BANKED LINKER/LOCATER V6.22.2.0                                                  08/05/2020  11:21:06  PAGE 63


  C:5482H         LINE#         263
  C:5493H         LINE#         264
  C:5495H         LINE#         266
  C:5495H         LINE#         267
  C:54A6H         LINE#         268
  C:54A6H         LINE#         271
  C:54A8H         LINE#         273
  C:54B6H         LINE#         274
  C:54B9H         LINE#         276
  C:54CDH         LINE#         277
  -------         ENDPROC       _TRAMA_PTO_PARALELO_P
  -------         PROC          _TRAMA_PTO_PARALELO_NEW
  D:0001H         SYMBOL        buffer_S1_B0
  X:0011H         SYMBOL        buffer_S1_B2
  X:0014H         SYMBOL        cmd
  -------         DO            
  X:0015H         SYMBOL        Buffer_port
  X:0033H         SYMBOL        j
  -------         ENDDO         
  C:3AB2H         LINE#         351
  C:3AB2H         LINE#         352
  C:3AB2H         LINE#         354
  C:3AB8H         LINE#         356
  C:3ABCH         LINE#         357
  C:3AC4H         LINE#         360
  C:3AC4H         LINE#         361
  C:3ADBH         LINE#         362
  C:3AE2H         LINE#         363
  C:3AE7H         LINE#         365
  C:3AFDH         LINE#         367
  C:3AFDH         LINE#         368
  C:3B0EH         LINE#         369
  C:3B2AH         LINE#         370
  C:3B2CH         LINE#         372
  C:3B2CH         LINE#         373
  C:3B3DH         LINE#         374
  C:3B51H         LINE#         375
  C:3B51H         LINE#         377
  C:3B6BH         LINE#         378
  C:3B6BH         LINE#         379
  C:3B6EH         LINE#         380
  C:3B70H         LINE#         382
  C:3B70H         LINE#         383
  C:3B73H         LINE#         384
  C:3B73H         LINE#         386
  C:3B87H         LINE#         387
  C:3BA0H         LINE#         388
  C:3BBCH         LINE#         389
  C:3BD8H         LINE#         390
  C:3BF4H         LINE#         391
  C:3C10H         LINE#         392
  C:3C24H         LINE#         394
  C:3C34H         LINE#         396
  C:3C58H         LINE#         397
  C:3C7CH         LINE#         398
  C:3CA0H         LINE#         399
  C:3CC4H         LINE#         400
BL51 BANKED LINKER/LOCATER V6.22.2.0                                                  08/05/2020  11:21:06  PAGE 64


  C:3CE8H         LINE#         404
  C:3CFCH         LINE#         407
  C:3D12H         LINE#         408
  C:3D12H         LINE#         409
  C:3D23H         LINE#         410
  C:3D25H         LINE#         412
  C:3D25H         LINE#         413
  C:3D36H         LINE#         414
  C:3D36H         LINE#         415
  C:3D4AH         LINE#         418
  C:3D4CH         LINE#         419
  C:3D4FH         LINE#         420
  C:3D5DH         LINE#         422
  C:3D60H         LINE#         423
  C:3D69H         LINE#         424
  C:3D7CH         LINE#         425
  -------         ENDPROC       _TRAMA_PTO_PARALELO_NEW
  -------         PROC          PULSO_BUS
  C:7BEDH         LINE#         433
  C:7BEDH         LINE#         434
  C:7BEDH         LINE#         435
  C:7BEFH         LINE#         436
  C:7BF6H         LINE#         437
  C:7BF8H         LINE#         438
  -------         ENDPROC       PULSO_BUS
  -------         PROC          _SEND_PORTERR
  X:000EH         SYMBOL        cod_err
  -------         DO            
  X:000FH         SYMBOL        timeOut
  X:0010H         SYMBOL        cont
  -------         ENDDO         
  C:6BF1H         LINE#         443
  C:6BF7H         LINE#         444
  C:6BF7H         LINE#         448
  C:6BF9H         LINE#         449
  C:6BFBH         LINE#         450
  C:6BFEH         LINE#         451
  C:6C06H         LINE#         453
  C:6C08H         LINE#         454
  C:6C0AH         LINE#         455
  C:6C13H         LINE#         456
  C:6C13H         LINE#         457
  C:6C35H         LINE#         458
  C:6C49H         LINE#         459
  C:6C49H         LINE#         460
  C:6C4EH         LINE#         461
  C:6C4EH         LINE#         462
  C:6C50H         LINE#         463
  C:6C59H         LINE#         464
  C:6C59H         LINE#         465
  C:6C5FH         LINE#         466
  C:6C62H         LINE#         467
  C:6C62H         LINE#         468
  C:6C64H         LINE#         469
  C:6C66H         LINE#         470
  C:6C68H         LINE#         472
  C:6C6BH         LINE#         474
BL51 BANKED LINKER/LOCATER V6.22.2.0                                                  08/05/2020  11:21:06  PAGE 65


  C:6C72H         LINE#         475
  -------         ENDPROC       _SEND_PORTERR
  -------         PROC          COND_INI_PTO
  C:7C5EH         LINE#         481
  C:7C5EH         LINE#         482
  C:7C5EH         LINE#         484
  C:7C60H         LINE#         485
  C:7C62H         LINE#         486
  C:7C64H         LINE#         487
  C:7C67H         LINE#         488
  -------         ENDPROC       COND_INI_PTO
  -------         PROC          LOAD_AND_SEND_INFO_RELOJ
  -------         DO            
  X:0002H         SYMBOL        buffer_info
  -------         ENDDO         
  C:7928H         LINE#         493
  C:7928H         LINE#         494
  C:7928H         LINE#         497
  C:792EH         LINE#         499
  C:7932H         LINE#         501
  C:793BH         LINE#         502
  C:7945H         LINE#         503
  C:7949H         LINE#         507
  -------         ENDPROC       LOAD_AND_SEND_INFO_RELOJ
  -------         PROC          LOAD_AND_SEND_ID_COD
  -------         DO            
  X:0002H         SYMBOL        buffer_info
  X:000DH         SYMBOL        buf
  X:0011H         SYMBOL        i
  X:0012H         SYMBOL        k
  -------         ENDDO         
  C:52C1H         LINE#         514
  C:52C1H         LINE#         515
  C:52C1H         LINE#         519
  C:52C6H         LINE#         521
  C:52CCH         LINE#         522
  C:52D0H         LINE#         523
  C:52F6H         LINE#         524
  C:52FCH         LINE#         525
  C:52FCH         LINE#         526
  C:530DH         LINE#         527
  C:530DH         LINE#         528
  C:531CH         LINE#         529
  C:5322H         LINE#         530
  C:5324H         LINE#         531
  C:533CH         LINE#         533
  C:5344H         LINE#         536
  C:536AH         LINE#         538
  C:536FH         LINE#         539
  C:536FH         LINE#         540
  C:5380H         LINE#         541
  C:5380H         LINE#         542
  C:538FH         LINE#         543
  C:5395H         LINE#         544
  C:53AFH         LINE#         545
  C:53B7H         LINE#         548
  C:53C8H         LINE#         549
BL51 BANKED LINKER/LOCATER V6.22.2.0                                                  08/05/2020  11:21:06  PAGE 66


  -------         ENDPROC       LOAD_AND_SEND_ID_COD
  -------         ENDMOD        PTO_PARALELO

  -------         MODULE        TIBBO
  C:0000H         SYMBOL        _ICE_DUMMY_
  C:75AEH         PUBLIC        _Debug_HexDec
  C:7683H         PUBLIC        _Debug_txt_Tibbo
  D:0080H         PUBLIC        P0
  D:0090H         PUBLIC        P1
  C:644BH         PUBLIC        _Debug_Fecha_actual
  B:0090H.0       PUBLIC        txd2
  B:00A8H.7       PUBLIC        EA
  C:744BH         PUBLIC        _tx_aux
  B:0080H.0       PUBLIC        rx_ip
  C:7C71H         PUBLIC        Debug_Dividir_texto
  C:7CBBH         PUBLIC        cond_ini_tibbo
  C:7B8CH         PUBLIC        time_mbit
  C:6C79H         PUBLIC        rx_Data
  C:7B06H         PUBLIC        time_bit
  C:7493H         PUBLIC        _Debug_pto_paralelo
  C:7087H         PUBLIC        _DebugBufferMF
  C:74DBH         PUBLIC        _Debug_chr_Tibbo
  C:7B00H         SYMBOL        L?0066
  -------         PROC          L?0065
  -------         ENDPROC       L?0065
  C:7B00H         SYMBOL        L?0066
  -------         PROC          TIME_BIT
  -------         DO            
  D:0007H         SYMBOL        j
  -------         ENDDO         
  C:7B06H         LINE#         18
  C:7B06H         LINE#         19
  C:7B06H         LINE#         22
  C:7B12H         LINE#         23
  C:7B12H         LINE#         24
  C:7B13H         LINE#         25
  C:7B14H         LINE#         26
  C:7B15H         LINE#         27
  C:7B16H         LINE#         28
  C:7B17H         LINE#         29
  C:7B18H         LINE#         30
  C:7B19H         LINE#         31
  C:7B1AH         LINE#         32
  C:7B1BH         LINE#         37
  C:7B1EH         LINE#         38
  -------         ENDPROC       TIME_BIT
  -------         PROC          TIME_MBIT
  -------         DO            
  D:0007H         SYMBOL        j
  -------         ENDDO         
  C:7B8CH         LINE#         41
  C:7B8CH         LINE#         42
  C:7B8CH         LINE#         44
  C:7B98H         LINE#         45
  C:7B98H         LINE#         46
  C:7B99H         LINE#         47
  C:7B9AH         LINE#         48
BL51 BANKED LINKER/LOCATER V6.22.2.0                                                  08/05/2020  11:21:06  PAGE 67


  C:7B9BH         LINE#         49
  C:7B9CH         LINE#         50
  C:7B9DH         LINE#         51
  C:7B9EH         LINE#         52
  C:7B9FH         LINE#         53
  C:7BA2H         LINE#         55
  -------         ENDPROC       TIME_MBIT
  -------         PROC          L?0067
  -------         ENDPROC       L?0067
  -------         PROC          _TX_AUX
  D:0006H         SYMBOL        caracter
  -------         DO            
  D:0004H         SYMBOL        j
  D:0005H         SYMBOL        temporal
  D:0006H         SYMBOL        bitTX
  -------         ENDDO         
  C:744BH         LINE#         60
  C:744DH         LINE#         61
  C:744DH         LINE#         64
  C:744FH         LINE#         65
  C:7451H         LINE#         66
  C:7454H         LINE#         67
  C:7455H         LINE#         68
  C:7456H         LINE#         69
  C:7458H         LINE#         70
  C:745CH         LINE#         71
  C:745EH         LINE#         72
  C:745EH         LINE#         73
  C:7460H         LINE#         74
  C:7462H         LINE#         76
  C:7462H         LINE#         77
  C:7464H         LINE#         78
  C:7464H         LINE#         79
  C:7467H         LINE#         80
  C:7473H         LINE#         81
  C:7473H         LINE#         82
  C:7477H         LINE#         83
  C:747AH         LINE#         84
  C:747CH         LINE#         85
  C:747CH         LINE#         86
  C:747EH         LINE#         87
  C:7480H         LINE#         89
  C:7480H         LINE#         90
  C:7482H         LINE#         91
  C:7482H         LINE#         92
  C:7485H         LINE#         93
  C:7488H         LINE#         94
  C:748AH         LINE#         95
  C:748DH         LINE#         96
  C:7490H         LINE#         98
  C:7492H         LINE#         99
  -------         ENDPROC       _TX_AUX
  -------         PROC          _DEBUG_HEXDEC
  D:0007H         SYMBOL        xfc
  -------         DO            
  X:000EH         SYMBOL        valor
  D:0006H         SYMBOL        centena
BL51 BANKED LINKER/LOCATER V6.22.2.0                                                  08/05/2020  11:21:06  PAGE 68


  D:0003H         SYMBOL        decena
  D:0002H         SYMBOL        unidad
  -------         ENDDO         
  C:75AEH         LINE#         102
  C:75AEH         LINE#         103
  C:75AEH         LINE#         106
  C:75B5H         LINE#         108
  C:75B6H         LINE#         109
  C:75B7H         LINE#         110
  C:75B8H         LINE#         112
  C:75C0H         LINE#         113
  C:75C0H         LINE#         114
  C:75CAH         LINE#         115
  C:75CAH         LINE#         116
  C:75CEH         LINE#         117
  C:75CFH         LINE#         118
  C:75D1H         LINE#         119
  C:75DBH         LINE#         120
  C:75DBH         LINE#         121
  C:75DFH         LINE#         122
  C:75E0H         LINE#         123
  C:75E2H         LINE#         124
  C:75E4H         LINE#         125
  C:75E8H         LINE#         126
  C:75ECH         LINE#         127
  C:75F3H         LINE#         129
  C:75F3H         LINE#         130
  -------         ENDPROC       _DEBUG_HEXDEC
  -------         PROC          _DEBUG_CHR_TIBBO
  D:0003H         SYMBOL        Dat
  -------         DO            
  D:0007H         SYMBOL        temp
  -------         ENDDO         
  C:74DBH         LINE#         135
  C:74DDH         LINE#         136
  C:74DDH         LINE#         139
  C:74E5H         LINE#         140
  C:74E5H         LINE#         141
  C:74ECH         LINE#         142
  C:74FFH         LINE#         144
  C:7502H         LINE#         146
  C:7506H         LINE#         147
  C:7519H         LINE#         148
  C:751CH         LINE#         149
  C:7521H         LINE#         151
  C:7521H         LINE#         152
  -------         ENDPROC       _DEBUG_CHR_TIBBO
  -------         PROC          _DEBUGBUFFERMF
  X:0034H         SYMBOL        str
  X:0037H         SYMBOL        num_char
  X:0038H         SYMBOL        io
  -------         DO            
  X:0039H         SYMBOL        j
  -------         ENDDO         
  C:7087H         LINE#         159
  C:7095H         LINE#         160
  C:7095H         LINE#         164
BL51 BANKED LINKER/LOCATER V6.22.2.0                                                  08/05/2020  11:21:06  PAGE 69


  C:709DH         LINE#         165
  C:709DH         LINE#         166
  C:70A0H         LINE#         167
  C:70AFH         LINE#         168
  C:70AFH         LINE#         169
  C:70B3H         LINE#         170
  C:70BCH         LINE#         171
  C:70CEH         LINE#         172
  C:70CEH         LINE#         173
  C:70E0H         LINE#         174
  C:70EAH         LINE#         175
  C:70F2H         LINE#         177
  C:70F7H         LINE#         178
  C:70FCH         LINE#         180
  C:70FCH         LINE#         182
  -------         ENDPROC       _DEBUGBUFFERMF
  -------         PROC          L?0068
  -------         ENDPROC       L?0068
  -------         PROC          _DEBUG_TXT_TIBBO
  X:003AH         SYMBOL        str
  -------         DO            
  X:003DH         SYMBOL        i
  -------         ENDDO         
  C:7683H         LINE#         187
  C:768EH         LINE#         188
  C:768EH         LINE#         190
  C:7691H         LINE#         193
  C:7699H         LINE#         194
  C:7699H         LINE#         195
  C:76B5H         LINE#         196
  C:76B5H         LINE#         197
  C:76B8H         LINE#         198
  C:76C0H         LINE#         200
  C:76C0H         LINE#         201
  -------         ENDPROC       _DEBUG_TXT_TIBBO
  -------         PROC          DEBUG_DIVIDIR_TEXTO
  C:7C71H         LINE#         203
  C:7C71H         LINE#         204
  C:7C71H         LINE#         205
  -------         ENDPROC       DEBUG_DIVIDIR_TEXTO
  -------         PROC          RX_DATA
  -------         DO            
  D:0006H         SYMBOL        temporal
  -------         ENDDO         
  C:6C79H         LINE#         211
  C:6C79H         LINE#         212
  C:6C79H         LINE#         215
  C:6C7BH         LINE#         216
  C:6C7EH         LINE#         218
  C:6C81H         LINE#         220
  C:6C8DH         LINE#         221
  C:6C8DH         LINE#         223
  C:6C90H         LINE#         225
  C:6C9CH         LINE#         226
  C:6C9CH         LINE#         228
  C:6C9FH         LINE#         230
  C:6CABH         LINE#         231
BL51 BANKED LINKER/LOCATER V6.22.2.0                                                  08/05/2020  11:21:06  PAGE 70


  C:6CABH         LINE#         233
  C:6CAEH         LINE#         235
  C:6CBAH         LINE#         236
  C:6CBAH         LINE#         238
  C:6CBDH         LINE#         240
  C:6CC9H         LINE#         241
  C:6CC9H         LINE#         243
  C:6CCCH         LINE#         245
  C:6CD8H         LINE#         246
  C:6CD8H         LINE#         248
  C:6CDBH         LINE#         250
  C:6CE7H         LINE#         251
  C:6CE7H         LINE#         253
  C:6CEAH         LINE#         254
  C:6CF8H         LINE#         256
  C:6CFBH         LINE#         257
  C:6CFEH         LINE#         258
  C:6CFEH         LINE#         259
  C:6CFEH         LINE#         261
  C:6D00H         LINE#         263
  -------         ENDPROC       RX_DATA
  -------         PROC          _DEBUG_FECHA_ACTUAL
  X:0018H         SYMBOL        buffer
  C:644BH         LINE#         264
  C:6456H         LINE#         265
  C:6456H         LINE#         266
  C:645FH         LINE#         267
  C:6474H         LINE#         268
  C:6479H         LINE#         269
  C:6491H         LINE#         270
  C:6496H         LINE#         271
  C:64AEH         LINE#         272
  C:64B3H         LINE#         273
  C:64CBH         LINE#         274
  C:64D0H         LINE#         275
  C:64E8H         LINE#         276
  -------         ENDPROC       _DEBUG_FECHA_ACTUAL
  -------         PROC          COND_INI_TIBBO
  C:7CBBH         LINE#         281
  C:7CBBH         LINE#         282
  C:7CBBH         LINE#         284
  C:7CBDH         LINE#         285
  C:7CBFH         LINE#         286
  -------         ENDPROC       COND_INI_TIBBO
  -------         PROC          _DEBUG_PTO_PARALELO
  X:0001H         SYMBOL        buffer
  X:0004H         SYMBOL        Length_trama
  C:7493H         LINE#         287
  C:74A1H         LINE#         288
  C:74A1H         LINE#         290
  C:74AAH         LINE#         291
  C:74C1H         LINE#         292
  C:74C4H         LINE#         293
  C:74CDH         LINE#         294
  C:74D5H         LINE#         295
  C:74D8H         LINE#         296
  -------         ENDPROC       _DEBUG_PTO_PARALELO
BL51 BANKED LINKER/LOCATER V6.22.2.0                                                  08/05/2020  11:21:06  PAGE 71


  -------         ENDMOD        TIBBO

  -------         MODULE        UART
  C:0000H         SYMBOL        _ICE_DUMMY_
  C:79F5H         PUBLIC        com_getchar
  C:7BFFH         PUBLIC        com_rbuflen
  C:7C11H         PUBLIC        com_tbuflen
  B:00A8H.4       PUBLIC        ES
  B:0098H.0       PUBLIC        RI
  C:787CH         PUBLIC        _com_putchar
  B:0098H.1       PUBLIC        TI
  B:0021H.3       PUBLIC        aSk
  B:00B8H.4       PUBLIC        PS
  D:000DH         SYMBOL        r_in
  D:000EH         SYMBOL        r_out
  D:000FH         SYMBOL        t_in
  D:0010H         SYMBOL        t_out
  D:0099H         PUBLIC        SBUF
  D:0087H         PUBLIC        PCON
  D:0089H         PUBLIC        TMOD
  B:0021H.4       SYMBOL        ti_restart
  B:00A8H.3       PUBLIC        ET1
  D:008DH         PUBLIC        TH1
  B:0098H.7       PUBLIC        SM0
  B:0098H.6       PUBLIC        SM1
  D:008BH         PUBLIC        TL1
  B:0098H.5       PUBLIC        SM2
  B:0088H.6       PUBLIC        TR1
  C:7954H         PUBLIC        com_initialize
  B:0098H.4       PUBLIC        REN
  C:79A6H         PUBLIC        com_baudrate
  C:4563H         SYMBOL        com_isr
  X:01ADH         PUBLIC        error_rx
  -------         PROC          COM_ISR
  -------         DO            
  X:01ABH         SYMBOL        cDatoRx
  D:0006H         SYMBOL        k
  D:0007H         SYMBOL        bcc
  X:01ACH         SYMBOL        num_datos
  -------         ENDDO         
  C:4563H         LINE#         95
  C:4578H         LINE#         108
  C:457EH         LINE#         109
  C:457EH         LINE#         111
  C:4580H         LINE#         112
  C:4586H         LINE#         113
  C:4596H         LINE#         114
  C:4596H         LINE#         115
  C:45A1H         LINE#         116
  C:45A3H         LINE#         118
  C:45A3H         LINE#         119
  C:45B3H         LINE#         120
  C:45B3H         LINE#         121
  C:45B8H         LINE#         122
  C:45B8H         LINE#         123
  C:45CFH         LINE#         124
  C:45CFH         LINE#         128
BL51 BANKED LINKER/LOCATER V6.22.2.0                                                  08/05/2020  11:21:06  PAGE 72


  C:45CFH         LINE#         131
  C:45DEH         LINE#         132
  C:45DEH         LINE#         133
  C:45E0H         LINE#         134
  C:45E8H         LINE#         135
  C:45EDH         LINE#         137
  C:45EDH         LINE#         138
  C:45F0H         LINE#         142
  C:45F0H         LINE#         143
  C:45F0H         LINE#         144
  C:4608H         LINE#         145
  C:4617H         LINE#         146
  C:4617H         LINE#         147
  C:4617H         LINE#         148
  C:4619H         LINE#         150
  C:4619H         LINE#         151
  C:461BH         LINE#         152
  C:461BH         LINE#         153
  C:461BH         LINE#         154
  C:461EH         LINE#         158
  C:461EH         LINE#         160
  C:4627H         LINE#         161
  C:4627H         LINE#         163
  C:462DH         LINE#         164
  C:4640H         LINE#         165
  C:4640H         LINE#         166
  C:4643H         LINE#         168
  C:4643H         LINE#         169
  C:4658H         LINE#         170
  C:465EH         LINE#         171
  C:465EH         LINE#         173
  C:4661H         LINE#         177
  C:4661H         LINE#         179
  C:4679H         LINE#         180
  C:467FH         LINE#         181
  C:4682H         LINE#         182
  C:4682H         LINE#         184
  C:469AH         LINE#         185
  C:469AH         LINE#         186
  C:469BH         LINE#         187
  C:46A8H         LINE#         188
  C:46A8H         LINE#         189
  C:46B5H         LINE#         190
  C:46B8H         LINE#         191
  C:46C6H         LINE#         192
  C:46C6H         LINE#         193
  C:46C8H         LINE#         194
  C:46CDH         LINE#         195
  C:46CFH         LINE#         196
  C:46D3H         LINE#         198
  C:46D5H         LINE#         200
  C:46D5H         LINE#         201
  C:46D5H         LINE#         202
  C:46D5H         LINE#         203
  C:46D7H         LINE#         205
  C:46D7H         LINE#         206
  C:46D7H         LINE#         207
BL51 BANKED LINKER/LOCATER V6.22.2.0                                                  08/05/2020  11:21:06  PAGE 73


  C:46D7H         LINE#         209
  C:46D9H         LINE#         211
  C:46D9H         LINE#         212
  C:46DFH         LINE#         213
  C:46DFH         LINE#         215
  C:46E1H         LINE#         220
  C:46E1H         LINE#         221
  C:46E6H         LINE#         222
  C:46E6H         LINE#         223
  C:46E6H         LINE#         224
  C:46E6H         LINE#         229
  C:46E9H         LINE#         230
  C:46E9H         LINE#         231
  C:46EBH         LINE#         233
  C:46F1H         LINE#         234
  C:46F1H         LINE#         235
  C:46FBH         LINE#         236
  C:46FDH         LINE#         237
  C:46FFH         LINE#         238
  C:4701H         LINE#         240
  C:4701H         LINE#         241
  C:4703H         LINE#         242
  C:4703H         LINE#         243
  C:4703H         LINE#         245
  -------         ENDPROC       COM_ISR
  -------         PROC          COM_INITIALIZE
  C:7954H         LINE#         261
  C:795BH         LINE#         262
  C:795BH         LINE#         266
  C:795EH         LINE#         271
  C:7961H         LINE#         272
  C:7963H         LINE#         274
  C:7965H         LINE#         275
  C:7967H         LINE#         280
  C:796BH         LINE#         281
  C:796DH         LINE#         282
  C:796FH         LINE#         284
  C:7971H         LINE#         285
  C:7973H         LINE#         286
  C:7975H         LINE#         288
  C:7977H         LINE#         289
  C:7979H         LINE#         290
  -------         ENDPROC       COM_INITIALIZE
  -------         PROC          COM_BAUDRATE
  C:79A6H         LINE#         296
  C:79ADH         LINE#         298
  C:79ADH         LINE#         302
  C:79AFH         LINE#         303
  C:79B2H         LINE#         304
  C:79B4H         LINE#         309
  C:79B6H         LINE#         310
  C:79B8H         LINE#         312
  C:79BBH         LINE#         314
  C:79BEH         LINE#         315
  C:79C1H         LINE#         317
  C:79C4H         LINE#         318
  C:79C7H         LINE#         319
BL51 BANKED LINKER/LOCATER V6.22.2.0                                                  08/05/2020  11:21:06  PAGE 74


  C:79C9H         LINE#         320
  -------         ENDPROC       COM_BAUDRATE
  -------         PROC          _COM_PUTCHAR
  X:00A0H         SYMBOL        c
  C:787CH         LINE#         326
  C:7888H         LINE#         328
  C:7888H         LINE#         332
  C:7895H         LINE#         333
  C:7899H         LINE#         339
  C:78A7H         LINE#         340
  C:78A9H         LINE#         342
  C:78ACH         LINE#         343
  C:78ACH         LINE#         344
  C:78AEH         LINE#         345
  C:78B0H         LINE#         346
  C:78B0H         LINE#         348
  C:78B2H         LINE#         349
  -------         ENDPROC       _COM_PUTCHAR
  -------         PROC          COM_GETCHAR
  C:79F5H         LINE#         355
  C:79FCH         LINE#         356
  C:79FCH         LINE#         357
  C:7A02H         LINE#         358
  C:7A08H         LINE#         360
  C:7A16H         LINE#         361
  -------         ENDPROC       COM_GETCHAR
  -------         PROC          COM_RBUFLEN
  C:7BFFH         LINE#         367
  C:7C06H         LINE#         368
  C:7C06H         LINE#         369
  C:7C0CH         LINE#         370
  -------         ENDPROC       COM_RBUFLEN
  -------         PROC          COM_TBUFLEN
  C:7C11H         LINE#         376
  C:7C18H         LINE#         377
  C:7C18H         LINE#         378
  C:7C1EH         LINE#         379
  -------         ENDPROC       COM_TBUFLEN
  -------         ENDMOD        UART

  -------         MODULE        VERIFICADOR
  C:0000H         SYMBOL        _ICE_DUMMY_
  D:0080H         PUBLIC        P0
  D:0090H         PUBLIC        P1
  C:4E05H         PUBLIC        Secuencia_inicio_expedidor
  B:0080H.3       PUBLIC        Atascado
  B:0090H.7       PUBLIC        lock
  C:61A6H         PUBLIC        error_rx_pto
  C:7A1BH         PUBLIC        Trama_Validacion_P_N
  C:0026H         PUBLIC        SecuenciaExpedidor
  X:0189H         SYMBOL        Estado
  -------         PROC          TRAMA_VALIDACION_P_N
  -------         DO            
  D:0007H         SYMBOL        Trama_Validacion_P_N
  -------         ENDDO         
  C:7A1BH         LINE#         276
  C:7A1BH         LINE#         277
BL51 BANKED LINKER/LOCATER V6.22.2.0                                                  08/05/2020  11:21:06  PAGE 75


  C:7A1BH         LINE#         278
  C:7A1DH         LINE#         280
  C:7A28H         LINE#         281
  C:7A28H         LINE#         282
  C:7A2BH         LINE#         283
  C:7A2BH         LINE#         284
  C:7A2DH         LINE#         287
  C:7A35H         LINE#         288
  C:7A35H         LINE#         290
  C:7A37H         LINE#         292
  C:7A38H         LINE#         293
  C:7A39H         LINE#         294
  C:7A39H         LINE#         296
  C:7A39H         LINE#         298
  C:7A39H         LINE#         300
  C:7A39H         LINE#         302
  C:7A3BH         LINE#         304
  C:7A3BH         LINE#         305
  C:7A3CH         LINE#         307
  C:7A3CH         LINE#         309
  C:7A3EH         LINE#         311
  C:7A3EH         LINE#         313
  C:7A3EH         LINE#         315
  C:7A3EH         LINE#         316
  -------         ENDPROC       TRAMA_VALIDACION_P_N
  -------         PROC          ERROR_RX_PTO
  -------         DO            
  X:0153H         SYMBOL        cont_error_rx
  X:000EH         SYMBOL        error_rx_pto
  -------         ENDDO         
  C:61A6H         LINE#         333
  C:61A6H         LINE#         334
  C:61A6H         LINE#         336
  C:61ABH         LINE#         340
  C:61B4H         LINE#         341
  C:61BCH         LINE#         342
  C:61C5H         LINE#         343
  C:61CDH         LINE#         344
  C:61D6H         LINE#         345
  C:61D9H         LINE#         347
  C:61D9H         LINE#         348
  C:61DFH         LINE#         349
  C:61E9H         LINE#         350
  C:61E9H         LINE#         351
  C:61EBH         LINE#         352
  C:61F2H         LINE#         353
  C:61F7H         LINE#         354
  C:61FDH         LINE#         355
  C:6201H         LINE#         356
  C:6203H         LINE#         357
  C:6209H         LINE#         358
  C:6209H         LINE#         359
  C:620BH         LINE#         361
  C:620BH         LINE#         362
  C:6211H         LINE#         363
  C:6211H         LINE#         364
  C:6211H         LINE#         365
BL51 BANKED LINKER/LOCATER V6.22.2.0                                                  08/05/2020  11:21:06  PAGE 76


  C:6213H         LINE#         367
  C:6213H         LINE#         368
  C:6221H         LINE#         369
  C:6234H         LINE#         370
  C:6234H         LINE#         371
  C:6235H         LINE#         372
  C:623BH         LINE#         373
  C:6240H         LINE#         374
  C:6242H         LINE#         375
  C:6242H         LINE#         376
  C:6244H         LINE#         378
  C:6244H         LINE#         379
  C:6245H         LINE#         380
  C:6249H         LINE#         381
  C:624FH         LINE#         382
  C:624FH         LINE#         383
  C:624FH         LINE#         384
  C:6254H         LINE#         385
  -------         ENDPROC       ERROR_RX_PTO
  -------         PROC          SECUENCIA_INICIO_EXPEDIDOR
  -------         DO            
  X:0001H         SYMBOL        temp
  -------         ENDDO         
  C:4E05H         LINE#         392
  C:4E05H         LINE#         393
  C:4E05H         LINE#         397
  C:4E25H         LINE#         398
  C:4E25H         LINE#         399
  C:4E25H         LINE#         401
  C:4E27H         LINE#         402
  C:4E2CH         LINE#         403
  C:4E32H         LINE#         406
  C:4E34H         LINE#         407
  C:4E34H         LINE#         418
  C:4E34H         LINE#         420
  C:4E42H         LINE#         421
  C:4E42H         LINE#         422
  C:4E4EH         LINE#         423
  C:4E4EH         LINE#         424
  C:4E54H         LINE#         425
  C:4E57H         LINE#         426
  C:4E5FH         LINE#         427
  C:4E5FH         LINE#         428
  C:4E66H         LINE#         429
  C:4E7AH         LINE#         430
  C:4E7AH         LINE#         431
  C:4E7CH         LINE#         433
  C:4E7CH         LINE#         435
  C:4E83H         LINE#         436
  C:4E89H         LINE#         437
  C:4E89H         LINE#         438
  C:4E8CH         LINE#         440
  C:4E8CH         LINE#         441
  C:4E95H         LINE#         442
  C:4EA9H         LINE#         443
  C:4EAFH         LINE#         444
  C:4EAFH         LINE#         445
BL51 BANKED LINKER/LOCATER V6.22.2.0                                                  08/05/2020  11:21:06  PAGE 77


  C:4EB2H         LINE#         446
  C:4EB2H         LINE#         452
  C:4EB2H         LINE#         454
  C:4EB5H         LINE#         455
  C:4EBBH         LINE#         459
  C:4EBDH         LINE#         460
  C:4EBDH         LINE#         470
  C:4EBDH         LINE#         472
  C:4ECBH         LINE#         473
  C:4ECBH         LINE#         474
  C:4ED7H         LINE#         475
  C:4ED7H         LINE#         476
  C:4EDDH         LINE#         477
  C:4EDFH         LINE#         478
  C:4EE7H         LINE#         479
  C:4EE7H         LINE#         480
  C:4EEEH         LINE#         481
  C:4F02H         LINE#         482
  C:4F02H         LINE#         483
  C:4F04H         LINE#         485
  C:4F04H         LINE#         488
  C:4F0BH         LINE#         489
  C:4F11H         LINE#         490
  C:4F11H         LINE#         491
  C:4F13H         LINE#         493
  C:4F13H         LINE#         494
  C:4F1CH         LINE#         495
  C:4F30H         LINE#         496
  C:4F35H         LINE#         497
  C:4F35H         LINE#         499
  C:4F37H         LINE#         500
  C:4F37H         LINE#         506
  C:4F37H         LINE#         508
  C:4F3DH         LINE#         509
  C:4F3DH         LINE#         512
  C:4F3DH         LINE#         513
  C:4F44H         LINE#         514
  C:4F44H         LINE#         515
  C:4F44H         LINE#         516
  -------         ENDPROC       SECUENCIA_INICIO_EXPEDIDOR
  -------         PROC          SECUENCIAEXPEDIDOR
  -------         DO            
  X:0001H         SYMBOL        temp
  X:0002H         SYMBOL        tiempo
  X:0004H         SYMBOL        Estado_Tiempo
  X:0155H         SYMBOL        buffer_S1_B0
  X:0166H         SYMBOL        buffer_S1_B1
  X:0177H         SYMBOL        buffer_S1_B2
  X:0008H         SYMBOL        clock_temp
  X:0188H         SYMBOL        contador
  -------         ENDDO         
  C:0026H         LINE#         528
  C:0026H         LINE#         529
  C:0026H         LINE#         538
  C:0079H         LINE#         539
  C:0079H         LINE#         542
  C:0079H         LINE#         544
BL51 BANKED LINKER/LOCATER V6.22.2.0                                                  08/05/2020  11:21:06  PAGE 78


  C:0084H         LINE#         545
  C:0084H         LINE#         547
  C:0086H         LINE#         548
  C:008BH         LINE#         549
  C:008BH         LINE#         551
  C:008BH         LINE#         553
  C:008DH         LINE#         563
  C:008DH         LINE#         565
  C:0097H         LINE#         566
  C:0097H         LINE#         567
  C:009FH         LINE#         568
  C:009FH         LINE#         569
  C:00A4H         LINE#         570
  C:00A5H         LINE#         571
  C:00ABH         LINE#         572
  C:00ABH         LINE#         573
  C:00B1H         LINE#         574
  C:00B1H         LINE#         575
  C:00B1H         LINE#         576
  C:00B4H         LINE#         578
  C:00B4H         LINE#         581
  C:00C7H         LINE#         582
  C:00C7H         LINE#         583
  C:00CDH         LINE#         584
  C:00CEH         LINE#         585
  C:00E6H         LINE#         586
  C:00E6H         LINE#         587
  C:00E6H         LINE#         588
  C:00E6H         LINE#         590
  C:00E6H         LINE#         591
  C:00E9H         LINE#         593
  C:00E9H         LINE#         594
  C:00EFH         LINE#         595
  C:00EFH         LINE#         596
  C:00EFH         LINE#         597
  C:00EFH         LINE#         599
  C:00F2H         LINE#         605
  C:00F2H         LINE#         606
  C:00FDH         LINE#         607
  C:00FDH         LINE#         608
  C:0102H         LINE#         609
  C:0102H         LINE#         610
  C:0102H         LINE#         611
  C:0104H         LINE#         621
  C:0104H         LINE#         623
  C:010EH         LINE#         624
  C:010EH         LINE#         625
  C:0116H         LINE#         626
  C:0116H         LINE#         627
  C:0116H         LINE#         628
  C:0118H         LINE#         629
  C:011EH         LINE#         630
  C:011EH         LINE#         631
  C:0124H         LINE#         632
  C:0124H         LINE#         633
  C:0124H         LINE#         634
  C:0127H         LINE#         636
BL51 BANKED LINKER/LOCATER V6.22.2.0                                                  08/05/2020  11:21:06  PAGE 79


  C:0127H         LINE#         640
  C:013AH         LINE#         641
  C:013AH         LINE#         642
  C:0140H         LINE#         643
  C:0141H         LINE#         644
  C:0159H         LINE#         645
  C:0159H         LINE#         646
  C:0159H         LINE#         647
  C:0159H         LINE#         649
  C:0159H         LINE#         650
  C:015CH         LINE#         652
  C:015CH         LINE#         653
  C:0165H         LINE#         654
  C:0179H         LINE#         655
  C:0181H         LINE#         656
  C:0181H         LINE#         658
  C:018AH         LINE#         659
  C:0190H         LINE#         660
  C:0196H         LINE#         661
  C:019CH         LINE#         662
  C:019CH         LINE#         663
  C:01A2H         LINE#         664
  C:01A2H         LINE#         665
  C:01A5H         LINE#         666
  C:01AEH         LINE#         667
  C:01B3H         LINE#         668
  C:01B8H         LINE#         670
  C:01B8H         LINE#         671
  C:01B8H         LINE#         672
  C:01BEH         LINE#         673
  C:01CDH         LINE#         674
  C:01CDH         LINE#         675
  C:01D3H         LINE#         678
  C:01D4H         LINE#         679
  C:01DBH         LINE#         680
  C:01DBH         LINE#         682
  C:01E4H         LINE#         683
  C:01E4H         LINE#         686
  C:01E7H         LINE#         687
  C:01F2H         LINE#         688
  C:01F2H         LINE#         689
  C:01FBH         LINE#         692
  C:0203H         LINE#         693
  C:0203H         LINE#         694
  C:020AH         LINE#         695
  C:020DH         LINE#         697
  C:020DH         LINE#         698
  C:020FH         LINE#         700
  C:020FH         LINE#         701
  C:0216H         LINE#         702
  C:021BH         LINE#         703
  C:0220H         LINE#         704
  C:0220H         LINE#         706
  C:0220H         LINE#         708
  C:0220H         LINE#         710
  C:0220H         LINE#         712
  C:0223H         LINE#         725
BL51 BANKED LINKER/LOCATER V6.22.2.0                                                  08/05/2020  11:21:06  PAGE 80


  C:0223H         LINE#         727
  C:022DH         LINE#         728
  C:022DH         LINE#         729
  C:0235H         LINE#         730
  C:0235H         LINE#         731
  C:023BH         LINE#         732
  C:023CH         LINE#         733
  C:0244H         LINE#         734
  C:0244H         LINE#         736
  C:024BH         LINE#         737
  C:025FH         LINE#         738
  C:0265H         LINE#         740
  C:0266H         LINE#         742
  C:0266H         LINE#         743
  C:026DH         LINE#         744
  C:0272H         LINE#         745
  C:0277H         LINE#         746
  C:0277H         LINE#         748
  C:0277H         LINE#         749
  C:027AH         LINE#         751
  C:027AH         LINE#         752
  C:0282H         LINE#         753
  C:0282H         LINE#         754
  C:0289H         LINE#         755
  C:0289H         LINE#         756
  C:0290H         LINE#         757
  C:02A4H         LINE#         758
  C:02A7H         LINE#         759
  C:02A7H         LINE#         761
  C:02A9H         LINE#         762
  C:02A9H         LINE#         763
  C:02B0H         LINE#         764
  C:02C4H         LINE#         765
  C:02C9H         LINE#         766
  C:02CEH         LINE#         767
  C:02D3H         LINE#         768
  C:02D3H         LINE#         770
  C:02D3H         LINE#         771
  C:02D6H         LINE#         773
  C:02D6H         LINE#         774
  C:02DFH         LINE#         775
  C:02F3H         LINE#         776
  C:02F8H         LINE#         777
  C:02FDH         LINE#         778
  C:0302H         LINE#         779
  C:0302H         LINE#         781
  C:0302H         LINE#         783
  C:0302H         LINE#         785
  C:0305H         LINE#         793
  C:0305H         LINE#         795
  C:030FH         LINE#         796
  C:030FH         LINE#         797
  C:0317H         LINE#         798
  C:0317H         LINE#         799
  C:031DH         LINE#         800
  C:031EH         LINE#         801
  C:0326H         LINE#         802
BL51 BANKED LINKER/LOCATER V6.22.2.0                                                  08/05/2020  11:21:06  PAGE 81


  C:0326H         LINE#         803
  C:032DH         LINE#         804
  C:0341H         LINE#         805
  C:0341H         LINE#         806
  C:0343H         LINE#         808
  C:0343H         LINE#         809
  C:034AH         LINE#         810
  C:034AH         LINE#         811
  C:034AH         LINE#         812
  C:034DH         LINE#         814
  C:034DH         LINE#         815
  C:0356H         LINE#         816
  C:036AH         LINE#         818
  C:036AH         LINE#         819
  C:036AH         LINE#         822
  C:036CH         LINE#         828
  C:036CH         LINE#         830
  C:0373H         LINE#         831
  C:0373H         LINE#         833
  C:0375H         LINE#         839
  C:0375H         LINE#         841
  C:037FH         LINE#         842
  C:037FH         LINE#         843
  C:0387H         LINE#         844
  C:0387H         LINE#         845
  C:0387H         LINE#         846
  C:0389H         LINE#         847
  C:038FH         LINE#         848
  C:038FH         LINE#         849
  C:0395H         LINE#         850
  C:0395H         LINE#         851
  C:0395H         LINE#         852
  C:0398H         LINE#         854
  C:0398H         LINE#         858
  C:03ABH         LINE#         859
  C:03ABH         LINE#         860
  C:03B1H         LINE#         861
  C:03B2H         LINE#         862
  C:03CAH         LINE#         863
  C:03CAH         LINE#         864
  C:03D0H         LINE#         865
  C:03D0H         LINE#         867
  C:03D0H         LINE#         868
  C:03D1H         LINE#         870
  C:03D1H         LINE#         871
  C:03DAH         LINE#         872
  C:03EEH         LINE#         874
  C:03FEH         LINE#         875
  C:03FEH         LINE#         877
  C:0410H         LINE#         878
  C:0410H         LINE#         879
  C:0429H         LINE#         880
  C:0431H         LINE#         881
  C:0465H         LINE#         882
  C:0465H         LINE#         884
  C:046EH         LINE#         885
  C:0476H         LINE#         886
BL51 BANKED LINKER/LOCATER V6.22.2.0                                                  08/05/2020  11:21:06  PAGE 82


  C:047FH         LINE#         888
  C:0488H         LINE#         889
  C:0490H         LINE#         890
  C:0499H         LINE#         894
  C:04A1H         LINE#         895
  C:04A1H         LINE#         896
  C:04AAH         LINE#         897
  C:04B2H         LINE#         898
  C:04BBH         LINE#         901
  C:04BBH         LINE#         903
  C:04BEH         LINE#         905
  C:04BEH         LINE#         906
  C:04C3H         LINE#         907
  C:04C8H         LINE#         908
  C:04C8H         LINE#         909
  C:04C8H         LINE#         910
  C:04CBH         LINE#         912
  C:04CBH         LINE#         913
  C:04D0H         LINE#         914
  C:04D5H         LINE#         915
  C:04D5H         LINE#         916
  C:04D5H         LINE#         917
  C:04D8H         LINE#         919
  C:04D8H         LINE#         920
  C:04DDH         LINE#         921
  C:04E2H         LINE#         922
  C:04E2H         LINE#         923
  C:04E2H         LINE#         925
  C:04E2H         LINE#         926
  C:04E5H         LINE#         931
  C:04E5H         LINE#         933
  C:04ECH         LINE#         934
  C:04ECH         LINE#         935
  C:04EEH         LINE#         941
  C:04EEH         LINE#         943
  C:04F8H         LINE#         944
  C:04F8H         LINE#         945
  C:0500H         LINE#         946
  C:0500H         LINE#         947
  C:0500H         LINE#         948
  C:0502H         LINE#         949
  C:0508H         LINE#         950
  C:0508H         LINE#         951
  C:050EH         LINE#         952
  C:050EH         LINE#         953
  C:050EH         LINE#         954
  C:0511H         LINE#         956
  C:0511H         LINE#         959
  C:0524H         LINE#         960
  C:0524H         LINE#         961
  C:052AH         LINE#         962
  C:052BH         LINE#         963
  C:0543H         LINE#         964
  C:0543H         LINE#         965
  C:0549H         LINE#         966
  C:0549H         LINE#         968
  C:0549H         LINE#         969
BL51 BANKED LINKER/LOCATER V6.22.2.0                                                  08/05/2020  11:21:06  PAGE 83


  C:054AH         LINE#         971
  C:054AH         LINE#         972
  C:0553H         LINE#         973
  C:0567H         LINE#         974
  C:0579H         LINE#         975
  C:0579H         LINE#         976
  C:0592H         LINE#         977
  C:059AH         LINE#         979
  C:05A6H         LINE#         980
  C:05A6H         LINE#         981
  C:05AFH         LINE#         982
  C:05B4H         LINE#         983
  C:05B9H         LINE#         984
  C:05BEH         LINE#         985
  C:05BEH         LINE#         986
  C:05C1H         LINE#         987
  C:05C1H         LINE#         991
  C:05CCH         LINE#         992
  C:05CCH         LINE#         993
  C:05D2H         LINE#         994
  C:05D2H         LINE#         995
  C:05D2H         LINE#         997
  C:05D2H         LINE#         998
  C:05D5H         LINE#         999
  C:05D5H         LINE#         1000
  C:05E4H         LINE#         1001
  C:05E4H         LINE#         1002
  C:05EDH         LINE#         1005
  C:0611H         LINE#         1006
  C:0611H         LINE#         1007
  C:0611H         LINE#         1009
  C:0611H         LINE#         1010
  C:0614H         LINE#         1011
  C:0614H         LINE#         1013
  C:0614H         LINE#         1014
  C:061DH         LINE#         1015
  C:0622H         LINE#         1016
  C:0627H         LINE#         1017
  C:0627H         LINE#         1018
  C:062AH         LINE#         1019
  C:062AH         LINE#         1022
  C:062AH         LINE#         1023
  C:062AH         LINE#         1028
  C:0633H         LINE#         1029
  C:0633H         LINE#         1031
  C:0642H         LINE#         1032
  C:0642H         LINE#         1033
  C:0645H         LINE#         1034
  C:064EH         LINE#         1035
  C:0656H         LINE#         1036
  C:065FH         LINE#         1038
  C:066DH         LINE#         1039
  C:0673H         LINE#         1040
  C:0684H         LINE#         1042
  C:068DH         LINE#         1043
  C:06B3H         LINE#         1044
  C:06BCH         LINE#         1045
BL51 BANKED LINKER/LOCATER V6.22.2.0                                                  08/05/2020  11:21:06  PAGE 84


  C:06C5H         LINE#         1046
  C:06C8H         LINE#         1050
  C:06D0H         LINE#         1051
  C:06D0H         LINE#         1052
  C:06D9H         LINE#         1053
  C:06E2H         LINE#         1055
  C:06E4H         LINE#         1057
  C:06E4H         LINE#         1058
  C:06F0H         LINE#         1059
  C:06F0H         LINE#         1060
  C:06F9H         LINE#         1061
  C:06FBH         LINE#         1063
  C:06FBH         LINE#         1064
  C:06FEH         LINE#         1065
  C:06FEH         LINE#         1067
  C:06FEH         LINE#         1068
  C:0707H         LINE#         1069
  C:070CH         LINE#         1070
  C:0711H         LINE#         1071
  C:0717H         LINE#         1072
  C:0717H         LINE#         1073
  C:0717H         LINE#         1074
  C:0717H         LINE#         1075
  C:0719H         LINE#         1080
  C:0723H         LINE#         1081
  C:0723H         LINE#         1082
  C:072CH         LINE#         1083
  C:0735H         LINE#         1084
  C:073EH         LINE#         1085
  C:074FH         LINE#         1087
  C:074FH         LINE#         1091
  C:075DH         LINE#         1092
  C:0761H         LINE#         1093
  C:0761H         LINE#         1094
  C:076AH         LINE#         1095
  C:076FH         LINE#         1096
  C:0774H         LINE#         1097
  C:0779H         LINE#         1099
  C:0779H         LINE#         1101
  C:077CH         LINE#         1102
  C:0786H         LINE#         1103
  C:0786H         LINE#         1104
  C:078DH         LINE#         1105
  C:0792H         LINE#         1106
  C:0797H         LINE#         1107
  C:079CH         LINE#         1108
  C:079CH         LINE#         1109
  C:079FH         LINE#         1111
  C:079FH         LINE#         1112
  C:07A6H         LINE#         1114
  C:07A6H         LINE#         1115
  C:07A6H         LINE#         1117
  C:07A6H         LINE#         1122
  C:07A8H         LINE#         1123
  C:07A8H         LINE#         1125
  C:07AFH         LINE#         1126
  C:07AFH         LINE#         1127
BL51 BANKED LINKER/LOCATER V6.22.2.0                                                  08/05/2020  11:21:06  PAGE 85


  C:07B1H         LINE#         1133
  C:07B1H         LINE#         1135
  C:07BBH         LINE#         1136
  C:07BBH         LINE#         1137
  C:07C3H         LINE#         1138
  C:07C3H         LINE#         1139
  C:07C3H         LINE#         1140
  C:07C5H         LINE#         1141
  C:07CBH         LINE#         1142
  C:07CBH         LINE#         1143
  C:07D1H         LINE#         1144
  C:07D1H         LINE#         1145
  C:07D1H         LINE#         1146
  C:07D4H         LINE#         1148
  C:07D4H         LINE#         1151
  C:07E7H         LINE#         1152
  C:07E7H         LINE#         1153
  C:07EDH         LINE#         1154
  C:07EEH         LINE#         1155
  C:0806H         LINE#         1156
  C:0806H         LINE#         1157
  C:080CH         LINE#         1158
  C:080CH         LINE#         1159
  C:080CH         LINE#         1160
  C:080DH         LINE#         1162
  C:080DH         LINE#         1163
  C:0816H         LINE#         1164
  C:082AH         LINE#         1166
  C:083DH         LINE#         1167
  C:083DH         LINE#         1169
  C:0856H         LINE#         1170
  C:0863H         LINE#         1171
  C:0863H         LINE#         1172
  C:0863H         LINE#         1173
  C:0863H         LINE#         1174
  C:086BH         LINE#         1175
  C:0874H         LINE#         1176
  C:087DH         LINE#         1177
  C:0886H         LINE#         1181
  C:088BH         LINE#         1182
  C:08A5H         LINE#         1183
  C:08AEH         LINE#         1184
  C:08AEH         LINE#         1185
  C:08C5H         LINE#         1186
  C:08C5H         LINE#         1190
  C:08C5H         LINE#         1191
  C:08C5H         LINE#         1192
  C:08C7H         LINE#         1199
  C:08C7H         LINE#         1202
  C:08D4H         LINE#         1203
  C:08D4H         LINE#         1205
  C:08D6H         LINE#         1210
  C:08D6H         LINE#         1211
  C:08E0H         LINE#         1212
  C:08E0H         LINE#         1213
  C:08E8H         LINE#         1214
  C:08E8H         LINE#         1215
BL51 BANKED LINKER/LOCATER V6.22.2.0                                                  08/05/2020  11:21:06  PAGE 86


  C:08E8H         LINE#         1216
  C:08EAH         LINE#         1217
  C:08F0H         LINE#         1218
  C:08F0H         LINE#         1219
  C:08F6H         LINE#         1220
  C:08F6H         LINE#         1221
  C:08F6H         LINE#         1222
  C:08F9H         LINE#         1224
  C:08F9H         LINE#         1228
  C:090CH         LINE#         1229
  C:090CH         LINE#         1230
  C:0912H         LINE#         1231
  C:0913H         LINE#         1232
  C:092BH         LINE#         1233
  C:092BH         LINE#         1234
  C:0931H         LINE#         1235
  C:0931H         LINE#         1239
  C:0931H         LINE#         1240
  C:0932H         LINE#         1242
  C:0932H         LINE#         1244
  C:093BH         LINE#         1245
  C:094FH         LINE#         1246
  C:094FH         LINE#         1247
  C:094FH         LINE#         1248
  C:0951H         LINE#         1249
  C:0951H         LINE#         1250
  C:095EH         LINE#         1252
  C:095EH         LINE#         1253
  C:0960H         LINE#         1256
  C:0960H         LINE#         1258
  C:096AH         LINE#         1259
  C:096AH         LINE#         1260
  C:0972H         LINE#         1261
  C:0972H         LINE#         1262
  C:0972H         LINE#         1263
  C:0974H         LINE#         1264
  C:097AH         LINE#         1265
  C:097AH         LINE#         1266
  C:0980H         LINE#         1267
  C:0980H         LINE#         1268
  C:0980H         LINE#         1269
  C:0983H         LINE#         1271
  C:0983H         LINE#         1274
  C:0996H         LINE#         1275
  C:0996H         LINE#         1276
  C:099CH         LINE#         1277
  C:099DH         LINE#         1278
  C:09B5H         LINE#         1279
  C:09B5H         LINE#         1280
  C:09BBH         LINE#         1281
  C:09BBH         LINE#         1284
  C:09BBH         LINE#         1285
  C:09BCH         LINE#         1287
  C:09BCH         LINE#         1290
  C:09BEH         LINE#         1291
  C:09C7H         LINE#         1292
  C:09DBH         LINE#         1293
BL51 BANKED LINKER/LOCATER V6.22.2.0                                                  08/05/2020  11:21:06  PAGE 87


  C:09E0H         LINE#         1294
  C:09E5H         LINE#         1295
  C:09EAH         LINE#         1297
  C:09F3H         LINE#         1301
  C:09F3H         LINE#         1302
  C:09F3H         LINE#         1303
  C:09F5H         LINE#         1305
  C:09F5H         LINE#         1307
  C:09FAH         LINE#         1308
  C:0A00H         LINE#         1309
  C:0A02H         LINE#         1310
  C:0A03H         LINE#         1319
  C:0A03H         LINE#         1321
  C:0A0DH         LINE#         1322
  C:0A0DH         LINE#         1323
  C:0A12H         LINE#         1324
  C:0A12H         LINE#         1326
  C:0A1AH         LINE#         1327
  C:0A1AH         LINE#         1328
  C:0A1CH         LINE#         1329
  C:0A25H         LINE#         1331
  C:0A25H         LINE#         1333
  C:0A25H         LINE#         1336
  C:0A27H         LINE#         1337
  C:0A2FH         LINE#         1338
  C:0A2FH         LINE#         1339
  C:0A35H         LINE#         1340
  C:0A35H         LINE#         1341
  C:0A35H         LINE#         1342
  C:0A38H         LINE#         1344
  C:0A38H         LINE#         1350
  C:0A4BH         LINE#         1351
  C:0A4BH         LINE#         1352
  C:0A51H         LINE#         1353
  C:0A52H         LINE#         1354
  C:0A6AH         LINE#         1355
  C:0A6AH         LINE#         1357
  C:0A70H         LINE#         1358
  C:0A70H         LINE#         1362
  C:0A70H         LINE#         1363
  C:0A71H         LINE#         1365
  C:0A71H         LINE#         1367
  C:0A73H         LINE#         1368
  C:0A7CH         LINE#         1369
  C:0A90H         LINE#         1371
  C:0A92H         LINE#         1372
  C:0A98H         LINE#         1373
  C:0A9DH         LINE#         1375
  C:0A9DH         LINE#         1378
  C:0A9EH         LINE#         1382
  C:0A9EH         LINE#         1383
  C:0AA5H         LINE#         1384
  C:0AA5H         LINE#         1385
  C:0AA7H         LINE#         1393
  C:0AA7H         LINE#         1395
  C:0AB1H         LINE#         1396
  C:0AB1H         LINE#         1397
BL51 BANKED LINKER/LOCATER V6.22.2.0                                                  08/05/2020  11:21:06  PAGE 88


  C:0AB9H         LINE#         1398
  C:0AB9H         LINE#         1399
  C:0AB9H         LINE#         1400
  C:0ABBH         LINE#         1401
  C:0AC1H         LINE#         1402
  C:0AC1H         LINE#         1403
  C:0ACAH         LINE#         1404
  C:0ADEH         LINE#         1405
  C:0ADEH         LINE#         1406
  C:0AE1H         LINE#         1408
  C:0AE1H         LINE#         1411
  C:0AF4H         LINE#         1412
  C:0AF4H         LINE#         1413
  C:0AFAH         LINE#         1414
  C:0AFBH         LINE#         1415
  C:0B13H         LINE#         1416
  C:0B13H         LINE#         1417
  C:0B19H         LINE#         1418
  C:0B19H         LINE#         1420
  C:0B19H         LINE#         1421
  C:0B1AH         LINE#         1423
  C:0B1AH         LINE#         1425
  C:0B23H         LINE#         1426
  C:0B37H         LINE#         1428
  C:0B4AH         LINE#         1429
  C:0B4AH         LINE#         1431
  C:0B63H         LINE#         1432
  C:0B70H         LINE#         1433
  C:0B70H         LINE#         1434
  C:0B70H         LINE#         1435
  C:0B70H         LINE#         1436
  C:0B78H         LINE#         1437
  C:0B93H         LINE#         1438
  C:0B99H         LINE#         1439
  C:0B99H         LINE#         1440
  C:0B9AH         LINE#         1446
  C:0B9AH         LINE#         1447
  C:0B9FH         LINE#         1448
  C:0B9FH         LINE#         1449
  C:0BA1H         LINE#         1452
  C:0BA1H         LINE#         1453
  C:0BABH         LINE#         1454
  C:0BABH         LINE#         1455
  C:0BB0H         LINE#         1456
  C:0BB0H         LINE#         1457
  C:0BB6H         LINE#         1458
  C:0BB7H         LINE#         1459
  C:0BB7H         LINE#         1460
  C:0BB9H         LINE#         1462
  C:0BB9H         LINE#         1463
  C:0BBFH         LINE#         1464
  C:0BBFH         LINE#         1466
  C:0BC0H         LINE#         1468
  C:0BC0H         LINE#         1469
  C:0BC5H         LINE#         1470
  C:0BCBH         LINE#         1472
  C:0BCBH         LINE#         1473
BL51 BANKED LINKER/LOCATER V6.22.2.0                                                  08/05/2020  11:21:06  PAGE 89


  C:0BD5H         LINE#         1474
  C:0BD5H         LINE#         1475
  C:0BDAH         LINE#         1476
  C:0BDAH         LINE#         1477
  C:0BE0H         LINE#         1478
  C:0BE1H         LINE#         1479
  C:0BE1H         LINE#         1480
  C:0BE3H         LINE#         1482
  C:0BE3H         LINE#         1483
  C:0BE3H         LINE#         1484
  C:0BE3H         LINE#         1486
  C:0BE5H         LINE#         1492
  C:0BE5H         LINE#         1493
  C:0BEAH         LINE#         1494
  C:0BEAH         LINE#         1496
  C:0BEAH         LINE#         1497
  -------         ENDPROC       SECUENCIAEXPEDIDOR
  -------         ENDMOD        VERIFICADOR

  -------         MODULE        LINTECH
  C:0000H         SYMBOL        _ICE_DUMMY_
  C:6591H         PUBLIC        _Inicializa
  C:5DFFH         PUBLIC        _RD_MF
  C:6255H         PUBLIC        Dwload_EEprom
  C:6894H         PUBLIC        _Card_Insercion
  C:59BCH         PUBLIC        _Mov_Card
  C:4CBCH         PUBLIC        _WR_MF
  C:6925H         PUBLIC        LoadVerify_EEprom
  C:700BH         PUBLIC        _Check_Status
  C:6F8BH         PUBLIC        Aut_Card_check_Status
  -------         PROC          _INICIALIZA
  X:0002H         SYMBOL        TipoMovimiento
  -------         DO            
  D:0003H         SYMBOL        j
  X:0003H         SYMBOL        bcc
  X:0004H         SYMBOL        g_scArrTxComSoft
  -------         ENDDO         
  C:6591H         LINE#         101
  C:6596H         LINE#         102
  C:6596H         LINE#         105
  C:6599H         LINE#         106
  C:65AFH         LINE#         107
  C:65AFH         LINE#         109
  C:65B8H         LINE#         111
  C:65BEH         LINE#         112
  C:65C1H         LINE#         113
  C:65C3H         LINE#         114
  C:65C7H         LINE#         115
  C:65CBH         LINE#         116
  C:65CFH         LINE#         117
  C:65D7H         LINE#         118
  C:65DBH         LINE#         119
  C:65E7H         LINE#         120
  C:65E7H         LINE#         121
  C:65FBH         LINE#         122
  C:65FEH         LINE#         123
  C:6606H         LINE#         124
BL51 BANKED LINKER/LOCATER V6.22.2.0                                                  08/05/2020  11:21:06  PAGE 90


  C:6608H         LINE#         125
  C:660DH         LINE#         126
  C:661CH         LINE#         127
  C:6627H         LINE#         128
  C:662DH         LINE#         129
  C:662DH         LINE#         130
  -------         ENDPROC       _INICIALIZA
  -------         PROC          _CHECK_STATUS
  X:000EH         SYMBOL        Detalle
  -------         DO            
  D:0006H         SYMBOL        j
  D:0007H         SYMBOL        bcc
  X:000FH         SYMBOL        g_scArrTxComSoft
  -------         ENDDO         
  C:700BH         LINE#         139
  C:7010H         LINE#         140
  C:7010H         LINE#         143
  C:7019H         LINE#         145
  C:701BH         LINE#         147
  C:7021H         LINE#         148
  C:7024H         LINE#         149
  C:7026H         LINE#         150
  C:702AH         LINE#         151
  C:702EH         LINE#         152
  C:7032H         LINE#         153
  C:703AH         LINE#         154
  C:703EH         LINE#         155
  C:704AH         LINE#         156
  C:704AH         LINE#         157
  C:7057H         LINE#         158
  C:705AH         LINE#         159
  C:705FH         LINE#         160
  C:7061H         LINE#         161
  C:7066H         LINE#         162
  C:7075H         LINE#         163
  C:7080H         LINE#         164
  C:7086H         LINE#         165
  -------         ENDPROC       _CHECK_STATUS
  -------         PROC          _CARD_INSERCION
  D:0007H         SYMBOL        Tipo
  -------         DO            
  D:0006H         SYMBOL        j
  D:0007H         SYMBOL        bcc
  X:000EH         SYMBOL        g_scArrTxComSoft
  -------         ENDDO         
  C:6894H         LINE#         173
  C:6894H         LINE#         174
  C:6894H         LINE#         177
  C:68A1H         LINE#         178
  C:68A1H         LINE#         179
  C:68A8H         LINE#         180
  C:68AEH         LINE#         181
  C:68B0H         LINE#         183
  C:68B0H         LINE#         185
  C:68B7H         LINE#         186
  C:68BDH         LINE#         188
  C:68BDH         LINE#         190
BL51 BANKED LINKER/LOCATER V6.22.2.0                                                  08/05/2020  11:21:06  PAGE 91


  C:68BFH         LINE#         192
  C:68C5H         LINE#         193
  C:68C8H         LINE#         194
  C:68CAH         LINE#         195
  C:68CEH         LINE#         196
  C:68D2H         LINE#         197
  C:68D6H         LINE#         199
  C:68DCH         LINE#         200
  C:68E8H         LINE#         201
  C:68E8H         LINE#         202
  C:68F5H         LINE#         203
  C:68F8H         LINE#         205
  C:68FDH         LINE#         207
  C:68FFH         LINE#         208
  C:6904H         LINE#         209
  C:6913H         LINE#         210
  C:691EH         LINE#         211
  C:6924H         LINE#         212
  -------         ENDPROC       _CARD_INSERCION
  -------         PROC          _MOV_CARD
  X:000EH         SYMBOL        Posicion
  -------         DO            
  D:0003H         SYMBOL        j
  X:000FH         SYMBOL        bcc
  X:0010H         SYMBOL        g_scArrTxComSoft
  -------         ENDDO         
  C:59BCH         LINE#         223
  C:59C1H         LINE#         224
  C:59C1H         LINE#         227
  C:59C4H         LINE#         229
  C:59E4H         LINE#         230
  C:59E4H         LINE#         231
  C:59EBH         LINE#         232
  C:59EBH         LINE#         233
  C:59F1H         LINE#         234
  C:59F3H         LINE#         235
  C:59FAH         LINE#         236
  C:59FAH         LINE#         237
  C:5A00H         LINE#         238
  C:5A02H         LINE#         239
  C:5A09H         LINE#         240
  C:5A09H         LINE#         241
  C:5A0FH         LINE#         242
  C:5A11H         LINE#         243
  C:5A18H         LINE#         244
  C:5A18H         LINE#         245
  C:5A1EH         LINE#         246
  C:5A20H         LINE#         247
  C:5A27H         LINE#         248
  C:5A27H         LINE#         249
  C:5A30H         LINE#         250
  C:5A30H         LINE#         252
  C:5A36H         LINE#         253
  C:5A39H         LINE#         254
  C:5A3BH         LINE#         255
  C:5A3FH         LINE#         256
  C:5A43H         LINE#         257
BL51 BANKED LINKER/LOCATER V6.22.2.0                                                  08/05/2020  11:21:06  PAGE 92


  C:5A47H         LINE#         258
  C:5A4FH         LINE#         259
  C:5A53H         LINE#         260
  C:5A5FH         LINE#         261
  C:5A5FH         LINE#         262
  C:5A73H         LINE#         263
  C:5A76H         LINE#         264
  C:5A7EH         LINE#         265
  C:5A80H         LINE#         266
  C:5A85H         LINE#         267
  C:5A94H         LINE#         268
  C:5A9FH         LINE#         269
  C:5AA5H         LINE#         270
  C:5AA5H         LINE#         272
  -------         ENDPROC       _MOV_CARD
  -------         PROC          AUT_CARD_CHECK_STATUS
  -------         DO            
  D:0003H         SYMBOL        j
  X:000EH         SYMBOL        bcc
  X:000FH         SYMBOL        g_scArrTxComSoft
  -------         ENDDO         
  C:6F8BH         LINE#         278
  C:6F8BH         LINE#         279
  C:6F8BH         LINE#         282
  C:6F90H         LINE#         284
  C:6F99H         LINE#         286
  C:6F9FH         LINE#         287
  C:6FA2H         LINE#         288
  C:6FA4H         LINE#         289
  C:6FA8H         LINE#         290
  C:6FACH         LINE#         291
  C:6FB0H         LINE#         292
  C:6FB4H         LINE#         293
  C:6FB8H         LINE#         294
  C:6FC4H         LINE#         295
  C:6FC4H         LINE#         296
  C:6FD8H         LINE#         297
  C:6FDBH         LINE#         298
  C:6FE3H         LINE#         299
  C:6FE5H         LINE#         300
  C:6FEAH         LINE#         301
  C:6FF9H         LINE#         302
  C:7004H         LINE#         303
  C:700AH         LINE#         304
  -------         ENDPROC       AUT_CARD_CHECK_STATUS
  -------         PROC          DWLOAD_EEPROM
  -------         DO            
  D:0003H         SYMBOL        j
  X:0002H         SYMBOL        bcc
  X:0003H         SYMBOL        g_scArrTxComSoft
  -------         ENDDO         
  C:6255H         LINE#         310
  C:6255H         LINE#         311
  C:6255H         LINE#         314
  C:625AH         LINE#         315
  C:6263H         LINE#         317
  C:6269H         LINE#         318
BL51 BANKED LINKER/LOCATER V6.22.2.0                                                  08/05/2020  11:21:06  PAGE 93


  C:626CH         LINE#         319
  C:626EH         LINE#         320
  C:6272H         LINE#         321
  C:6276H         LINE#         322
  C:627AH         LINE#         323
  C:627EH         LINE#         324
  C:6281H         LINE#         325
  C:6285H         LINE#         326
  C:6288H         LINE#         327
  C:628BH         LINE#         328
  C:628FH         LINE#         329
  C:6293H         LINE#         330
  C:6297H         LINE#         331
  C:629BH         LINE#         332
  C:629FH         LINE#         333
  C:62A3H         LINE#         334
  C:62A7H         LINE#         335
  C:62ABH         LINE#         337
  C:62B7H         LINE#         338
  C:62B7H         LINE#         339
  C:62CBH         LINE#         340
  C:62CEH         LINE#         341
  C:62D6H         LINE#         342
  C:62D8H         LINE#         343
  C:62DDH         LINE#         344
  C:62ECH         LINE#         345
  C:62F7H         LINE#         346
  C:62FDH         LINE#         347
  -------         ENDPROC       DWLOAD_EEPROM
  -------         PROC          LOADVERIFY_EEPROM
  -------         DO            
  D:0003H         SYMBOL        j
  X:000EH         SYMBOL        bcc
  X:000FH         SYMBOL        g_scArrTxComSoft
  -------         ENDDO         
  C:6925H         LINE#         353
  C:6925H         LINE#         354
  C:6925H         LINE#         357
  C:692AH         LINE#         358
  C:6933H         LINE#         361
  C:6939H         LINE#         362
  C:693CH         LINE#         363
  C:693EH         LINE#         364
  C:6942H         LINE#         365
  C:6946H         LINE#         366
  C:694AH         LINE#         367
  C:694EH         LINE#         368
  C:6951H         LINE#         369
  C:6955H         LINE#         370
  C:6958H         LINE#         371
  C:695BH         LINE#         372
  C:695FH         LINE#         373
  C:6963H         LINE#         377
  C:696FH         LINE#         378
  C:696FH         LINE#         379
  C:6983H         LINE#         380
  C:6986H         LINE#         381
BL51 BANKED LINKER/LOCATER V6.22.2.0                                                  08/05/2020  11:21:06  PAGE 94


  C:698EH         LINE#         382
  C:6990H         LINE#         383
  C:6995H         LINE#         384
  C:69A4H         LINE#         385
  C:69AFH         LINE#         386
  C:69B5H         LINE#         388
  -------         ENDPROC       LOADVERIFY_EEPROM
  -------         PROC          _RD_MF
  X:000EH         SYMBOL        Sector
  X:000FH         SYMBOL        Bloque
  -------         DO            
  D:0003H         SYMBOL        j
  X:0010H         SYMBOL        bcc
  X:0011H         SYMBOL        g_scArrTxComSoft
  -------         ENDDO         
  C:5DFFH         LINE#         394
  C:5E07H         LINE#         395
  C:5E07H         LINE#         399
  C:5E0AH         LINE#         401
  C:5E13H         LINE#         402
  C:5E1BH         LINE#         404
  C:5E24H         LINE#         405
  C:5E2CH         LINE#         406
  C:5E35H         LINE#         409
  C:5E3BH         LINE#         410
  C:5E3EH         LINE#         411
  C:5E40H         LINE#         412
  C:5E44H         LINE#         413
  C:5E48H         LINE#         414
  C:5E4CH         LINE#         415
  C:5E50H         LINE#         416
  C:5E53H         LINE#         417
  C:5E57H         LINE#         418
  C:5E5FH         LINE#         419
  C:5E67H         LINE#         420
  C:5E6BH         LINE#         421
  C:5E6FH         LINE#         423
  C:5E7BH         LINE#         424
  C:5E7BH         LINE#         425
  C:5E8FH         LINE#         426
  C:5E92H         LINE#         427
  C:5E9AH         LINE#         430
  C:5E9CH         LINE#         431
  C:5EA1H         LINE#         432
  C:5EB0H         LINE#         433
  C:5EBBH         LINE#         434
  C:5EC1H         LINE#         436
  -------         ENDPROC       _RD_MF
  -------         PROC          _WR_MF
  X:000EH         SYMBOL        Sector
  X:000FH         SYMBOL        Bloque
  X:0010H         SYMBOL        buffer
  -------         DO            
  X:0013H         SYMBOL        j
  X:0014H         SYMBOL        bcc
  X:0015H         SYMBOL        g_scArrTxComSoft
  -------         ENDDO         
BL51 BANKED LINKER/LOCATER V6.22.2.0                                                  08/05/2020  11:21:06  PAGE 95


  C:4CBCH         LINE#         443
  C:4CCDH         LINE#         445
  C:4CCDH         LINE#         448
  C:4CD2H         LINE#         450
  C:4CDBH         LINE#         451
  C:4CE3H         LINE#         453
  C:4CECH         LINE#         454
  C:4CF4H         LINE#         455
  C:4CFDH         LINE#         457
  C:4D03H         LINE#         458
  C:4D06H         LINE#         459
  C:4D08H         LINE#         460
  C:4D0CH         LINE#         462
  C:4D10H         LINE#         463
  C:4D14H         LINE#         464
  C:4D18H         LINE#         465
  C:4D1BH         LINE#         466
  C:4D1FH         LINE#         467
  C:4D28H         LINE#         468
  C:4D30H         LINE#         469
  C:4D34H         LINE#         471
  C:4D39H         LINE#         472
  C:4D39H         LINE#         477
  C:4D3CH         LINE#         478
  C:4D3EH         LINE#         479
  C:4D40H         LINE#         480
  C:4D42H         LINE#         481
  C:4D44H         LINE#         486
  C:4D46H         LINE#         487
  C:4D48H         LINE#         488
  C:4D4AH         LINE#         494
  C:4D5CH         LINE#         499
  C:4D66H         LINE#         504
  C:4D6AH         LINE#         510
  C:4D6DH         LINE#         511
  C:4D6FH         LINE#         512
  C:4D71H         LINE#         513
  C:4D73H         LINE#         514
  C:4D75H         LINE#         516
  C:4D77H         LINE#         518
  C:4D77H         LINE#         519
  C:4D8BH         LINE#         520
  C:4D8BH         LINE#         521
  C:4D97H         LINE#         522
  C:4D9FH         LINE#         523
  C:4D9FH         LINE#         528
  C:4DA5H         LINE#         530
  C:4DB8H         LINE#         531
  C:4DB8H         LINE#         532
  C:4DCDH         LINE#         533
  C:4DD5H         LINE#         534
  C:4DDDH         LINE#         537
  C:4DDFH         LINE#         538
  C:4DE4H         LINE#         539
  C:4DF3H         LINE#         540
  C:4DFEH         LINE#         541
  C:4E04H         LINE#         543
BL51 BANKED LINKER/LOCATER V6.22.2.0                                                  08/05/2020  11:21:06  PAGE 96


  -------         ENDPROC       _WR_MF
  -------         ENDMOD        LINTECH

  -------         MODULE        ?C?FPADD
  C:0BF2H         PUBLIC        ?C?FPADD
  C:0BEEH         PUBLIC        ?C?FPSUB
  -------         ENDMOD        ?C?FPADD

  -------         MODULE        ?C?FPMUL
  C:0CE3H         PUBLIC        ?C?FPMUL
  -------         ENDMOD        ?C?FPMUL

  -------         MODULE        ?C?FCAST
  C:0DF3H         PUBLIC        ?C?FCASTC
  C:0DEEH         PUBLIC        ?C?FCASTI
  C:0DE9H         PUBLIC        ?C?FCASTL
  -------         ENDMOD        ?C?FCAST

  -------         MODULE        ?C?CASTF
  C:0E27H         PUBLIC        ?C?CASTF
  -------         ENDMOD        ?C?CASTF

  -------         MODULE        PRINTF
  X:006DH         PUBLIC        ?_PRINTF?BYTE
  X:006DH         PUBLIC        ?_SPRINTF?BYTE
  C:2920H         PUBLIC        _PRINTF
  C:291AH         PUBLIC        _SPRINTF
  -------         ENDMOD        PRINTF

  -------         MODULE        POW
  X:001CH         PUBLIC        ?_pow?BYTE
  C:488FH         PUBLIC        _pow
  -------         ENDMOD        POW

  -------         MODULE        ?C?CHKFLOAT
  C:0EA8H         PUBLIC        ?C?CHKFLOAT
  -------         ENDMOD        ?C?CHKFLOAT

  -------         MODULE        ?C?FPCMP
  C:0EC4H         PUBLIC        ?C?FPCMP
  C:0EC2H         PUBLIC        ?C?FPCMP3
  -------         ENDMOD        ?C?FPCMP

  -------         MODULE        ?C?FPNEG
  C:0F3BH         PUBLIC        ?C?FPNEG
  -------         ENDMOD        ?C?FPNEG

  -------         MODULE        ?C?FPROUND
  C:0F4CH         PUBLIC        ?C?FPROUND
  -------         ENDMOD        ?C?FPROUND

  -------         MODULE        ?C?FPCONVERT
  C:0F89H         PUBLIC        ?C?FPCONVERT
  -------         ENDMOD        ?C?FPCONVERT

  -------         MODULE        EXP
  C:679DH         PUBLIC        _EXP
BL51 BANKED LINKER/LOCATER V6.22.2.0                                                  08/05/2020  11:21:06  PAGE 97


  -------         ENDMOD        EXP

  -------         MODULE        LOG
  C:50B7H         PUBLIC        _LOG
  C:50B3H         PUBLIC        _LOG10
  -------         ENDMOD        LOG

  -------         MODULE        ?C?FPDIV
  C:1091H         PUBLIC        ?C?FPDIV
  -------         ENDMOD        ?C?FPDIV

  -------         MODULE        ?C?FTNPWR
  C:115EH         PUBLIC        ?C?FTNPWR
  -------         ENDMOD        ?C?FTNPWR

  -------         MODULE        ?C?COPY
  C:12BBH         PUBLIC        ?C?COPY
  -------         ENDMOD        ?C?COPY

  -------         MODULE        ?C?CLDPTR
  C:12E1H         PUBLIC        ?C?CLDPTR
  -------         ENDMOD        ?C?CLDPTR

  -------         MODULE        ?C?CLDOPTR
  C:12FAH         PUBLIC        ?C?CLDOPTR
  -------         ENDMOD        ?C?CLDOPTR

  -------         MODULE        ?C?CSTPTR
  C:1327H         PUBLIC        ?C?CSTPTR
  -------         ENDMOD        ?C?CSTPTR

  -------         MODULE        ?C?CSTOPTR
  C:1339H         PUBLIC        ?C?CSTOPTR
  -------         ENDMOD        ?C?CSTOPTR

  -------         MODULE        ?C?UIDIV
  C:135BH         PUBLIC        ?C?UIDIV
  -------         ENDMOD        ?C?UIDIV

  -------         MODULE        ?C?IILDX
  C:13B0H         PUBLIC        ?C?IILDX
  -------         ENDMOD        ?C?IILDX

  -------         MODULE        ?C?LNEG
  C:13C6H         PUBLIC        ?C?LNEG
  -------         ENDMOD        ?C?LNEG

  -------         MODULE        ?C?LLDCODE
  C:13D4H         PUBLIC        ?C?LLDCODE
  -------         ENDMOD        ?C?LLDCODE

  -------         MODULE        ?C?LLDXDATA0
  C:13E4H         PUBLIC        ?C?LLDXDATA0
  -------         ENDMOD        ?C?LLDXDATA0

  -------         MODULE        ?C?LLDCODE0
  C:13F0H         PUBLIC        ?C?LLDCODE0
BL51 BANKED LINKER/LOCATER V6.22.2.0                                                  08/05/2020  11:21:06  PAGE 98


  -------         ENDMOD        ?C?LLDCODE0

  -------         MODULE        ?C?LSTXDATA
  C:1400H         PUBLIC        ?C?LSTXDATA
  -------         ENDMOD        ?C?LSTXDATA

  -------         MODULE        ?C?LSTKXDATA
  C:140CH         PUBLIC        ?C?LSTKXDATA
  -------         ENDMOD        ?C?LSTKXDATA

  -------         MODULE        ?C?PLDIXDATA
  C:143DH         PUBLIC        ?C?PLDIXDATA
  -------         ENDMOD        ?C?PLDIXDATA

  -------         MODULE        ?C?PSTXDATA
  C:1454H         PUBLIC        ?C?PSTXDATA
  -------         ENDMOD        ?C?PSTXDATA

  -------         MODULE        ?C?CCASE
  C:145DH         PUBLIC        ?C?CCASE
  -------         ENDMOD        ?C?CCASE

  -------         MODULE        STRCAT
  X:005DH         PUBLIC        ?_strcat?BYTE
  C:7170H         PUBLIC        _strcat
  -------         ENDMOD        STRCAT

  -------         MODULE        ?C?STRCMP
  C:1601H         PUBLIC        ?C?STRCMP
  -------         ENDMOD        ?C?STRCMP

  -------         MODULE        ?C?STRCPY
  C:16EAH         PUBLIC        ?C?STRCPY
  -------         ENDMOD        ?C?STRCPY

  -------         MODULE        STRLEN
  C:000EH         PUBLIC        _STRLEN
  -------         ENDMOD        STRLEN

  -------         MODULE        STRTOK
  X:0068H         PUBLIC        ?_strtok?BYTE
  C:5AA6H         PUBLIC        _strtok
  -------         ENDMOD        STRTOK

  -------         MODULE        ATOI
  C:5B8AH         PUBLIC        _atoi
  -------         ENDMOD        ATOI

  -------         MODULE        ?C?IMUL
  C:1707H         PUBLIC        ?C?IMUL
  -------         ENDMOD        ?C?IMUL

  -------         MODULE        ?C?ILDIX
  C:1719H         PUBLIC        ?C?ILDIX
  -------         ENDMOD        ?C?ILDIX

  -------         MODULE        ISDIGIT
BL51 BANKED LINKER/LOCATER V6.22.2.0                                                  08/05/2020  11:21:06  PAGE 99


  C:7C43H         PUBLIC        _isdigit
  -------         ENDMOD        ISDIGIT

  -------         MODULE        ISSPACE
  C:7BA3H         PUBLIC        _isspace
  -------         ENDMOD        ISSPACE

  -------         MODULE        STRSPN
  X:006EH         PUBLIC        ?_strspn?BYTE
  C:6D86H         PUBLIC        _strspn
  -------         ENDMOD        STRSPN

  -------         MODULE        STRPBRK
  X:006EH         PUBLIC        ?_strpbrk?BYTE
  C:6E0AH         PUBLIC        _strpbrk
  -------         ENDMOD        STRPBRK

Program Size: data=119.6 xdata=438 code=31940
LINK/LOCATE RUN COMPLETE.  0 WARNING(S),  0 ERROR(S)
