BL51 BANKED LINKER/LOCATER V6.22.2.0                                                    10/09/2020  16:27:21  PAGE 1


BL51 BANKED LINKER/LOCATER V6.22.2.0, INVOKED BY:
C:\KEIL_V5\C51\BIN\BL51.EXE .\Objects\main.obj, .\Objects\Accescan.obj, .\Objects\Clock.obj, .\Objects\delay.obj, .\Obje
>> cts\eeprom.obj, .\Objects\io_sensores.obj, .\Objects\pantallas.obj, .\Objects\prog.obj, .\Objects\pto_paralelo.obj, .
>> \Objects\tibbo.obj, .\Objects\uart.obj, .\Objects\verificador.obj, .\Objects\lintech.obj TO .\Objects\verificador_v_0
>> 1_raspberry PRINT (.\Listings\verificador_v_01_raspberry.m51) RAMSIZE (256)


MEMORY MODEL: LARGE WITH FLOATING POINT ARITHMETIC


INPUT MODULES INCLUDED:
  .\Objects\main.obj (MAIN)
  .\Objects\Accescan.obj (ACCESCAN)
  .\Objects\Clock.obj (CLOCK)
  .\Objects\delay.obj (DELAY)
  .\Objects\eeprom.obj (EEPROM)
  .\Objects\io_sensores.obj (IO_SENSORES)
  .\Objects\pantallas.obj (PANTALLAS)
  .\Objects\prog.obj (PROG)
  .\Objects\pto_paralelo.obj (PTO_PARALELO)
  .\Objects\tibbo.obj (TIBBO)
  .\Objects\uart.obj (UART)
  .\Objects\verificador.obj (VERIFICADOR)
  .\Objects\lintech.obj (LINTECH)
  C:\KEIL_V5\C51\LIB\C51FPL.LIB (?C?FPADD)
  C:\KEIL_V5\C51\LIB\C51FPL.LIB (?C?FPMUL)
  C:\KEIL_V5\C51\LIB\C51FPL.LIB (?C?FCAST)
  C:\KEIL_V5\C51\LIB\C51FPL.LIB (?C?CASTF)
  C:\KEIL_V5\C51\LIB\C51FPL.LIB (PRINTF)
  C:\KEIL_V5\C51\LIB\C51FPL.LIB (POW)
  C:\KEIL_V5\C51\LIB\C51FPL.LIB (?C?FPGETOPN)
  C:\KEIL_V5\C51\LIB\C51FPL.LIB (?C?CHKFLOAT)
  C:\KEIL_V5\C51\LIB\C51FPL.LIB (?C?FPCMP)
  C:\KEIL_V5\C51\LIB\C51FPL.LIB (?C?FPNEG)
  C:\KEIL_V5\C51\LIB\C51FPL.LIB (?C?FPROUND)
  C:\KEIL_V5\C51\LIB\C51FPL.LIB (?C?FPCONVERT)
  C:\KEIL_V5\C51\LIB\C51FPL.LIB (EXP)
  C:\KEIL_V5\C51\LIB\C51FPL.LIB (LOG)
  C:\KEIL_V5\C51\LIB\C51FPL.LIB (?C?FPDIV)
  C:\KEIL_V5\C51\LIB\C51FPL.LIB (?C?FTNPWR)
  C:\KEIL_V5\C51\LIB\C51FPL.LIB (?C?FPSERIES)
  C:\KEIL_V5\C51\LIB\C51L.LIB (?C_STARTUP)
  C:\KEIL_V5\C51\LIB\C51L.LIB (?C?COPY)
  C:\KEIL_V5\C51\LIB\C51L.LIB (?C?CLDPTR)
  C:\KEIL_V5\C51\LIB\C51L.LIB (?C?CLDOPTR)
  C:\KEIL_V5\C51\LIB\C51L.LIB (?C?CSTPTR)
  C:\KEIL_V5\C51\LIB\C51L.LIB (?C?CSTOPTR)
  C:\KEIL_V5\C51\LIB\C51L.LIB (?C?IMUL)
  C:\KEIL_V5\C51\LIB\C51L.LIB (?C?UIDIV)
  C:\KEIL_V5\C51\LIB\C51L.LIB (?C?IILDX)
  C:\KEIL_V5\C51\LIB\C51L.LIB (?C?LNEG)
  C:\KEIL_V5\C51\LIB\C51L.LIB (?C?ULCMP)
  C:\KEIL_V5\C51\LIB\C51L.LIB (?C?LLDCODE)
  C:\KEIL_V5\C51\LIB\C51L.LIB (?C?LLDXDATA0)
  C:\KEIL_V5\C51\LIB\C51L.LIB (?C?LLDCODE0)
  C:\KEIL_V5\C51\LIB\C51L.LIB (?C?LSTXDATA)
  C:\KEIL_V5\C51\LIB\C51L.LIB (?C?LSTKXDATA)
  C:\KEIL_V5\C51\LIB\C51L.LIB (?C?PLDIXDATA)
BL51 BANKED LINKER/LOCATER V6.22.2.0                                                  10/09/2020  16:27:21  PAGE 2


  C:\KEIL_V5\C51\LIB\C51L.LIB (?C?PSTXDATA)
  C:\KEIL_V5\C51\LIB\C51L.LIB (?C?CCASE)
  C:\KEIL_V5\C51\LIB\C51L.LIB (STRCAT)
  C:\KEIL_V5\C51\LIB\C51L.LIB (?C?STRCMP)
  C:\KEIL_V5\C51\LIB\C51L.LIB (?C?STRCPY)
  C:\KEIL_V5\C51\LIB\C51L.LIB (STRLEN)
  C:\KEIL_V5\C51\LIB\C51L.LIB (STRTOK)
  C:\KEIL_V5\C51\LIB\C51L.LIB (ATOI)
  C:\KEIL_V5\C51\LIB\C51L.LIB (MALLOC)
  C:\KEIL_V5\C51\LIB\C51L.LIB (INIT_MEM)
  C:\KEIL_V5\C51\LIB\C51L.LIB (FREE)
  C:\KEIL_V5\C51\LIB\C51L.LIB (?C_INIT)
  C:\KEIL_V5\C51\LIB\C51L.LIB (?C?ILDIX)
  C:\KEIL_V5\C51\LIB\C51L.LIB (ISDIGIT)
  C:\KEIL_V5\C51\LIB\C51L.LIB (ISSPACE)
  C:\KEIL_V5\C51\LIB\C51L.LIB (STRSPN)
  C:\KEIL_V5\C51\LIB\C51L.LIB (STRPBRK)


LINK MAP OF MODULE:  .\Objects\verificador_v_01_raspberry (MAIN)


            TYPE    BASE      LENGTH    RELOCATION   SEGMENT NAME
            -----------------------------------------------------

            * * * * * * *   D A T A   M E M O R Y   * * * * * * *
            REG     0000H     0008H     ABSOLUTE     "REG BANK 0"
            DATA    0008H     0005H     UNIT         _DATA_GROUP_
            DATA    000DH     0004H     UNIT         ?DT?UART
            IDATA   0011H     0009H     UNIT         ?ID?ACCESCAN
                    001AH     0006H                  *** GAP ***
            BIT     0020H.0   0001H.1   UNIT         _BIT_GROUP_
            BIT     0021H.1   0000H.3   UNIT         ?BI?MAIN
            BIT     0021H.4   0000H.2   UNIT         ?BI?UART
            BIT     0021H.6   0000H.1   UNIT         ?BI?EEPROM
                    0021H.7   0000H.1                *** GAP ***
            IDATA   0022H     0064H     UNIT         ?ID?MAIN
            IDATA   0086H     0001H     UNIT         ?STACK

            * * * * * * *  X D A T A   M E M O R Y  * * * * * * *
            XDATA   0000H     00E4H     UNIT         _XDATA_GROUP_
            XDATA   00E4H     0070H     UNIT         ?XD?MAIN
            XDATA   0154H     0066H     UNIT         ?XD?VERIFICADOR
            XDATA   01BAH     0051H     UNIT         ?XD?PANTALLAS
            XDATA   020BH     0051H     UNIT         ?XD?PROG
            XDATA   025CH     001EH     UNIT         ?XD?PTO_PARALELO
            XDATA   027AH     0016H     UNIT         ?XD?CLAVE_SEGURIDAD_S2?LINTECH
            XDATA   0290H     0008H     UNIT         ?XD?INIT_MEM
            XDATA   0298H     0003H     UNIT         ?XD?EEPROM
            XDATA   029BH     0003H     UNIT         ?XD?UART
            XDATA   029EH     0003H     UNIT         ?XD?STRTOK
            XDATA   02A1H     0002H     UNIT         ?XD?ACCESCAN
            XDATA   02A3H     0001H     UNIT         ?XD?CLOCK
            XDATA   02A4H     0001H     UNIT         ?XD?IO_SENSORES

            * * * * * * *   C O D E   M E M O R Y   * * * * * * *
            CODE    0000H     0003H     ABSOLUTE     
BL51 BANKED LINKER/LOCATER V6.22.2.0                                                  10/09/2020  16:27:21  PAGE 3


            CODE    0003H     0008H     UNIT         ?PR?P_CK?CLOCK
            CODE    000BH     0003H     ABSOLUTE     
            CODE    000EH     0015H     UNIT         ?PR?_STRLEN?STRLEN
            CODE    0023H     0003H     ABSOLUTE     
            CODE    0026H     116CH     UNIT         ?CO?PROG
            CODE    1192H     0C36H     UNIT         ?PR?SECUENCIAEXPEDIDOR?VERIFICADOR
            CODE    1DC8H     0B55H     UNIT         ?C?LIB_CODE
            CODE    291DH     0775H     UNIT         ?CO?VERIFICADOR
            CODE    3092H     0537H     UNIT         ?PR?_ANALIZA_TIEMPO?CLOCK
            CODE    35C9H     0483H     UNIT         ?PR?PRINTF?PRINTF
            CODE    3A4CH     046CH     UNIT         ?CO?PANTALLAS
            CODE    3EB8H     03D5H     UNIT         ?PR?_PANTALLALCD?PANTALLAS
            CODE    428DH     038EH     UNIT         ?PR?VER_PROG?PROG
            CODE    461BH     0311H     UNIT         ?PR?_VALIDA_TRAMA_PTO?ACCESCAN
            CODE    492CH     02D0H     UNIT         ?PR?_TWO_BYTEHEX_DECIMAL?CLOCK
            CODE    4BFCH     02CDH     UNIT         ?PR?_TRAMA_PTO_PARALELO_NEW?PTO_PARALELO
            CODE    4EC9H     02B7H     UNIT         ?PR?_PROG_HORARIO_DIAS?PROG
            CODE    5180H     021AH     UNIT         ?PR?MENU?PROG
            CODE    539AH     020FH     UNIT         ?PR?_HASH_ID?PROG
            CODE    55A9H     01FAH     UNIT         ?PR?_PROG_HORARIO_DESDE_HASTA?PROG
            CODE    57A3H     01F5H     UNIT         ?PR?PROG_FECHA_VENCIMIENTO?PROG
            CODE    5998H     01ECH     UNIT         ?PR?_RESPONDE_LECTURA_TARJETA_SECTOR1_BLOQUE2?VERIFICADOR
            CODE    5B84H     01CFH     UNIT         ?PR?_BLOCK_READ_CLOCK_RASBERRY?CLOCK
            CODE    5D53H     01B3H     UNIT         ?PR?COM_ISR?UART
            CODE    5F06H     01A6H     UNIT         ?PR?_CMD_LPR_SALIDA?ACCESCAN
            CODE    60ACH     017BH     UNIT         ?PR?_RESPONDE_LECTURA_TARJETA_SECTOR1_BLOQUE1?VERIFICADOR
            CODE    6227H     017BH     UNIT         ?PR?_WR_MF?LINTECH
            CODE    63A2H     0179H     UNIT         ?PR?_CHECK_FECHAOUT?CLOCK
            CODE    651BH     0176H     UNIT         ?CO?LINTECH
            CODE    6691H     016FH     UNIT         ?PR?_BLOCK_READ_CLOCK_ASCII?CLOCK
            CODE    6800H     0166H     UNIT         ?PR?_POW?POW
            CODE    6966H     0162H     UNIT         ?PR?_PANTALLALCD_LINEA_2?PANTALLAS
            CODE    6AC8H     0145H     UNIT         ?PR?PROG_HORARIOS?PROG
            CODE    6C0DH     0140H     UNIT         ?PR?SECUENCIA_INICIO_EXPEDIDOR?VERIFICADOR
            CODE    6D4DH     013FH     UNIT         ?PR?_FREE?FREE
            CODE    6E8CH     013EH     UNIT         ?PR?PROG_SIN_COBRO?PROG
            CODE    6FCAH     0137H     UNIT         ?PR?VER_HORARIO?PROG
            CODE    7101H     0129H     UNIT         ?PR?LOG?LOG
            CODE    722AH     0128H     UNIT         ?PR?_VER_HORARIO_DIAS?PROG
            CODE    7352H     011AH     UNIT         ?PR?_PROG_HORARIOS_ON_OFF?PROG
            CODE    746CH     0119H     UNIT         ?PR?_VER_HORARIO_DESDE_HASTA?PROG
            CODE    7585H     0115H     UNIT         ?PR?_VALIDAR_CLK?CLOCK
            CODE    769AH     0110H     UNIT         ?PR?LOAD_AND_SEND_ID_COD?PTO_PARALELO
            CODE    77AAH     010FH     UNIT         ?PR?_RESPONDE_LECTURA_TARJETA_SECTOR1_BLOQUE0?VERIFICADOR
            CODE    78B9H     0103H     UNIT         ?PR?_BLOQUE_HORARIO?VERIFICADOR
            CODE    79BCH     00FFH     UNIT         ?PR?_TRAMA_PTO_PARALELO_P?PTO_PARALELO
            CODE    7ABBH     00FEH     UNIT         ?PR?_ARMAR_TRAMA_PTO_PARALELO_EXPEDIDOR_MENSUAL?VERIFICADOR
            CODE    7BB9H     00FCH     UNIT         ?PR?PROG_DEBUG?PROG
            CODE    7CB5H     00FCH     UNIT         ?PR?PROG_USE_LPR?PROG
            CODE    7DB1H     00FCH     UNIT         ?PR?PROG_COMPARACION_ACTIVA?PROG
            CODE    7EADH     00FCH     UNIT         ?PR?TIPO_PANTALLA?PROG
            CODE    7FA9H     00FCH     UNIT         ?PR?DCTO_CAJA?PROG
            CODE    80A5H     00FCH     UNIT         ?PR?PROG_APB_MENSUAL?PROG
            CODE    81A1H     00F5H     UNIT         ?PR?_HORARIOS?VERIFICADOR
            CODE    8296H     00EAH     UNIT         ?PR?_MOV_CARD?LINTECH
            CODE    8380H     00E4H     UNIT         ?PR?_STRTOK?STRTOK
            CODE    8464H     00DEH     UNIT         ?PR?PROG_ADDRESS_HIGH_BOARD?PROG
BL51 BANKED LINKER/LOCATER V6.22.2.0                                                  10/09/2020  16:27:21  PAGE 4


            CODE    8542H     00DBH     UNIT         ?PR?_ATOI?ATOI
            CODE    861DH     00D7H     UNIT         ?PR?_ANALIZA_UID_CARD?VERIFICADOR
            CODE    86F4H     00D6H     UNIT         ?PR?_CMD_LPR_SALIDA_WIEGAND?ACCESCAN
            CODE    87CAH     00D1H     UNIT         ?PR?_MALLOC?MALLOC
            CODE    889BH     00C6H     UNIT         ?C_INITSEG
            CODE    8961H     00C5H     UNIT         ?PR?_BLOCK_READ_CLOCK?CLOCK
            CODE    8A26H     00C3H     UNIT         ?PR?_RD_MF?LINTECH
            CODE    8AE9H     00BDH     UNIT         ?PR?PROG_COD_PARK?PROG
            CODE    8BA6H     00BDH     UNIT         ?PR?PROG_TIEMPO_GRACIA?PROG
            CODE    8C63H     00BBH     UNIT         ?PR?_CHECK_FECHAOUT_2?CLOCK
            CODE    8D1EH     00B6H     UNIT         ?PR?PROG_ID_CLIENTE?PROG
            CODE    8DD4H     00B4H     UNIT         ?PR?_SEND_PORT?PTO_PARALELO
            CODE    8E88H     00AFH     UNIT         ?PR?ERROR_RX_PTO?VERIFICADOR
            CODE    8F37H     00ACH     UNIT         ?PR?_HORA_MAXIMA?VERIFICADOR
            CODE    8FE3H     00AAH     UNIT         ?PR?CLAVE_SEGURIDAD_S2?LINTECH
            CODE    908DH     00A9H     UNIT         ?PR?DWLOAD_EEPROM?LINTECH
            CODE    9136H     00A7H     UNIT         ?PR?_BLOCK_READ_CLOCK_HEX?CLOCK
            CODE    91DDH     00A7H     UNIT         ?CO?TIBBO
            CODE    9284H     00A6H     UNIT         ?PR?_DEBUG_FECHA_ACTUAL?TIBBO
            CODE    932AH     00A0H     UNIT         ?CO?IO_SENSORES
            CODE    93CAH     009DH     UNIT         ?PR?_INICIALIZA?LINTECH
            CODE    9467H     009CH     UNIT         ?PR?_RECIBE_PORT?PTO_PARALELO
            CODE    9503H     009AH     UNIT         ?PR?EXP?EXP
            CODE    959DH     0095H     UNIT         ?PR?_RECIBE_CMD_MONITOR?ACCESCAN
            CODE    9632H     0091H     UNIT         ?PR?_HEX_ASCII?CLOCK
            CODE    96C3H     0091H     UNIT         ?PR?_CARD_INSERCION?LINTECH
            CODE    9754H     0091H     UNIT         ?PR?LOADVERIFY_EEPROM?LINTECH
            CODE    97E5H     0090H     UNIT         ?PR?_GETOPTION?PROG
            CODE    9875H     008FH     UNIT         ?PR?_LEE_CLK?CLOCK
            CODE    9904H     008FH     UNIT         ?PR?_BLOCK_WRITE_CLOCK_ASCII?CLOCK
            CODE    9993H     008CH     UNIT         ?C_C51STARTUP
            CODE    9A1FH     008AH     UNIT         ?PR?_EN_HORARIO?VERIFICADOR
            CODE    9AA9H     0088H     UNIT         ?PR?_SEND_PORTERR?PTO_PARALELO
            CODE    9B31H     0088H     UNIT         ?PR?RX_DATA?TIBBO
            CODE    9BB9H     0088H     UNIT         ?PR?UNIQUE_IDENTIFIER_UID?LINTECH
            CODE    9C41H     0087H     UNIT         ?PR?SHOW?PROG
            CODE    9CC8H     0085H     UNIT         ?PR?MAIN?MAIN
            CODE    9D4DH     0084H     UNIT         ?PR?_STRSPN?STRSPN
            CODE    9DD1H     0081H     UNIT         ?PR?_STRPBRK?STRPBRK
            CODE    9E52H     0080H     UNIT         ?PR?MSJ_LCD_INFORMATIVO?IO_SENSORES
            CODE    9ED2H     0080H     UNIT         ?PR?_INGRESADATO?PROG
            CODE    9F52H     0080H     UNIT         ?PR?AUT_CARD_CHECK_STATUS?LINTECH
            CODE    9FD2H     0080H     UNIT         ?PR?POWER_OFF?LINTECH
            CODE    A052H     007CH     UNIT         ?PR?_CHECK_STATUS?LINTECH
            CODE    A0CEH     0077H     UNIT         ?PR?RELOJ_PANTALLA_LCD?PANTALLAS
            CODE    A145H     0073H     UNIT         ?PR?VALIDASENSORESPASO?IO_SENSORES
            CODE    A1B8H     0073H     UNIT         ?PR?_DEBUGBUFFERMF?TIBBO
            CODE    A22BH     006FH     UNIT         ?PR?_ESCRIBIRMEMORIA?EEPROM
            CODE    A29AH     006DH     UNIT         ?PR?VALIDAR_PAGO?VERIFICADOR
            CODE    A307H     006BH     UNIT         ?PR?_VALIDA_MISMO_DIA?VERIFICADOR
            CODE    A372H     006BH     UNIT         ?PR?_STRCAT?STRCAT
            CODE    A3DDH     0066H     UNIT         ?PR?_LEERMEMORIA?EEPROM
            CODE    A443H     0062H     UNIT         ?PR?_LISTACOMANDOS?PROG
            CODE    A4A5H     005EH     UNIT         ?PR?_BYTEHEX_DECIMAL?CLOCK
            CODE    A503H     0059H     UNIT         ?PR?_RASPBERRY_DATA?PANTALLAS
            CODE    A55CH     0056H     UNIT         ?PR?_WR_EEPROM?EEPROM
            CODE    A5B2H     0056H     UNIT         ?PR?VARIABLE_INICIO?EEPROM
BL51 BANKED LINKER/LOCATER V6.22.2.0                                                  10/09/2020  16:27:21  PAGE 5


            CODE    A608H     004DH     UNIT         ?PR?L_D_M?EEPROM
            CODE    A655H     004BH     UNIT         ?PR?_TX_AUX?TIBBO
            CODE    A6A0H     0048H     UNIT         ?PR?FIRST_CLAVE?PROG
            CODE    A6E8H     0048H     UNIT         ?PR?_DEBUG_PTO_PARALELO?TIBBO
            CODE    A730H     0047H     UNIT         ?PR?_DEBUG_CHR_TIBBO?TIBBO
            CODE    A777H     0046H     UNIT         ?PR?_ESCRIBIRCADENASOFT_BUFFER?MAIN
            CODE    A7BDH     0046H     UNIT         ?PR?_LCD_TXT_NUM_CHAR?PANTALLAS
            CODE    A803H     0046H     UNIT         ?PR?_DEBUG_HEXDEC?TIBBO
            CODE    A849H     0044H     UNIT         ?PR?_LCD_TXT?PANTALLAS
            CODE    A88DH     0044H     UNIT         ?PR?_DEBUG_TXT_TIBBO?TIBBO
            CODE    A8D1H     0043H     UNIT         ?PR?DIR_BOARD?IO_SENSORES
            CODE    A914H     0042H     UNIT         ?PR?_VALIDARCLAVE?PROG
            CODE    A956H     0041H     UNIT         ?PR?_MONITOR_CHR?ACCESCAN
            CODE    A997H     0041H     UNIT         ?PR?_TWO_ONE?CLOCK
            CODE    A9D8H     0040H     UNIT         ?PR?_GETCMD?PROG
            CODE    AA18H     003FH     UNIT         ?PR?_EB_CLK?CLOCK
            CODE    AA57H     003EH     UNIT         ?PR?_PUTCHAR?MAIN
            CODE    AA95H     003DH     UNIT         ?PR?_HEX_BCD?CLOCK
            CODE    AAD2H     003DH     UNIT         ?PR?_RD_EEPROM?EEPROM
            CODE    AB0FH     003CH     UNIT         ?PR?_INIT_MEMPOOL?INIT_MEM
            CODE    AB4BH     003BH     UNIT         ?PR?_COM_PUTCHAR?UART
            CODE    AB86H     003AH     UNIT         ?PR?_DELAY_10MS?DELAY
            CODE    ABC0H     0037H     UNIT         ?PR?TIMER0_INT?MAIN
            CODE    ABF7H     0034H     UNIT         ?PR?ADDR_HORARIOS?PROG
            CODE    AC2BH     002CH     UNIT         ?PR?LOAD_AND_SEND_INFO_RELOJ?PTO_PARALELO
            CODE    AC57H     002AH     UNIT         ?PR?COM_INITIALIZE?UART
            CODE    AC81H     0028H     UNIT         ?PR?_WR_CLK?CLOCK
            CODE    ACA9H     0028H     UNIT         ?PR?COM_BAUDRATE?UART
            CODE    ACD1H     0027H     UNIT         ?PR?_TX_CHRLCD?PANTALLAS
            CODE    ACF8H     0026H     UNIT         ?PR?COM_GETCHAR?UART
            CODE    AD1EH     0024H     UNIT         ?PR?TRAMA_VALIDACION_P_N?VERIFICADOR
            CODE    AD42H     0022H     UNIT         ?PR?_E_D_M?EEPROM
            CODE    AD64H     0020H     UNIT         ?PR?ACKD?EEPROM
            CODE    AD84H     0020H     UNIT         ?PR?ACK_LECT?EEPROM
            CODE    ADA4H     001FH     UNIT         ?PR?VALIDASENSOR?IO_SENSORES
            CODE    ADC3H     001FH     UNIT         ?PR?VALIDASENSORES_OUT?IO_SENSORES
            CODE    ADE2H     001FH     UNIT         ?PR?TIME_BIT?TIBBO
            CODE    AE01H     001EH     UNIT         ?PR?_BCD_HEX?CLOCK
            CODE    AE1FH     001DH     UNIT         ?CO?PTO_PARALELO
            CODE    AE3CH     001BH     UNIT         ?PR?_DELAY_1MS?DELAY
            CODE    AE57H     0017H     UNIT         ?PR?DISPLAYCURSOR?PROG
            CODE    AE6EH     0017H     UNIT         ?PR?TIME_MBIT?TIBBO
            CODE    AE85H     0014H     UNIT         ?PR?_ISSPACE?ISSPACE
            CODE    AE99H     0012H     UNIT         ?PR?_DELAY_20US?DELAY
            CODE    AEABH     0012H     UNIT         ?PR?START?EEPROM
            CODE    AEBDH     0012H     UNIT         ?PR?DIR_BOARD_MONITOR?IO_SENSORES
            CODE    AECFH     0012H     UNIT         ?PR?PULSO_BUS?PTO_PARALELO
            CODE    AEE1H     0012H     UNIT         ?PR?COM_RBUFLEN?UART
            CODE    AEF3H     0012H     UNIT         ?PR?COM_TBUFLEN?UART
            CODE    AF05H     0010H     UNIT         ?PR?INI_TIMER?MAIN
            CODE    AF15H     0010H     UNIT         ?PR?INICIA_BOARD?MAIN
            CODE    AF25H     000FH     UNIT         ?PR?_ISDIGIT?ISDIGIT
            CODE    AF34H     000CH     UNIT         ?PR?_GETKEY?MAIN
            CODE    AF40H     000AH     UNIT         ?PR?COND_INI_PTO?PTO_PARALELO
            CODE    AF4AH     0009H     UNIT         ?PR?STOP?EEPROM
            CODE    AF53H     0009H     UNIT         ?PR?DEBUG_DIVIDIR_TEXTO?TIBBO
            CODE    AF5CH     0007H     UNIT         ?PR?COND_INI_CLOCK?CLOCK
BL51 BANKED LINKER/LOCATER V6.22.2.0                                                  10/09/2020  16:27:21  PAGE 6


            CODE    AF63H     0007H     UNIT         ?PR?SEL_FUNCION?IO_SENSORES
            CODE    AF6AH     0007H     UNIT         ?PR?SEL_AUTO?IO_SENSORES
            CODE    AF71H     0007H     UNIT         ?PR?SEL_SENSOR2?IO_SENSORES
            CODE    AF78H     0007H     UNIT         ?PR?SEL_SENSOR1?IO_SENSORES
            CODE    AF7FH     0007H     UNIT         ?PR?SEL_DIR1?IO_SENSORES
            CODE    AF86H     0007H     UNIT         ?PR?SEL_DIR2?IO_SENSORES
            CODE    AF8DH     0006H     UNIT         ?PR?P_ME?EEPROM
            CODE    AF93H     0005H     UNIT         ?PR?ON_TIMER0_INTERRUP?MAIN
            CODE    AF98H     0005H     UNIT         ?CO?ACCESCAN
            CODE    AF9DH     0005H     UNIT         ?PR?COND_INI_TIBBO?TIBBO
            CODE    AFA2H     0003H     UNIT         ?PR?OFF_TIMER0_INTERRUP?MAIN
            CODE    AFA5H     0001H     UNIT         ?PR?DELAY?DELAY



OVERLAY MAP OF MODULE:   .\Objects\verificador_v_01_raspberry (MAIN)


SEGMENT                                             BIT_GROUP          DATA_GROUP          XDATA_GROUP
  +--> CALLED SEGMENT                            START    LENGTH     START    LENGTH     START    LENGTH
--------------------------------------------------------------------------------------------------------
?C_C51STARTUP                                    -----    -----      -----    -----      -----    -----
  +--> ?PR?MAIN?MAIN
  +--> ?C_INITSEG

?PR?MAIN?MAIN                                    -----    -----      -----    -----      0000H    0001H
  +--> ?PR?INI_TIMER?MAIN
  +--> ?PR?ON_TIMER0_INTERRUP?MAIN
  +--> ?PR?COM_INITIALIZE?UART
  +--> ?PR?COM_BAUDRATE?UART
  +--> ?PR?INICIA_BOARD?MAIN
  +--> ?PR?TIME_BIT?TIBBO
  +--> ?PR?_DELAY_20US?DELAY
  +--> ?PR?TIME_MBIT?TIBBO
  +--> ?PR?_TX_AUX?TIBBO
  +--> ?PR?SEL_FUNCION?IO_SENSORES
  +--> ?PR?MENU?PROG
  +--> ?PR?VARIABLE_INICIO?EEPROM
  +--> ?PR?SECUENCIA_INICIO_EXPEDIDOR?VERIFI...
  +--> ?PR?_RECIBE_CMD_MONITOR?ACCESCAN
  +--> ?PR?SECUENCIAEXPEDIDOR?VERIFICADOR
  +--> ?PR?_RECIBE_PORT?PTO_PARALELO
  +--> ?PR?_VALIDA_TRAMA_PTO?ACCESCAN
  +--> ?PR?_DEBUG_PTO_PARALELO?TIBBO
  +--> ?PR?MSJ_LCD_INFORMATIVO?IO_SENSORES

?PR?COM_INITIALIZE?UART                          -----    -----      -----    -----      -----    -----
  +--> ?PR?COM_BAUDRATE?UART

?PR?INICIA_BOARD?MAIN                            -----    -----      -----    -----      -----    -----
  +--> ?PR?COND_INI_TIBBO?TIBBO
  +--> ?PR?COND_INI_CLOCK?CLOCK
  +--> ?PR?COND_INI_PTO?PTO_PARALELO

?PR?_TX_AUX?TIBBO                                -----    -----      -----    -----      -----    -----
  +--> ?PR?TIME_BIT?TIBBO

BL51 BANKED LINKER/LOCATER V6.22.2.0                                                  10/09/2020  16:27:21  PAGE 7


?PR?MENU?PROG                                    -----    -----      -----    -----      0001H    0059H
  +--> ?CO?PROG
  +--> ?PR?PRINTF?PRINTF
  +--> ?PR?_RD_EEPROM?EEPROM
  +--> ?PR?FIRST_CLAVE?PROG
  +--> ?PR?_WR_EEPROM?EEPROM
  +--> ?PR?_LEERMEMORIA?EEPROM
  +--> ?PR?_HASH_ID?PROG
  +--> ?PR?_INGRESADATO?PROG
  +--> ?PR?_GETCMD?PROG
  +--> ?PR?_ESCRIBIRMEMORIA?EEPROM
  +--> ?PR?_VALIDARCLAVE?PROG
  +--> ?PR?DISPLAYCURSOR?PROG
  +--> ?PR?_STRLEN?STRLEN
  +--> ?PR?_GETOPTION?PROG
  +--> ?PR?_STRCAT?STRCAT
  +--> ?PR?_LISTACOMANDOS?PROG
  +--> ?PR?PROG_ID_CLIENTE?PROG
  +--> ?PR?PROG_COD_PARK?PROG
  +--> ?PR?PROG_TIEMPO_GRACIA?PROG
  +--> ?PR?PROG_SIN_COBRO?PROG
  +--> ?PR?PROG_DEBUG?PROG
  +--> ?PR?PROG_USE_LPR?PROG
  +--> ?PR?PROG_COMPARACION_ACTIVA?PROG
  +--> ?PR?TIPO_PANTALLA?PROG
  +--> ?PR?DCTO_CAJA?PROG
  +--> ?PR?PROG_APB_MENSUAL?PROG
  +--> ?PR?PROG_ADDRESS_HIGH_BOARD?PROG
  +--> ?PR?PROG_HORARIOS?PROG
  +--> ?PR?VER_PROG?PROG
  +--> ?PR?SHOW?PROG
  +--> ?PR?PROG_FECHA_VENCIMIENTO?PROG

?PR?PRINTF?PRINTF                                0020H.0  0001H.1    0008H    0005H      00B0H    0030H
  +--> ?PR?_PUTCHAR?MAIN

?PR?_PUTCHAR?MAIN                                -----    -----      -----    -----      00E0H    0003H
  +--> ?PR?_COM_PUTCHAR?UART

?PR?_COM_PUTCHAR?UART                            -----    -----      -----    -----      00E3H    0001H
  +--> ?PR?COM_TBUFLEN?UART

?PR?_RD_EEPROM?EEPROM                            -----    -----      -----    -----      -----    -----
  +--> ?PR?START?EEPROM
  +--> ?PR?ACK_LECT?EEPROM
  +--> ?PR?_E_D_M?EEPROM
  +--> ?PR?ACKD?EEPROM
  +--> ?PR?L_D_M?EEPROM
  +--> ?PR?STOP?EEPROM

?PR?ACK_LECT?EEPROM                              -----    -----      -----    -----      -----    -----
  +--> ?PR?_E_D_M?EEPROM

?PR?_E_D_M?EEPROM                                -----    -----      -----    -----      -----    -----
  +--> ?PR?P_ME?EEPROM

?PR?ACKD?EEPROM                                  -----    -----      -----    -----      -----    -----
BL51 BANKED LINKER/LOCATER V6.22.2.0                                                  10/09/2020  16:27:21  PAGE 8


  +--> ?PR?_E_D_M?EEPROM

?PR?FIRST_CLAVE?PROG                             -----    -----      -----    -----      005AH    000BH
  +--> ?PR?_BLOCK_READ_CLOCK_ASCII?CLOCK
  +--> ?PR?_HASH_ID?PROG
  +--> ?PR?_ESCRIBIRMEMORIA?EEPROM

?PR?_BLOCK_READ_CLOCK_ASCII?CLOCK                -----    -----      -----    -----      0065H    0003H
  +--> ?PR?_LEE_CLK?CLOCK

?PR?_LEE_CLK?CLOCK                               -----    -----      -----    -----      00C5H    0003H
  +--> ?PR?_DELAY_20US?DELAY
  +--> ?PR?_EB_CLK?CLOCK
  +--> ?PR?P_CK?CLOCK

?PR?_EB_CLK?CLOCK                                -----    -----      -----    -----      00C8H    0003H
  +--> ?PR?P_CK?CLOCK

?PR?P_CK?CLOCK                                   -----    -----      -----    -----      -----    -----
  +--> ?PR?DELAY?DELAY

?PR?_HASH_ID?PROG                                -----    -----      -----    -----      0071H    003FH
  +--> ?CO?PROG
  +--> ?PR?_LEERMEMORIA?EEPROM
  +--> ?PR?_CHECK_FECHAOUT_2?CLOCK
  +--> ?PR?PRINTF?PRINTF
  +--> ?PR?_STRLEN?STRLEN

?PR?_LEERMEMORIA?EEPROM                          -----    -----      -----    -----      00B0H    0005H
  +--> ?PR?_RD_EEPROM?EEPROM

?PR?_CHECK_FECHAOUT_2?CLOCK                      -----    -----      -----    -----      00B0H    0012H
  +--> ?PR?_BLOCK_READ_CLOCK_HEX?CLOCK

?PR?_BLOCK_READ_CLOCK_HEX?CLOCK                  -----    -----      -----    -----      00C2H    0003H
  +--> ?PR?_LEE_CLK?CLOCK
  +--> ?PR?_BCD_HEX?CLOCK

?PR?_ESCRIBIRMEMORIA?EEPROM                      -----    -----      -----    -----      0071H    0005H
  +--> ?PR?_WR_EEPROM?EEPROM

?PR?_WR_EEPROM?EEPROM                            -----    -----      -----    -----      -----    -----
  +--> ?PR?START?EEPROM
  +--> ?PR?ACKD?EEPROM
  +--> ?PR?_E_D_M?EEPROM
  +--> ?PR?STOP?EEPROM
  +--> ?PR?_DELAY_1MS?DELAY
  +--> ?PR?_DELAY_20US?DELAY

?PR?_DELAY_1MS?DELAY                             -----    -----      -----    -----      -----    -----
  +--> ?PR?_DELAY_20US?DELAY

?PR?_INGRESADATO?PROG                            -----    -----      -----    -----      0085H    0004H
  +--> ?PR?_GETKEY?MAIN
  +--> ?CO?PROG
  +--> ?PR?PRINTF?PRINTF
  +--> ?PR?_PUTCHAR?MAIN
BL51 BANKED LINKER/LOCATER V6.22.2.0                                                  10/09/2020  16:27:21  PAGE 9



?PR?_GETKEY?MAIN                                 -----    -----      -----    -----      -----    -----
  +--> ?PR?COM_GETCHAR?UART

?PR?COM_GETCHAR?UART                             -----    -----      -----    -----      -----    -----
  +--> ?PR?COM_RBUFLEN?UART

?PR?_GETCMD?PROG                                 -----    -----      -----    -----      0071H    0007H
  +--> ?CO?PROG
  +--> ?PR?_STRTOK?STRTOK

?PR?_STRTOK?STRTOK                               -----    -----      -----    -----      0078H    0006H
  +--> ?PR?_STRSPN?STRSPN
  +--> ?PR?_STRPBRK?STRPBRK

?PR?_STRSPN?STRSPN                               -----    -----      -----    -----      007EH    0008H

?PR?_STRPBRK?STRPBRK                             -----    -----      -----    -----      007EH    0009H

?PR?_VALIDARCLAVE?PROG                           -----    -----      -----    -----      0071H    000AH

?PR?DISPLAYCURSOR?PROG                           -----    -----      -----    -----      -----    -----
  +--> ?CO?PROG
  +--> ?PR?PRINTF?PRINTF

?PR?_GETOPTION?PROG                              -----    -----      -----    -----      005AH    000BH
  +--> ?CO?PROG
  +--> ?PR?_STRTOK?STRTOK

?PR?_STRCAT?STRCAT                               -----    -----      -----    -----      005AH    0009H

?PR?_LISTACOMANDOS?PROG                          -----    -----      -----    -----      005AH    0007H

?PR?PROG_ID_CLIENTE?PROG                         -----    -----      -----    -----      005AH    000CH
  +--> ?PR?_RD_EEPROM?EEPROM
  +--> ?CO?PROG
  +--> ?PR?PRINTF?PRINTF
  +--> ?PR?_INGRESADATO?PROG
  +--> ?PR?_ATOI?ATOI
  +--> ?PR?_WR_EEPROM?EEPROM

?PR?_ATOI?ATOI                                   0020H.0  0000H.1    -----    -----      0085H    0005H
  +--> ?PR?_ISSPACE?ISSPACE
  +--> ?PR?_ISDIGIT?ISDIGIT

?PR?PROG_COD_PARK?PROG                           -----    -----      -----    -----      005AH    000CH
  +--> ?PR?_RD_EEPROM?EEPROM
  +--> ?CO?PROG
  +--> ?PR?PRINTF?PRINTF
  +--> ?PR?_INGRESADATO?PROG
  +--> ?PR?_ATOI?ATOI
  +--> ?PR?_WR_EEPROM?EEPROM

?PR?PROG_TIEMPO_GRACIA?PROG                      -----    -----      -----    -----      005AH    000CH
  +--> ?PR?_RD_EEPROM?EEPROM
  +--> ?CO?PROG
  +--> ?PR?PRINTF?PRINTF
BL51 BANKED LINKER/LOCATER V6.22.2.0                                                  10/09/2020  16:27:21  PAGE 10


  +--> ?PR?_INGRESADATO?PROG
  +--> ?PR?_ATOI?ATOI
  +--> ?PR?_WR_EEPROM?EEPROM

?PR?PROG_SIN_COBRO?PROG                          -----    -----      -----    -----      005AH    000CH
  +--> ?PR?_RD_EEPROM?EEPROM
  +--> ?CO?PROG
  +--> ?PR?PRINTF?PRINTF
  +--> ?PR?_INGRESADATO?PROG
  +--> ?PR?_ATOI?ATOI
  +--> ?PR?_WR_EEPROM?EEPROM

?PR?PROG_DEBUG?PROG                              -----    -----      -----    -----      005AH    000CH
  +--> ?PR?_RD_EEPROM?EEPROM
  +--> ?CO?PROG
  +--> ?PR?PRINTF?PRINTF
  +--> ?PR?_INGRESADATO?PROG
  +--> ?PR?_ATOI?ATOI
  +--> ?PR?_WR_EEPROM?EEPROM

?PR?PROG_USE_LPR?PROG                            -----    -----      -----    -----      005AH    000CH
  +--> ?PR?_RD_EEPROM?EEPROM
  +--> ?CO?PROG
  +--> ?PR?PRINTF?PRINTF
  +--> ?PR?_INGRESADATO?PROG
  +--> ?PR?_ATOI?ATOI
  +--> ?PR?_WR_EEPROM?EEPROM

?PR?PROG_COMPARACION_ACTIVA?PROG                 -----    -----      -----    -----      005AH    000CH
  +--> ?PR?_RD_EEPROM?EEPROM
  +--> ?CO?PROG
  +--> ?PR?PRINTF?PRINTF
  +--> ?PR?_INGRESADATO?PROG
  +--> ?PR?_ATOI?ATOI
  +--> ?PR?_WR_EEPROM?EEPROM

?PR?TIPO_PANTALLA?PROG                           -----    -----      -----    -----      005AH    000CH
  +--> ?PR?_RD_EEPROM?EEPROM
  +--> ?CO?PROG
  +--> ?PR?PRINTF?PRINTF
  +--> ?PR?_INGRESADATO?PROG
  +--> ?PR?_ATOI?ATOI
  +--> ?PR?_WR_EEPROM?EEPROM

?PR?DCTO_CAJA?PROG                               -----    -----      -----    -----      005AH    000CH
  +--> ?PR?_RD_EEPROM?EEPROM
  +--> ?CO?PROG
  +--> ?PR?PRINTF?PRINTF
  +--> ?PR?_INGRESADATO?PROG
  +--> ?PR?_ATOI?ATOI
  +--> ?PR?_WR_EEPROM?EEPROM

?PR?PROG_APB_MENSUAL?PROG                        -----    -----      -----    -----      005AH    000CH
  +--> ?PR?_RD_EEPROM?EEPROM
  +--> ?CO?PROG
  +--> ?PR?PRINTF?PRINTF
  +--> ?PR?_INGRESADATO?PROG
BL51 BANKED LINKER/LOCATER V6.22.2.0                                                  10/09/2020  16:27:21  PAGE 11


  +--> ?PR?_ATOI?ATOI
  +--> ?PR?_WR_EEPROM?EEPROM

?PR?PROG_ADDRESS_HIGH_BOARD?PROG                 -----    -----      -----    -----      005AH    000CH
  +--> ?PR?_RD_EEPROM?EEPROM
  +--> ?CO?PROG
  +--> ?PR?PRINTF?PRINTF
  +--> ?PR?_INGRESADATO?PROG
  +--> ?PR?_ATOI?ATOI
  +--> ?PR?_WR_EEPROM?EEPROM

?PR?PROG_HORARIOS?PROG                           -----    -----      -----    -----      005AH    001BH
  +--> ?PR?ADDR_HORARIOS?PROG
  +--> ?CO?PROG
  +--> ?PR?PRINTF?PRINTF
  +--> ?PR?_INGRESADATO?PROG
  +--> ?PR?_ATOI?ATOI
  +--> ?PR?_PROG_HORARIOS_ON_OFF?PROG
  +--> ?PR?_WR_EEPROM?EEPROM
  +--> ?PR?_PROG_HORARIO_DIAS?PROG
  +--> ?PR?_PROG_HORARIO_DESDE_HASTA?PROG
  +--> ?PR?_RD_EEPROM?EEPROM

?PR?ADDR_HORARIOS?PROG                           -----    -----      -----    -----      0088H    000BH

?PR?_PROG_HORARIOS_ON_OFF?PROG                   -----    -----      -----    -----      0075H    0010H
  +--> ?PR?_RD_EEPROM?EEPROM
  +--> ?CO?PROG
  +--> ?PR?PRINTF?PRINTF
  +--> ?PR?_INGRESADATO?PROG
  +--> ?PR?_ATOI?ATOI
  +--> ?PR?_WR_EEPROM?EEPROM

?PR?_PROG_HORARIO_DIAS?PROG                      -----    -----      -----    -----      0075H    000FH
  +--> ?CO?PROG
  +--> ?PR?PRINTF?PRINTF
  +--> ?PR?_INGRESADATO?PROG
  +--> ?PR?_WR_EEPROM?EEPROM
  +--> ?PR?_RD_EEPROM?EEPROM

?PR?_PROG_HORARIO_DESDE_HASTA?PROG               -----    -----      -----    -----      0075H    000CH
  +--> ?CO?PROG
  +--> ?PR?PRINTF?PRINTF
  +--> ?PR?_INGRESADATO?PROG
  +--> ?PR?_WR_EEPROM?EEPROM
  +--> ?PR?_RD_EEPROM?EEPROM

?PR?VER_PROG?PROG                                -----    -----      -----    -----      005AH    0013H
  +--> ?PR?_RD_EEPROM?EEPROM
  +--> ?CO?PROG
  +--> ?PR?PRINTF?PRINTF
  +--> ?PR?VER_HORARIO?PROG
  +--> ?PR?_LEERMEMORIA?EEPROM
  +--> ?PR?_HEX_ASCII?CLOCK

?PR?VER_HORARIO?PROG                             -----    -----      -----    -----      006DH    001BH
  +--> ?PR?ADDR_HORARIOS?PROG
BL51 BANKED LINKER/LOCATER V6.22.2.0                                                  10/09/2020  16:27:21  PAGE 12


  +--> ?CO?PROG
  +--> ?PR?PRINTF?PRINTF
  +--> ?PR?_RD_EEPROM?EEPROM
  +--> ?PR?_VER_HORARIO_DIAS?PROG
  +--> ?PR?_VER_HORARIO_DESDE_HASTA?PROG

?PR?_VER_HORARIO_DIAS?PROG                       -----    -----      -----    -----      0088H    0003H
  +--> ?PR?_RD_EEPROM?EEPROM
  +--> ?CO?PROG
  +--> ?PR?PRINTF?PRINTF

?PR?_VER_HORARIO_DESDE_HASTA?PROG                -----    -----      -----    -----      0088H    0002H
  +--> ?CO?PROG
  +--> ?PR?PRINTF?PRINTF
  +--> ?PR?_RD_EEPROM?EEPROM

?PR?_HEX_ASCII?CLOCK                             -----    -----      -----    -----      0071H    0006H
  +--> ?PR?_HEX_BCD?CLOCK

?PR?SHOW?PROG                                    -----    -----      -----    -----      -----    -----
  +--> ?CO?PROG
  +--> ?PR?PRINTF?PRINTF

?PR?PROG_FECHA_VENCIMIENTO?PROG                  -----    -----      -----    -----      005AH    0017H
  +--> ?PR?_LEERMEMORIA?EEPROM
  +--> ?PR?_HEX_ASCII?CLOCK
  +--> ?CO?PROG
  +--> ?PR?PRINTF?PRINTF
  +--> ?PR?_HASH_ID?PROG
  +--> ?PR?_INGRESADATO?PROG
  +--> ?PR?_GETCMD?PROG
  +--> ?PR?_ESCRIBIRMEMORIA?EEPROM
  +--> ?PR?_VALIDARCLAVE?PROG
  +--> ?PR?_ATOI?ATOI
  +--> ?PR?_WR_EEPROM?EEPROM

?PR?VARIABLE_INICIO?EEPROM                       -----    -----      -----    -----      -----    -----
  +--> ?PR?_RD_EEPROM?EEPROM

?PR?SECUENCIA_INICIO_EXPEDIDOR?VERIFI...         -----    -----      -----    -----      0001H    0001H
  +--> ?PR?_INICIALIZA?LINTECH
  +--> ?PR?TRAMA_VALIDACION_P_N?VERIFICADOR
  +--> ?CO?VERIFICADOR
  +--> ?PR?_DEBUG_TXT_TIBBO?TIBBO
  +--> ?PR?_DEBUGBUFFERMF?TIBBO
  +--> ?PR?DWLOAD_EEPROM?LINTECH

?PR?_INICIALIZA?LINTECH                          -----    -----      -----    -----      0002H    000CH
  +--> ?CO?LINTECH
  +--> ?PR?_DEBUG_TXT_TIBBO?TIBBO
  +--> ?PR?_DEBUGBUFFERMF?TIBBO
  +--> ?PR?_ESCRIBIRCADENASOFT_BUFFER?MAIN

?PR?_DEBUG_TXT_TIBBO?TIBBO                       -----    -----      -----    -----      0041H    0004H
  +--> ?CO?TIBBO
  +--> ?PR?_TX_AUX?TIBBO

BL51 BANKED LINKER/LOCATER V6.22.2.0                                                  10/09/2020  16:27:21  PAGE 13


?PR?_DEBUGBUFFERMF?TIBBO                         -----    -----      -----    -----      003BH    0006H
  +--> ?CO?TIBBO
  +--> ?PR?_DEBUG_TXT_TIBBO?TIBBO
  +--> ?PR?_DEBUG_CHR_TIBBO?TIBBO
  +--> ?PR?_TX_AUX?TIBBO

?PR?_DEBUG_CHR_TIBBO?TIBBO                       -----    -----      -----    -----      -----    -----
  +--> ?PR?_TX_AUX?TIBBO

?PR?_ESCRIBIRCADENASOFT_BUFFER?MAIN              -----    -----      -----    -----      0037H    0006H
  +--> ?PR?_PUTCHAR?MAIN

?PR?DWLOAD_EEPROM?LINTECH                        -----    -----      -----    -----      0002H    0016H
  +--> ?CO?LINTECH
  +--> ?PR?_DEBUG_TXT_TIBBO?TIBBO
  +--> ?PR?_DEBUGBUFFERMF?TIBBO
  +--> ?PR?_ESCRIBIRCADENASOFT_BUFFER?MAIN

?PR?_RECIBE_CMD_MONITOR?ACCESCAN                 -----    -----      -----    -----      0001H    0006H
  +--> ?PR?RX_DATA?TIBBO

?PR?RX_DATA?TIBBO                                -----    -----      -----    -----      -----    -----
  +--> ?PR?TIME_MBIT?TIBBO
  +--> ?PR?TIME_BIT?TIBBO

?PR?SECUENCIAEXPEDIDOR?VERIFICADOR               -----    -----      -----    -----      0001H    0010H
  +--> ?PR?_CARD_INSERCION?LINTECH
  +--> ?PR?TRAMA_VALIDACION_P_N?VERIFICADOR
  +--> ?CO?VERIFICADOR
  +--> ?PR?ERROR_RX_PTO?VERIFICADOR
  +--> ?PR?_CHECK_STATUS?LINTECH
  +--> ?PR?_DEBUG_TXT_TIBBO?TIBBO
  +--> ?PR?_DEBUGBUFFERMF?TIBBO
  +--> ?PR?VALIDASENSORESPASO?IO_SENSORES
  +--> ?PR?_SEND_PORTERR?PTO_PARALELO
  +--> ?PR?_PANTALLALCD?PANTALLAS
  +--> ?PR?_RD_MF?LINTECH
  +--> ?PR?_RESPONDE_LECTURA_TARJETA_SECTOR1...
  +--> ?PR?_RESPONDE_LECTURA_TARJETA_SECTOR1...
  +--> ?PR?_BLOCK_READ_CLOCK_HEX?CLOCK
  +--> ?PR?_RD_EEPROM?EEPROM
  +--> ?PR?DEBUG_DIVIDIR_TEXTO?TIBBO
  +--> ?PR?_DEBUG_CHR_TIBBO?TIBBO
  +--> ?PR?PRINTF?PRINTF
  +--> ?PR?_ANALIZA_TIEMPO?CLOCK
  +--> ?PR?VALIDAR_PAGO?VERIFICADOR
  +--> ?PR?_HORARIOS?VERIFICADOR
  +--> ?PR?_CHECK_FECHAOUT_2?CLOCK
  +--> ?PR?_VALIDA_MISMO_DIA?VERIFICADOR
  +--> ?PR?_RESPONDE_LECTURA_TARJETA_SECTOR1...
  +--> ?PR?_WR_MF?LINTECH
  +--> ?PR?_MOV_CARD?LINTECH
  +--> ?PR?VALIDASENSORES_OUT?IO_SENSORES
  +--> ?PR?_TRAMA_PTO_PARALELO_P?PTO_PARALELO
  +--> ?PR?UNIQUE_IDENTIFIER_UID?LINTECH
  +--> ?PR?_ANALIZA_UID_CARD?VERIFICADOR
  +--> ?PR?LOADVERIFY_EEPROM?LINTECH
BL51 BANKED LINKER/LOCATER V6.22.2.0                                                  10/09/2020  16:27:21  PAGE 14


  +--> ?PR?POWER_OFF?LINTECH
  +--> ?PR?AUT_CARD_CHECK_STATUS?LINTECH

?PR?_CARD_INSERCION?LINTECH                      -----    -----      -----    -----      0011H    000AH
  +--> ?CO?LINTECH
  +--> ?PR?_DEBUG_TXT_TIBBO?TIBBO
  +--> ?PR?_DEBUGBUFFERMF?TIBBO
  +--> ?PR?_ESCRIBIRCADENASOFT_BUFFER?MAIN

?PR?ERROR_RX_PTO?VERIFICADOR                     -----    -----      -----    -----      0011H    0001H
  +--> ?CO?VERIFICADOR
  +--> ?PR?_DEBUG_TXT_TIBBO?TIBBO
  +--> ?PR?_DEBUG_CHR_TIBBO?TIBBO
  +--> ?PR?_DELAY_10MS?DELAY

?PR?_DELAY_10MS?DELAY                            -----    -----      -----    -----      0012H    0004H
  +--> ?PR?_DELAY_1MS?DELAY

?PR?_CHECK_STATUS?LINTECH                        -----    -----      -----    -----      0011H    000BH
  +--> ?CO?LINTECH
  +--> ?PR?_DEBUG_TXT_TIBBO?TIBBO
  +--> ?PR?_DEBUGBUFFERMF?TIBBO
  +--> ?PR?_ESCRIBIRCADENASOFT_BUFFER?MAIN

?PR?VALIDASENSORESPASO?IO_SENSORES               -----    -----      -----    -----      -----    -----
  +--> ?PR?SEL_SENSOR2?IO_SENSORES
  +--> ?PR?VALIDASENSOR?IO_SENSORES
  +--> ?PR?SEL_SENSOR1?IO_SENSORES
  +--> ?PR?SEL_AUTO?IO_SENSORES
  +--> ?CO?IO_SENSORES
  +--> ?PR?_DEBUG_TXT_TIBBO?TIBBO

?PR?_SEND_PORTERR?PTO_PARALELO                   -----    -----      -----    -----      002EH    0006H
  +--> ?PR?PULSO_BUS?PTO_PARALELO
  +--> ?PR?_DELAY_20US?DELAY

?PR?PULSO_BUS?PTO_PARALELO                       -----    -----      -----    -----      -----    -----
  +--> ?PR?_DELAY_20US?DELAY

?PR?_PANTALLALCD?PANTALLAS                       -----    -----      -----    -----      002EH    000AH
  +--> ?CO?PANTALLAS
  +--> ?PR?_INIT_MEMPOOL?INIT_MEM
  +--> ?PR?_MALLOC?MALLOC
  +--> ?PR?_LCD_TXT?PANTALLAS
  +--> ?PR?_STRLEN?STRLEN
  +--> ?PR?_TX_CHRLCD?PANTALLAS
  +--> ?PR?_RASPBERRY_DATA?PANTALLAS
  +--> ?PR?_FREE?FREE

?PR?_MALLOC?MALLOC                               -----    -----      -----    -----      0038H    0006H

?PR?_LCD_TXT?PANTALLAS                           -----    -----      -----    -----      003AH    0005H
  +--> ?PR?_TX_CHRLCD?PANTALLAS

?PR?_TX_CHRLCD?PANTALLAS                         -----    -----      -----    -----      003FH    0002H
  +--> ?PR?_PUTCHAR?MAIN

BL51 BANKED LINKER/LOCATER V6.22.2.0                                                  10/09/2020  16:27:21  PAGE 15


?PR?_RASPBERRY_DATA?PANTALLAS                    -----    -----      -----    -----      003AH    0004H
  +--> ?PR?_STRLEN?STRLEN
  +--> ?PR?_PUTCHAR?MAIN

?PR?_FREE?FREE                                   -----    -----      -----    -----      0038H    0006H

?PR?_RD_MF?LINTECH                               -----    -----      -----    -----      0011H    0012H
  +--> ?CO?LINTECH
  +--> ?PR?_DEBUG_TXT_TIBBO?TIBBO
  +--> ?PR?_DEBUG_CHR_TIBBO?TIBBO
  +--> ?PR?_DEBUGBUFFERMF?TIBBO
  +--> ?PR?_ESCRIBIRCADENASOFT_BUFFER?MAIN

?PR?_RESPONDE_LECTURA_TARJETA_SECTOR1...         -----    -----      -----    -----      0011H    0004H
  +--> ?CO?VERIFICADOR
  +--> ?PR?_DEBUG_TXT_TIBBO?TIBBO
  +--> ?PR?_DEBUGBUFFERMF?TIBBO
  +--> ?PR?_DEBUG_HEXDEC?TIBBO
  +--> ?PR?_DEBUG_CHR_TIBBO?TIBBO
  +--> ?PR?_SEND_PORTERR?PTO_PARALELO
  +--> ?PR?_PANTALLALCD?PANTALLAS

?PR?_DEBUG_HEXDEC?TIBBO                          -----    -----      -----    -----      0015H    0002H
  +--> ?PR?_TX_AUX?TIBBO

?PR?_RESPONDE_LECTURA_TARJETA_SECTOR1...         -----    -----      -----    -----      0011H    0004H
  +--> ?CO?VERIFICADOR
  +--> ?PR?_DEBUG_TXT_TIBBO?TIBBO
  +--> ?PR?_DEBUGBUFFERMF?TIBBO
  +--> ?PR?_DEBUG_CHR_TIBBO?TIBBO
  +--> ?PR?_SEND_PORTERR?PTO_PARALELO
  +--> ?PR?_RD_EEPROM?EEPROM
  +--> ?PR?_PANTALLALCD?PANTALLAS

?PR?DEBUG_DIVIDIR_TEXTO?TIBBO                    -----    -----      -----    -----      -----    -----
  +--> ?CO?TIBBO
  +--> ?PR?_DEBUG_TXT_TIBBO?TIBBO

?PR?_ANALIZA_TIEMPO?CLOCK                        0020H.0  0000H.2    -----    -----      0011H    000FH

?PR?VALIDAR_PAGO?VERIFICADOR                     -----    -----      -----    -----      0011H    0002H
  +--> ?PR?_CHECK_FECHAOUT?CLOCK
  +--> ?CO?VERIFICADOR
  +--> ?PR?_DEBUG_TXT_TIBBO?TIBBO
  +--> ?PR?_SEND_PORTERR?PTO_PARALELO
  +--> ?PR?_PANTALLALCD?PANTALLAS

?PR?_CHECK_FECHAOUT?CLOCK                        -----    -----      -----    -----      0013H    000AH
  +--> ?PR?_BLOCK_READ_CLOCK_HEX?CLOCK
  +--> ?PR?_DEBUG_FECHA_ACTUAL?TIBBO

?PR?_DEBUG_FECHA_ACTUAL?TIBBO                    -----    -----      -----    -----      001DH    0003H
  +--> ?CO?TIBBO
  +--> ?PR?_DEBUG_TXT_TIBBO?TIBBO
  +--> ?PR?_HEX_BCD?CLOCK
  +--> ?PR?_DEBUG_CHR_TIBBO?TIBBO
  +--> ?PR?_TX_AUX?TIBBO
BL51 BANKED LINKER/LOCATER V6.22.2.0                                                  10/09/2020  16:27:21  PAGE 16



?PR?_HORARIOS?VERIFICADOR                        -----    -----      -----    -----      0011H    0011H
  +--> ?PR?ADDR_HORARIOS?PROG
  +--> ?PR?_RD_EEPROM?EEPROM
  +--> ?PR?_LEE_CLK?CLOCK
  +--> ?CO?VERIFICADOR
  +--> ?PR?_DEBUG_TXT_TIBBO?TIBBO
  +--> ?PR?_DEBUG_CHR_TIBBO?TIBBO
  +--> ?PR?_BLOQUE_HORARIO?VERIFICADOR
  +--> ?PR?_PANTALLALCD?PANTALLAS

?PR?_BLOQUE_HORARIO?VERIFICADOR                  -----    -----      -----    -----      0022H    0007H
  +--> ?CO?VERIFICADOR
  +--> ?PR?_DEBUG_TXT_TIBBO?TIBBO
  +--> ?PR?_LEE_CLK?CLOCK
  +--> ?PR?_DEBUG_CHR_TIBBO?TIBBO
  +--> ?PR?_HORA_MAXIMA?VERIFICADOR
  +--> ?PR?_EN_HORARIO?VERIFICADOR
  +--> ?PR?_RD_EEPROM?EEPROM
  +--> ?PR?_SEND_PORTERR?PTO_PARALELO
  +--> ?PR?_PANTALLALCD?PANTALLAS

?PR?_HORA_MAXIMA?VERIFICADOR                     -----    -----      -----    -----      002EH    0008H
  +--> ?PR?_RD_EEPROM?EEPROM
  +--> ?PR?_DEBUG_CHR_TIBBO?TIBBO
  +--> ?CO?VERIFICADOR
  +--> ?PR?_DEBUG_TXT_TIBBO?TIBBO

?PR?_EN_HORARIO?VERIFICADOR                      -----    -----      -----    -----      0029H    0005H
  +--> ?CO?VERIFICADOR
  +--> ?PR?_DEBUG_TXT_TIBBO?TIBBO
  +--> ?PR?_HORA_MAXIMA?VERIFICADOR
  +--> ?PR?_SEND_PORTERR?PTO_PARALELO
  +--> ?PR?_PANTALLALCD?PANTALLAS

?PR?_VALIDA_MISMO_DIA?VERIFICADOR                -----    -----      -----    -----      0011H    0006H
  +--> ?PR?_LEE_CLK?CLOCK
  +--> ?PR?_BCD_HEX?CLOCK

?PR?_RESPONDE_LECTURA_TARJETA_SECTOR1...         -----    -----      -----    -----      0011H    0004H
  +--> ?CO?VERIFICADOR
  +--> ?PR?_DEBUG_TXT_TIBBO?TIBBO
  +--> ?PR?_TRAMA_PTO_PARALELO_NEW?PTO_PARALELO
  +--> ?PR?_ARMAR_TRAMA_PTO_PARALELO_EXPEDID...
  +--> ?PR?_CMD_LPR_SALIDA?ACCESCAN

?PR?_TRAMA_PTO_PARALELO_NEW?PTO_PARALELO         -----    -----      -----    -----      0015H    0026H
  +--> ?PR?_BLOCK_READ_CLOCK_HEX?CLOCK
  +--> ?PR?_SEND_PORT?PTO_PARALELO
  +--> ?PR?DEBUG_DIVIDIR_TEXTO?TIBBO
  +--> ?CO?PTO_PARALELO
  +--> ?PR?_DEBUG_TXT_TIBBO?TIBBO
  +--> ?PR?_DEBUGBUFFERMF?TIBBO

?PR?_SEND_PORT?PTO_PARALELO                      -----    -----      -----    -----      003BH    000AH
  +--> ?PR?PULSO_BUS?PTO_PARALELO
  +--> ?PR?_DELAY_20US?DELAY
BL51 BANKED LINKER/LOCATER V6.22.2.0                                                  10/09/2020  16:27:21  PAGE 17



?PR?_ARMAR_TRAMA_PTO_PARALELO_EXPEDID...         -----    -----      -----    -----      0015H    0003H
  +--> ?PR?_RD_EEPROM?EEPROM
  +--> ?PR?_SEND_PORT?PTO_PARALELO
  +--> ?PR?DEBUG_DIVIDIR_TEXTO?TIBBO
  +--> ?CO?VERIFICADOR
  +--> ?PR?_DEBUG_TXT_TIBBO?TIBBO
  +--> ?PR?_DEBUGBUFFERMF?TIBBO

?PR?_CMD_LPR_SALIDA?ACCESCAN                     -----    -----      -----    -----      0015H    0025H
  +--> ?PR?DIR_BOARD_MONITOR?IO_SENSORES
  +--> ?PR?_BYTEHEX_DECIMAL?CLOCK
  +--> ?PR?_STRLEN?STRLEN
  +--> ?PR?_TWO_BYTEHEX_DECIMAL?CLOCK
  +--> ?PR?_BLOCK_READ_CLOCK_ASCII?CLOCK
  +--> ?PR?_MONITOR_CHR?ACCESCAN

?PR?DIR_BOARD_MONITOR?IO_SENSORES                -----    -----      -----    -----      -----    -----
  +--> ?PR?_RD_EEPROM?EEPROM

?PR?_BYTEHEX_DECIMAL?CLOCK                       -----    -----      -----    -----      003AH    0001H

?PR?_TWO_BYTEHEX_DECIMAL?CLOCK                   -----    -----      -----    -----      003AH    000CH
  +--> ?PR?_POW?POW

?PR?_POW?POW                                     -----    -----      -----    -----      0046H    000AH
  +--> ?PR?LOG?LOG
  +--> ?PR?EXP?EXP

?PR?LOG?LOG                                      0020H.0  0000H.1    -----    -----      0050H    0004H

?PR?_MONITOR_CHR?ACCESCAN                        -----    -----      -----    -----      003AH    0005H
  +--> ?PR?_TX_AUX?TIBBO

?PR?_WR_MF?LINTECH                               -----    -----      -----    -----      0011H    0026H
  +--> ?CO?LINTECH
  +--> ?PR?_DEBUG_TXT_TIBBO?TIBBO
  +--> ?PR?_DEBUG_CHR_TIBBO?TIBBO
  +--> ?PR?DIR_BOARD?IO_SENSORES
  +--> ?PR?_DEBUGBUFFERMF?TIBBO
  +--> ?PR?_ESCRIBIRCADENASOFT_BUFFER?MAIN

?PR?DIR_BOARD?IO_SENSORES                        -----    -----      -----    -----      0037H    0001H
  +--> ?PR?SEL_DIR1?IO_SENSORES
  +--> ?PR?SEL_DIR2?IO_SENSORES
  +--> ?PR?_RD_EEPROM?EEPROM

?PR?_MOV_CARD?LINTECH                            -----    -----      -----    -----      0011H    000CH
  +--> ?CO?LINTECH
  +--> ?PR?_DEBUG_TXT_TIBBO?TIBBO
  +--> ?PR?_DEBUGBUFFERMF?TIBBO
  +--> ?PR?_ESCRIBIRCADENASOFT_BUFFER?MAIN

?PR?VALIDASENSORES_OUT?IO_SENSORES               -----    -----      -----    -----      -----    -----
  +--> ?PR?SEL_SENSOR2?IO_SENSORES
  +--> ?PR?VALIDASENSOR?IO_SENSORES

BL51 BANKED LINKER/LOCATER V6.22.2.0                                                  10/09/2020  16:27:21  PAGE 18


?PR?_TRAMA_PTO_PARALELO_P?PTO_PARALELO           -----    -----      -----    -----      0011H    0008H
  +--> ?PR?_SEND_PORT?PTO_PARALELO
  +--> ?PR?DEBUG_DIVIDIR_TEXTO?TIBBO
  +--> ?PR?_DEBUGBUFFERMF?TIBBO

?PR?UNIQUE_IDENTIFIER_UID?LINTECH                -----    -----      -----    -----      0011H    000BH
  +--> ?CO?LINTECH
  +--> ?PR?_DEBUG_TXT_TIBBO?TIBBO
  +--> ?PR?_DEBUGBUFFERMF?TIBBO
  +--> ?PR?_ESCRIBIRCADENASOFT_BUFFER?MAIN

?PR?_ANALIZA_UID_CARD?VERIFICADOR                -----    -----      -----    -----      0011H    0004H
  +--> ?CO?VERIFICADOR
  +--> ?PR?_DEBUG_TXT_TIBBO?TIBBO
  +--> ?PR?_DEBUGBUFFERMF?TIBBO
  +--> ?PR?_DEBUG_CHR_TIBBO?TIBBO

?PR?LOADVERIFY_EEPROM?LINTECH                    -----    -----      -----    -----      0011H    0010H
  +--> ?CO?LINTECH
  +--> ?PR?_DEBUG_TXT_TIBBO?TIBBO
  +--> ?PR?_DEBUGBUFFERMF?TIBBO
  +--> ?PR?_ESCRIBIRCADENASOFT_BUFFER?MAIN

?PR?POWER_OFF?LINTECH                            -----    -----      -----    -----      0011H    000BH
  +--> ?CO?LINTECH
  +--> ?PR?_DEBUG_TXT_TIBBO?TIBBO
  +--> ?PR?_DEBUGBUFFERMF?TIBBO
  +--> ?PR?_ESCRIBIRCADENASOFT_BUFFER?MAIN

?PR?AUT_CARD_CHECK_STATUS?LINTECH                -----    -----      -----    -----      0011H    000BH
  +--> ?CO?LINTECH
  +--> ?PR?_DEBUG_TXT_TIBBO?TIBBO
  +--> ?PR?_DEBUGBUFFERMF?TIBBO
  +--> ?PR?_ESCRIBIRCADENASOFT_BUFFER?MAIN

?PR?_RECIBE_PORT?PTO_PARALELO                    -----    -----      -----    -----      0001H    0008H
  +--> ?PR?OFF_TIMER0_INTERRUP?MAIN
  +--> ?PR?ON_TIMER0_INTERRUP?MAIN

?PR?_VALIDA_TRAMA_PTO?ACCESCAN                   -----    -----      -----    -----      0001H    000FH
  +--> ?PR?_RD_EEPROM?EEPROM
  +--> ?PR?_VALIDAR_CLK?CLOCK
  +--> ?PR?_BLOCK_WRITE_CLOCK_ASCII?CLOCK
  +--> ?PR?RELOJ_PANTALLA_LCD?PANTALLAS
  +--> ?PR?_PANTALLALCD?PANTALLAS
  +--> ?CO?ACCESCAN
  +--> ?PR?_DEBUG_TXT_TIBBO?TIBBO
  +--> ?PR?_BYTEHEX_DECIMAL?CLOCK
  +--> ?PR?_TWO_BYTEHEX_DECIMAL?CLOCK
  +--> ?PR?VALIDASENSORESPASO?IO_SENSORES
  +--> ?PR?_CMD_LPR_SALIDA_WIEGAND?ACCESCAN
  +--> ?PR?_PANTALLALCD_LINEA_2?PANTALLAS

?PR?_BLOCK_WRITE_CLOCK_ASCII?CLOCK               -----    -----      -----    -----      0010H    0003H
  +--> ?PR?_TWO_ONE?CLOCK
  +--> ?PR?_WR_CLK?CLOCK

BL51 BANKED LINKER/LOCATER V6.22.2.0                                                  10/09/2020  16:27:21  PAGE 19


?PR?_WR_CLK?CLOCK                                -----    -----      -----    -----      0013H    0002H
  +--> ?PR?_DELAY_20US?DELAY
  +--> ?PR?_EB_CLK?CLOCK

?PR?RELOJ_PANTALLA_LCD?PANTALLAS                 -----    -----      -----    -----      0010H    0014H
  +--> ?PR?_BLOCK_READ_CLOCK?CLOCK
  +--> ?PR?_LCD_TXT_NUM_CHAR?PANTALLAS
  +--> ?CO?PANTALLAS
  +--> ?PR?_STRLEN?STRLEN
  +--> ?PR?_BLOCK_READ_CLOCK_RASBERRY?CLOCK
  +--> ?PR?_STRCAT?STRCAT
  +--> ?PR?_RASPBERRY_DATA?PANTALLAS

?PR?_BLOCK_READ_CLOCK?CLOCK                      -----    -----      -----    -----      0024H    0003H
  +--> ?PR?_LEE_CLK?CLOCK

?PR?_LCD_TXT_NUM_CHAR?PANTALLAS                  -----    -----      -----    -----      0024H    0006H
  +--> ?PR?_TX_CHRLCD?PANTALLAS

?PR?_BLOCK_READ_CLOCK_RASBERRY?CLOCK             -----    -----      -----    -----      0024H    0003H
  +--> ?PR?_LEE_CLK?CLOCK

?PR?_CMD_LPR_SALIDA_WIEGAND?ACCESCAN             -----    -----      -----    -----      0010H    0022H
  +--> ?PR?DIR_BOARD_MONITOR?IO_SENSORES
  +--> ?PR?_BLOCK_READ_CLOCK_ASCII?CLOCK
  +--> ?PR?_MONITOR_CHR?ACCESCAN

?PR?_PANTALLALCD_LINEA_2?PANTALLAS               -----    -----      -----    -----      0010H    002AH
  +--> ?CO?PANTALLAS
  +--> ?PR?_LCD_TXT?PANTALLAS
  +--> ?PR?_STRLEN?STRLEN
  +--> ?PR?_TX_CHRLCD?PANTALLAS
  +--> ?PR?_STRCAT?STRCAT
  +--> ?PR?_RASPBERRY_DATA?PANTALLAS

?PR?_DEBUG_PTO_PARALELO?TIBBO                    -----    -----      -----    -----      0001H    0004H
  +--> ?CO?TIBBO
  +--> ?PR?_DEBUG_TXT_TIBBO?TIBBO
  +--> ?PR?_DEBUGBUFFERMF?TIBBO
  +--> ?PR?_DEBUG_CHR_TIBBO?TIBBO
  +--> ?PR?DEBUG_DIVIDIR_TEXTO?TIBBO

?PR?MSJ_LCD_INFORMATIVO?IO_SENSORES              -----    -----      -----    -----      0001H    0001H
  +--> ?PR?SEL_FUNCION?IO_SENSORES
  +--> ?PR?LOAD_AND_SEND_INFO_RELOJ?PTO_PARA...
  +--> ?PR?LOAD_AND_SEND_ID_COD?PTO_PARALELO
  +--> ?PR?_RD_EEPROM?EEPROM
  +--> ?PR?_SEND_PORTERR?PTO_PARALELO

?PR?LOAD_AND_SEND_INFO_RELOJ?PTO_PARA...         -----    -----      -----    -----      0002H    000BH
  +--> ?PR?_BLOCK_READ_CLOCK?CLOCK
  +--> ?PR?_LEE_CLK?CLOCK
  +--> ?PR?_SEND_PORT?PTO_PARALELO

?PR?LOAD_AND_SEND_ID_COD?PTO_PARALELO            -----    -----      -----    -----      0002H    0011H
  +--> ?CO?PTO_PARALELO
  +--> ?PR?PRINTF?PRINTF
BL51 BANKED LINKER/LOCATER V6.22.2.0                                                  10/09/2020  16:27:21  PAGE 20


  +--> ?PR?_SEND_PORT?PTO_PARALELO



SYMBOL TABLE OF MODULE:  .\Objects\verificador_v_01_raspberry (MAIN)

  VALUE           TYPE          NAME
  ----------------------------------

  -------         MODULE        MAIN
  C:0000H         SYMBOL        _ICE_DUMMY_
  D:0080H         PUBLIC        P0
  D:0090H         PUBLIC        P1
  C:ABC0H         PUBLIC        timer0_int
  D:00B0H         PUBLIC        P3
  B:00A8H.7       PUBLIC        EA
  C:AFA2H         PUBLIC        off_Timer0_Interrup
  X:010CH         PUBLIC        ValTimeOutCom
  X:010DH         PUBLIC        Buffer_Rta_Lintech
  X:013FH         PUBLIC        Timer_wait
  X:0140H         PUBLIC        g_cContByteRx
  B:0080H.0       PUBLIC        rx_ip
  B:0080H.3       PUBLIC        Atascado
  C:9CC8H         PUBLIC        main
  X:0141H         PUBLIC        Timer_tivo
  B:0090H.7       PUBLIC        lock
  I:0022H         PUBLIC        rbuf
  C:AF93H         PUBLIC        on_Timer0_Interrup
  I:0054H         PUBLIC        tbuf
  B:0090H.1       PUBLIC        DataIn
  D:0089H         PUBLIC        TMOD
  X:0143H         PUBLIC        Debug_Tibbo
  B:0021H.1       PUBLIC        prto_ready
  X:0144H         PUBLIC        Raspberry
  X:0145H         PUBLIC        SIN_COBRO
  X:0147H         PUBLIC        Tipo_Vehiculo
  B:00B0H.3       PUBLIC        busy
  C:AF05H         PUBLIC        ini_timer
  B:00A8H.1       PUBLIC        ET0
  B:0088H.5       PUBLIC        TF0
  X:0148H         PUBLIC        COMPARACION_ACTIVA
  D:008CH         PUBLIC        TH0
  X:0149H         PUBLIC        ACK
  X:014AH         PUBLIC        g_cEstadoComSoft
  D:008AH         PUBLIC        TL0
  B:0088H.4       PUBLIC        TR0
  C:AF15H         PUBLIC        inicia_board
  X:014BH         PUBLIC        T_GRACIA
  X:014DH         PUBLIC        COD_PARK
  B:0080H.7       PUBLIC        sel_com
  X:014FH         PUBLIC        STX_LINTECH
  C:AF34H         PUBLIC        _getkey
  X:0150H         PUBLIC        g_cEstadoComSeqMF
  X:0151H         PUBLIC        ETX
  X:0152H         PUBLIC        ID_CLIENTE
  C:A777H         PUBLIC        _EscribirCadenaSoft_buffer
  B:0021H.2       PUBLIC        buffer_ready
BL51 BANKED LINKER/LOCATER V6.22.2.0                                                  10/09/2020  16:27:21  PAGE 21


  C:AA57H         PUBLIC        _putchar
  B:0021H.3       PUBLIC        placa_ready
  -------         PROC          TIMER0_INT
  C:ABC0H         LINE#         13
  C:ABC6H         LINE#         15
  C:ABCEH         LINE#         16
  C:ABCEH         LINE#         17
  C:ABD0H         LINE#         18
  C:ABD2H         LINE#         19
  C:ABD4H         LINE#         21
  C:ABD4H         LINE#         22
  C:ABDAH         LINE#         23
  C:ABE0H         LINE#         24
  C:ABEEH         LINE#         25
  C:ABF0H         LINE#         26
  C:ABF0H         LINE#         27
  -------         ENDPROC       TIMER0_INT
  -------         PROC          INI_TIMER
  C:AF05H         LINE#         30
  C:AF05H         LINE#         31
  C:AF05H         LINE#         33
  C:AF0DH         LINE#         35
  C:AF10H         LINE#         36
  C:AF12H         LINE#         37
  C:AF14H         LINE#         39
  -------         ENDPROC       INI_TIMER
  -------         PROC          ON_TIMER0_INTERRUP
  C:AF93H         LINE#         42
  C:AF93H         LINE#         43
  C:AF93H         LINE#         44
  C:AF95H         LINE#         45
  C:AF97H         LINE#         47
  -------         ENDPROC       ON_TIMER0_INTERRUP
  -------         PROC          OFF_TIMER0_INTERRUP
  C:AFA2H         LINE#         50
  C:AFA2H         LINE#         51
  C:AFA2H         LINE#         52
  C:AFA4H         LINE#         54
  -------         ENDPROC       OFF_TIMER0_INTERRUP
  -------         PROC          _GETKEY
  -------         DO            
  D:0006H         SYMBOL        k
  -------         ENDDO         
  C:AF34H         LINE#         62
  C:AF34H         LINE#         63
  C:AF34H         LINE#         67
  C:AF34H         LINE#         68
  C:AF37H         LINE#         69
  C:AF37H         LINE#         70
  C:AF3FH         LINE#         72
  C:AF3FH         LINE#         73
  -------         ENDPROC       _GETKEY
  -------         PROC          _PUTCHAR
  X:00E0H         SYMBOL        c
  -------         DO            
  X:00E1H         SYMBOL        i
  -------         ENDDO         
BL51 BANKED LINKER/LOCATER V6.22.2.0                                                  10/09/2020  16:27:21  PAGE 22


  C:AA57H         LINE#         77
  C:AA5CH         LINE#         78
  C:AA5CH         LINE#         81
  C:AA6BH         LINE#         82
  C:AA6BH         LINE#         83
  C:AA81H         LINE#         84
  C:AA81H         LINE#         86
  C:AA8FH         LINE#         87
  C:AA8FH         LINE#         89
  C:AA94H         LINE#         90
  -------         ENDPROC       _PUTCHAR
  -------         PROC          _ESCRIBIRCADENASOFT_BUFFER
  X:0037H         SYMBOL        buffer
  X:003AH         SYMBOL        tamano_cadena
  -------         DO            
  X:003BH         SYMBOL        i
  X:003CH         SYMBOL        d
  -------         ENDDO         
  C:A777H         LINE#         94
  C:A785H         LINE#         95
  C:A785H         LINE#         97
  C:A793H         LINE#         98
  C:A793H         LINE#         99
  C:A7AAH         LINE#         100
  C:A7B4H         LINE#         101
  C:A7BCH         LINE#         102
  -------         ENDPROC       _ESCRIBIRCADENASOFT_BUFFER
  -------         PROC          INICIA_BOARD
  C:AF15H         LINE#         139
  C:AF15H         LINE#         140
  C:AF15H         LINE#         141
  C:AF18H         LINE#         142
  C:AF1BH         LINE#         143
  C:AF1EH         LINE#         144
  C:AF20H         LINE#         145
  C:AF22H         LINE#         146
  C:AF24H         LINE#         148
  -------         ENDPROC       INICIA_BOARD
  -------         PROC          MAIN
  -------         DO            
  X:00E4H         SYMBOL        buffer
  X:0000H         SYMBOL        Length_trama
  -------         ENDDO         
  C:9CC8H         LINE#         158
  C:9CC8H         LINE#         159
  C:9CC8H         LINE#         167
  C:9CCBH         LINE#         168
  C:9CCEH         LINE#         169
  C:9CD1H         LINE#         170
  C:9CD4H         LINE#         171
  C:9CD7H         LINE#         172
  C:9CD9H         LINE#         174
  C:9CDCH         LINE#         175
  C:9CE3H         LINE#         176
  C:9CE6H         LINE#         177
  C:9CEBH         LINE#         179
  C:9CEEH         LINE#         181
BL51 BANKED LINKER/LOCATER V6.22.2.0                                                  10/09/2020  16:27:21  PAGE 23


  C:9CF1H         LINE#         182
  C:9CF1H         LINE#         183
  C:9CF4H         LINE#         184
  C:9CF4H         LINE#         185
  C:9CF7H         LINE#         186
  C:9CFDH         LINE#         187
  C:9D03H         LINE#         189
  C:9D03H         LINE#         190
  C:9D03H         LINE#         192
  C:9D06H         LINE#         194
  C:9D06H         LINE#         195
  C:9D09H         LINE#         196
  C:9D09H         LINE#         198
  C:9D17H         LINE#         201
  C:9D17H         LINE#         203
  C:9D1AH         LINE#         205
  C:9D1DH         LINE#         206
  C:9D1DH         LINE#         209
  C:9D2CH         LINE#         212
  C:9D35H         LINE#         215
  C:9D43H         LINE#         218
  C:9D43H         LINE#         220
  C:9D45H         LINE#         222
  C:9D45H         LINE#         223
  C:9D48H         LINE#         224
  C:9D48H         LINE#         225
  C:9D4BH         LINE#         229
  -------         ENDPROC       MAIN
  -------         ENDMOD        MAIN

  -------         MODULE        ACCESCAN
  C:0000H         SYMBOL        _ICE_DUMMY_
  D:0080H         PUBLIC        P0
  D:0090H         PUBLIC        P1
  I:0011H         PUBLIC        placa
  B:0080H.2       PUBLIC        led_err_imp
  C:A956H         PUBLIC        _Monitor_chr
  C:5F06H         PUBLIC        _Cmd_LPR_Salida
  B:0080H.3       PUBLIC        Atascado
  B:0080H.0       PUBLIC        rx_ip
  B:0090H.7       PUBLIC        lock
  X:02A2H         PUBLIC        USE_LPR
  C:461BH         PUBLIC        _Valida_Trama_Pto
  C:959DH         PUBLIC        _recibe_cmd_Monitor
  C:86F4H         PUBLIC        _Cmd_LPR_Salida_wiegand
  -------         PROC          _VALIDA_TRAMA_PTO
  X:0001H         SYMBOL        buffer
  X:0004H         SYMBOL        length_trama
  -------         DO            
  X:02A1H         SYMBOL        cont
  X:0005H         SYMBOL        buff
  -------         ENDDO         
  C:461BH         LINE#         122
  C:4629H         LINE#         123
  C:4629H         LINE#         127
  C:4637H         LINE#         129
  C:466EH         LINE#         130
BL51 BANKED LINKER/LOCATER V6.22.2.0                                                  10/09/2020  16:27:21  PAGE 24


  C:466EH         LINE#         131
  C:4683H         LINE#         132
  C:4683H         LINE#         133
  C:4696H         LINE#         135
  C:4699H         LINE#         137
  C:4699H         LINE#         139
  C:4699H         LINE#         141
  C:46ABH         LINE#         142
  C:46ABH         LINE#         143
  C:46B1H         LINE#         144
  C:46BEH         LINE#         145
  C:46BEH         LINE#         146
  C:46C3H         LINE#         147
  C:46C5H         LINE#         148
  C:46CAH         LINE#         149
  C:46CCH         LINE#         150
  C:46CEH         LINE#         151
  C:46D2H         LINE#         152
  C:46D2H         LINE#         153
  C:46D3H         LINE#         155
  C:46EBH         LINE#         156
  C:46EBH         LINE#         158
  C:46F8H         LINE#         159
  C:46F8H         LINE#         160
  C:46FAH         LINE#         161
  C:46FCH         LINE#         162
  C:46FEH         LINE#         163
  C:4700H         LINE#         164
  C:4700H         LINE#         166
  C:4726H         LINE#         167
  C:4726H         LINE#         168
  C:472AH         LINE#         169
  C:472FH         LINE#         170
  C:4738H         LINE#         171
  C:473DH         LINE#         172
  C:473DH         LINE#         175
  C:473EH         LINE#         178
  C:4750H         LINE#         179
  C:4750H         LINE#         180
  C:4752H         LINE#         181
  C:4755H         LINE#         183
  C:4767H         LINE#         184
  C:4767H         LINE#         185
  C:4769H         LINE#         186
  C:476CH         LINE#         188
  C:4786H         LINE#         189
  C:4786H         LINE#         190
  C:4788H         LINE#         191
  C:478BH         LINE#         194
  C:47A5H         LINE#         195
  C:47A5H         LINE#         196
  C:47A7H         LINE#         197
  C:47A9H         LINE#         200
  C:47C3H         LINE#         201
  C:47C3H         LINE#         202
  C:47C5H         LINE#         203
  C:47C7H         LINE#         207
BL51 BANKED LINKER/LOCATER V6.22.2.0                                                  10/09/2020  16:27:21  PAGE 25


  C:47E1H         LINE#         208
  C:47E1H         LINE#         209
  C:47E3H         LINE#         210
  C:47E5H         LINE#         213
  C:47FFH         LINE#         214
  C:47FFH         LINE#         215
  C:4801H         LINE#         216
  C:4803H         LINE#         218
  C:481DH         LINE#         219
  C:481DH         LINE#         220
  C:4822H         LINE#         221
  C:4822H         LINE#         223
  C:4852H         LINE#         224
  C:4852H         LINE#         225
  C:4860H         LINE#         226
  C:4863H         LINE#         229
  C:48A6H         LINE#         230
  C:48A6H         LINE#         232
  C:48BBH         LINE#         233
  C:48C1H         LINE#         234
  C:48EBH         LINE#         237
  C:48F3H         LINE#         238
  C:48F3H         LINE#         241
  C:48FAH         LINE#         242
  C:48FAH         LINE#         243
  C:48FFH         LINE#         244
  C:48FFH         LINE#         245
  C:4901H         LINE#         247
  C:4901H         LINE#         248
  C:490AH         LINE#         249
  C:4912H         LINE#         250
  C:4912H         LINE#         255
  C:4914H         LINE#         258
  C:4914H         LINE#         261
  C:491BH         LINE#         262
  C:491BH         LINE#         263
  C:4920H         LINE#         264
  C:4920H         LINE#         265
  C:492BH         LINE#         269
  C:492BH         LINE#         270
  C:492BH         LINE#         272
  -------         ENDPROC       _VALIDA_TRAMA_PTO
  -------         PROC          _RECIBE_CMD_MONITOR
  X:0001H         SYMBOL        buffer_cmd
  -------         DO            
  X:0004H         SYMBOL        j
  X:0005H         SYMBOL        NumDatos
  D:0005H         SYMBOL        time_out
  X:0006H         SYMBOL        MaxChrRx
  D:0006H         SYMBOL        contador
  -------         ENDDO         
  C:959DH         LINE#         278
  C:95A8H         LINE#         279
  C:95A8H         LINE#         283
  C:95ADH         LINE#         284
  C:95B1H         LINE#         286
  C:95B9H         LINE#         287
BL51 BANKED LINKER/LOCATER V6.22.2.0                                                  10/09/2020  16:27:21  PAGE 26


  C:95B9H         LINE#         288
  C:95CAH         LINE#         289
  C:95CAH         LINE#         290
  C:95CDH         LINE#         291
  C:95CEH         LINE#         292
  C:95D4H         LINE#         293
  C:95D4H         LINE#         294
  C:95D9H         LINE#         295
  C:95E2H         LINE#         296
  C:95E2H         LINE#         297
  C:95E4H         LINE#         298
  C:95ECH         LINE#         299
  C:95ECH         LINE#         300
  C:95EEH         LINE#         301
  C:95F3H         LINE#         302
  C:95F9H         LINE#         303
  C:960BH         LINE#         304
  C:9615H         LINE#         305
  C:961DH         LINE#         307
  C:962CH         LINE#         310
  C:962CH         LINE#         311
  C:9631H         LINE#         312
  -------         ENDPROC       _RECIBE_CMD_MONITOR
  -------         PROC          _MONITOR_CHR
  X:003AH         SYMBOL        str
  X:003DH         SYMBOL        num_char
  -------         DO            
  X:003EH         SYMBOL        j
  -------         ENDDO         
  C:A956H         LINE#         367
  C:A964H         LINE#         368
  C:A964H         LINE#         370
  C:A972H         LINE#         371
  C:A972H         LINE#         372
  C:A984H         LINE#         373
  C:A98EH         LINE#         374
  C:A996H         LINE#         375
  -------         ENDPROC       _MONITOR_CHR
  -------         PROC          _CMD_LPR_SALIDA_WIEGAND
  X:0010H         SYMBOL        buffer
  -------         DO            
  X:0013H         SYMBOL        Buffer_Lpr
  X:0031H         SYMBOL        j
  -------         ENDDO         
  C:86F4H         LINE#         380
  C:86FFH         LINE#         381
  C:86FFH         LINE#         383
  C:8705H         LINE#         384
  C:870AH         LINE#         385
  C:8712H         LINE#         386
  C:8716H         LINE#         387
  C:871FH         LINE#         388
  C:871FH         LINE#         389
  C:8730H         LINE#         390
  C:8732H         LINE#         392
  C:8732H         LINE#         393
  C:8743H         LINE#         394
BL51 BANKED LINKER/LOCATER V6.22.2.0                                                  10/09/2020  16:27:21  PAGE 27


  C:8743H         LINE#         398
  C:875AH         LINE#         399
  C:875AH         LINE#         400
  C:8769H         LINE#         401
  C:8773H         LINE#         403
  C:877BH         LINE#         404
  C:878FH         LINE#         406
  C:879FH         LINE#         407
  C:87B0H         LINE#         408
  C:87BDH         LINE#         412
  -------         ENDPROC       _CMD_LPR_SALIDA_WIEGAND
  -------         PROC          _CMD_LPR_SALIDA
  X:0015H         SYMBOL        buffer_S1_B0
  X:0018H         SYMBOL        buffer_S1_B
  -------         DO            
  X:001BH         SYMBOL        Buffer_Lpr
  X:0039H         SYMBOL        j
  -------         ENDDO         
  C:5F06H         LINE#         417
  C:5F11H         LINE#         418
  C:5F11H         LINE#         422
  C:5F17H         LINE#         423
  C:5F1CH         LINE#         424
  C:5F24H         LINE#         425
  C:5F28H         LINE#         429
  C:5F31H         LINE#         430
  C:5F31H         LINE#         431
  C:5F42H         LINE#         432
  C:5F44H         LINE#         434
  C:5F44H         LINE#         435
  C:5F55H         LINE#         436
  C:5F55H         LINE#         437
  C:5F6DH         LINE#         438
  C:5F6DH         LINE#         439
  C:5F82H         LINE#         440
  C:5F90H         LINE#         441
  C:5F9EH         LINE#         442
  C:5FAAH         LINE#         443
  C:5FB8H         LINE#         444
  C:5FF1H         LINE#         446
  C:5FF3H         LINE#         448
  C:5FF3H         LINE#         452
  C:5FF3H         LINE#         454
  C:6015H         LINE#         455
  C:601FH         LINE#         456
  C:602FH         LINE#         458
  C:6042H         LINE#         459
  C:6042H         LINE#         461
  C:6050H         LINE#         464
  C:605EH         LINE#         468
  C:606BH         LINE#         470
  C:6079H         LINE#         472
  C:608AH         LINE#         475
  C:609EH         LINE#         477
  -------         ENDPROC       _CMD_LPR_SALIDA
  -------         ENDMOD        ACCESCAN

BL51 BANKED LINKER/LOCATER V6.22.2.0                                                  10/09/2020  16:27:21  PAGE 28


  -------         MODULE        CLOCK
  C:0000H         SYMBOL        _ICE_DUMMY_
  C:A9CBH         PUBLIC        _two_one
  D:0090H         PUBLIC        P1
  C:7585H         PUBLIC        _validar_clk
  C:AC81H         PUBLIC        _wr_clk
  C:63A2H         PUBLIC        _check_fechaOut
  B:00D0H.7       PUBLIC        CY
  C:0003H         PUBLIC        p_ck
  C:8C63H         PUBLIC        _check_fechaOut_2
  C:9632H         PUBLIC        _hex_ascii
  X:02A3H         PUBLIC        data_clk
  C:AF5CH         PUBLIC        cond_ini_clock
  C:8961H         PUBLIC        _Block_read_Clock
  B:0090H.4       PUBLIC        sck
  C:9136H         PUBLIC        _Block_read_Clock_Hex
  C:6691H         PUBLIC        _Block_read_clock_ascii
  C:AAB1H         PUBLIC        _hex_bcd
  C:AE01H         PUBLIC        _bcd_hex
  C:A4A5H         PUBLIC        _ByteHex_Decimal
  C:987EH         PUBLIC        _lee_clk
  C:3092H         PUBLIC        _analiza_tiempo
  B:0090H.5       PUBLIC        io
  C:9904H         PUBLIC        _Block_write_clock_ascii
  B:0090H.6       PUBLIC        rst
  C:AA18H         PUBLIC        _eb_clk
  C:5B84H         PUBLIC        _Block_read_Clock_Rasberry
  C:492CH         PUBLIC        _Two_ByteHex_Decimal
  -------         PROC          P_CK
  C:0003H         LINE#         40
  C:0003H         LINE#         41
  C:0003H         LINE#         42
  C:0005H         LINE#         43
  C:0008H         LINE#         44
  C:000AH         LINE#         45
  -------         ENDPROC       P_CK
  -------         PROC          _EB_CLK
  X:00C8H         SYMBOL        dir_clk
  -------         DO            
  X:00C9H         SYMBOL        nbits
  -------         ENDDO         
  C:AA18H         LINE#         47
  C:AA1DH         LINE#         49
  C:AA22H         LINE#         50
  C:AA22H         LINE#         51
  C:AA2BH         LINE#         52
  C:AA2EH         LINE#         53
  C:AA2EH         LINE#         54
  C:AA30H         LINE#         55
  C:AA32H         LINE#         57
  C:AA32H         LINE#         58
  C:AA34H         LINE#         59
  C:AA34H         LINE#         60
  C:AA37H         LINE#         61
  C:AA56H         LINE#         62
  -------         ENDPROC       _EB_CLK
  C:9875H         SYMBOL        L?0180
BL51 BANKED LINKER/LOCATER V6.22.2.0                                                  10/09/2020  16:27:21  PAGE 29


  -------         PROC          L?0179
  -------         ENDPROC       L?0179
  C:9875H         SYMBOL        L?0180
  -------         PROC          _LEE_CLK
  X:00C5H         SYMBOL        dir_clk
  -------         DO            
  X:00C6H         SYMBOL        nbits
  -------         ENDDO         
  C:987EH         LINE#         64
  C:9883H         LINE#         66
  C:9885H         LINE#         67
  C:988CH         LINE#         68
  C:9894H         LINE#         69
  C:98ADH         LINE#         70
  C:98ADH         LINE#         71
  C:98B0H         LINE#         72
  C:98B0H         LINE#         73
  C:98B7H         LINE#         74
  C:98C1H         LINE#         75
  C:98C6H         LINE#         76
  C:98C6H         LINE#         77
  C:98C6H         LINE#         78
  C:98C9H         LINE#         79
  C:98C9H         LINE#         80
  C:98D0H         LINE#         81
  C:98E1H         LINE#         82
  C:98E1H         LINE#         83
  C:98E9H         LINE#         84
  C:98E9H         LINE#         85
  C:98E9H         LINE#         86
  C:98ECH         LINE#         87
  C:98FCH         LINE#         88
  C:98FEH         LINE#         89
  C:9903H         LINE#         90
  -------         ENDPROC       _LEE_CLK
  -------         PROC          _WR_CLK
  X:0013H         SYMBOL        dir_clk
  X:0014H         SYMBOL        byte
  C:AC81H         LINE#         92
  C:AC89H         LINE#         93
  C:AC8BH         LINE#         94
  C:AC92H         LINE#         95
  C:AC9AH         LINE#         96
  C:ACA3H         LINE#         97
  C:ACA6H         LINE#         98
  C:ACA8H         LINE#         100
  -------         ENDPROC       _WR_CLK
  C:A997H         SYMBOL        L?0175
  C:A9B5H         SYMBOL        L?0176
  -------         PROC          L?0174
  -------         ENDPROC       L?0174
  C:A997H         SYMBOL        L?0175
  C:A9B5H         SYMBOL        L?0176
  -------         PROC          _TWO_ONE
  D:0007H         SYMBOL        byte_h
  D:0005H         SYMBOL        byte_l
  -------         DO            
BL51 BANKED LINKER/LOCATER V6.22.2.0                                                  10/09/2020  16:27:21  PAGE 30


  D:0007H         SYMBOL        byte_out
  -------         ENDDO         
  C:A9CBH         LINE#         102
  C:A9CBH         LINE#         103
  C:A9CBH         LINE#         105
  C:A9CEH         LINE#         106
  C:A9D2H         LINE#         107
  C:A9D5H         LINE#         108
  C:A9D7H         LINE#         109
  C:A9D7H         LINE#         110
  -------         ENDPROC       _TWO_ONE
  -------         PROC          _VALIDAR_CLK
  D:0001H         SYMBOL        datos_clock
  -------         DO            
  D:0007H         SYMBOL        validador
  -------         ENDDO         
  C:7585H         LINE#         114
  C:7585H         LINE#         115
  C:7585H         LINE#         116
  C:7587H         LINE#         119
  C:759CH         LINE#         120
  C:759CH         LINE#         122
  C:75B4H         LINE#         123
  C:75B4H         LINE#         125
  C:75CCH         LINE#         126
  C:75CCH         LINE#         127
  C:75E4H         LINE#         128
  C:75E4H         LINE#         129
  C:75FCH         LINE#         130
  C:75FCH         LINE#         131
  C:7611H         LINE#         132
  C:7611H         LINE#         133
  C:7623H         LINE#         134
  C:7623H         LINE#         135
  C:7635H         LINE#         136
  C:7635H         LINE#         137
  C:7647H         LINE#         138
  C:7647H         LINE#         139
  C:7659H         LINE#         140
  C:7659H         LINE#         141
  C:766BH         LINE#         142
  C:766BH         LINE#         143
  C:767BH         LINE#         144
  C:767BH         LINE#         145
  C:767BH         LINE#         146
  C:767BH         LINE#         147
  C:767CH         LINE#         149
  C:767CH         LINE#         150
  C:767EH         LINE#         151
  C:767EH         LINE#         152
  C:767FH         LINE#         154
  C:767FH         LINE#         155
  C:7681H         LINE#         157
  C:7681H         LINE#         158
  C:7682H         LINE#         160
  C:7682H         LINE#         161
  C:7684H         LINE#         163
BL51 BANKED LINKER/LOCATER V6.22.2.0                                                  10/09/2020  16:27:21  PAGE 31


  C:7684H         LINE#         165
  C:7685H         LINE#         167
  C:7685H         LINE#         168
  C:7687H         LINE#         170
  C:7687H         LINE#         171
  C:7688H         LINE#         173
  C:7688H         LINE#         174
  C:768AH         LINE#         176
  C:768AH         LINE#         177
  C:768BH         LINE#         179
  C:768BH         LINE#         180
  C:768DH         LINE#         182
  C:768DH         LINE#         183
  C:768EH         LINE#         185
  C:768EH         LINE#         186
  C:7690H         LINE#         188
  C:7690H         LINE#         189
  C:7690H         LINE#         191
  C:7691H         LINE#         193
  C:7691H         LINE#         194
  C:7693H         LINE#         196
  C:7693H         LINE#         198
  C:7694H         LINE#         201
  C:7694H         LINE#         202
  C:7696H         LINE#         204
  C:7696H         LINE#         206
  C:7697H         LINE#         209
  C:7697H         LINE#         210
  C:7699H         LINE#         212
  C:7699H         LINE#         214
  C:7699H         LINE#         216
  -------         ENDPROC       _VALIDAR_CLK
  -------         PROC          _BLOCK_WRITE_CLOCK_ASCII
  X:0010H         SYMBOL        datos_clock
  C:9904H         LINE#         222
  C:990FH         LINE#         224
  C:990FH         LINE#         228
  C:9919H         LINE#         229
  C:9919H         LINE#         230
  C:9919H         LINE#         231
  C:9919H         LINE#         233
  C:9923H         LINE#         234
  C:992DH         LINE#         235
  C:9937H         LINE#         236
  C:9937H         LINE#         237
  C:9937H         LINE#         238
  C:9937H         LINE#         240
  C:9941H         LINE#         241
  C:9941H         LINE#         242
  C:9941H         LINE#         243
  C:9941H         LINE#         245
  C:994BH         LINE#         246
  C:994BH         LINE#         247
  C:994BH         LINE#         248
  C:994BH         LINE#         250
  C:9955H         LINE#         251
  C:9955H         LINE#         252
BL51 BANKED LINKER/LOCATER V6.22.2.0                                                  10/09/2020  16:27:21  PAGE 32


  C:9955H         LINE#         253
  C:9955H         LINE#         255
  C:995FH         LINE#         256
  C:9969H         LINE#         257
  C:9973H         LINE#         258
  C:997DH         LINE#         260
  -------         ENDPROC       _BLOCK_WRITE_CLOCK_ASCII
  -------         PROC          _BCD_HEX
  D:0007H         SYMBOL        l_data
  -------         DO            
  D:0006H         SYMBOL        temp
  D:0005H         SYMBOL        j
  -------         ENDDO         
  C:AE01H         LINE#         266
  C:AE01H         LINE#         267
  C:AE01H         LINE#         269
  C:AE03H         LINE#         270
  C:AE07H         LINE#         271
  C:AE0AH         LINE#         272
  C:AE0CH         LINE#         273
  C:AE0CH         LINE#         274
  C:AE10H         LINE#         275
  C:AE17H         LINE#         276
  C:AE17H         LINE#         277
  C:AE1BH         LINE#         278
  C:AE1EH         LINE#         279
  C:AE1EH         LINE#         280
  C:AE1EH         LINE#         281
  -------         ENDPROC       _BCD_HEX
  C:AAA2H         SYMBOL        L?0178
  -------         PROC          L?0177
  -------         ENDPROC       L?0177
  C:AAA2H         SYMBOL        L?0178
  -------         PROC          _HEX_BCD
  D:0007H         SYMBOL        byte
  -------         DO            
  D:0006H         SYMBOL        nibble_h
  D:0005H         SYMBOL        nibble_l
  D:0004H         SYMBOL        k
  D:0007H         SYMBOL        byte_out
  -------         ENDDO         
  C:AAB1H         LINE#         285
  C:AAB1H         LINE#         286
  C:AAB1H         LINE#         291
  C:AAB3H         LINE#         292
  C:AAB4H         LINE#         294
  C:AABAH         LINE#         295
  C:AABAH         LINE#         296
  C:AABBH         LINE#         297
  C:AAC0H         LINE#         298
  C:AAC0H         LINE#         299
  C:AAC1H         LINE#         300
  C:AAC2H         LINE#         301
  C:AAC2H         LINE#         302
  C:AAC5H         LINE#         303
  C:AAC9H         LINE#         304
  C:AACCH         LINE#         305
BL51 BANKED LINKER/LOCATER V6.22.2.0                                                  10/09/2020  16:27:21  PAGE 33


  C:AACFH         LINE#         306
  C:AAD1H         LINE#         307
  C:AAD1H         LINE#         309
  -------         ENDPROC       _HEX_BCD
  -------         PROC          _BYTEHEX_DECIMAL
  D:0001H         SYMBOL        buffer
  D:0005H         SYMBOL        valorhex
  -------         DO            
  X:003AH         SYMBOL        numero
  D:0007H         SYMBOL        centena
  D:0006H         SYMBOL        decena
  -------         ENDDO         
  C:A4A5H         LINE#         315
  C:A4A5H         LINE#         316
  C:A4A5H         LINE#         319
  C:A4A7H         LINE#         320
  C:A4A8H         LINE#         321
  C:A4ADH         LINE#         323
  C:A4BAH         LINE#         324
  C:A4BAH         LINE#         325
  C:A4BEH         LINE#         326
  C:A4BFH         LINE#         327
  C:A4C1H         LINE#         328
  C:A4C7H         LINE#         329
  C:A4CEH         LINE#         330
  C:A4DBH         LINE#         331
  C:A4DBH         LINE#         332
  C:A4DFH         LINE#         333
  C:A4E0H         LINE#         334
  C:A4E2H         LINE#         335
  C:A4E8H         LINE#         336
  C:A4EFH         LINE#         337
  C:A4F8H         LINE#         338
  C:A4FFH         LINE#         339
  -------         ENDPROC       _BYTEHEX_DECIMAL
  -------         PROC          _TWO_BYTEHEX_DECIMAL
  X:003AH         SYMBOL        buffer
  X:003DH         SYMBOL        id_h
  X:003EH         SYMBOL        id_l
  -------         DO            
  X:003FH         SYMBOL        valor
  D:0006H         SYMBOL        numero
  X:0041H         SYMBOL        temp
  X:0042H         SYMBOL        dmil
  X:0043H         SYMBOL        mil
  X:0044H         SYMBOL        centena
  X:0045H         SYMBOL        decena
  -------         ENDDO         
  C:492CH         LINE#         346
  C:493AH         LINE#         347
  C:493AH         LINE#         351
  C:4941H         LINE#         352
  C:4945H         LINE#         353
  C:4947H         LINE#         354
  C:4949H         LINE#         355
  C:494BH         LINE#         358
  C:4950H         LINE#         359
BL51 BANKED LINKER/LOCATER V6.22.2.0                                                  10/09/2020  16:27:21  PAGE 34


  C:4953H         LINE#         360
  C:4959H         LINE#         362
  C:49B4H         LINE#         363
  C:49BCH         LINE#         364
  C:49BFH         LINE#         365
  C:4A1AH         LINE#         367
  C:4A22H         LINE#         368
  C:4A25H         LINE#         369
  C:4A2BH         LINE#         370
  C:4A86H         LINE#         371
  C:4A8EH         LINE#         372
  C:4A91H         LINE#         373
  C:4AECH         LINE#         374
  C:4AECH         LINE#         376
  C:4AF5H         LINE#         377
  C:4AF5H         LINE#         378
  C:4AFDH         LINE#         379
  C:4B03H         LINE#         380
  C:4B05H         LINE#         381
  C:4B1BH         LINE#         382
  C:4B25H         LINE#         383
  C:4B2EH         LINE#         384
  C:4B2EH         LINE#         385
  C:4B36H         LINE#         386
  C:4B3CH         LINE#         387
  C:4B3EH         LINE#         388
  C:4B54H         LINE#         389
  C:4B5EH         LINE#         390
  C:4B67H         LINE#         391
  C:4B67H         LINE#         392
  C:4B6FH         LINE#         393
  C:4B75H         LINE#         394
  C:4B77H         LINE#         395
  C:4B8DH         LINE#         396
  C:4B97H         LINE#         397
  C:4BA0H         LINE#         398
  C:4BA0H         LINE#         399
  C:4BA8H         LINE#         400
  C:4BAEH         LINE#         401
  C:4BB0H         LINE#         402
  C:4BC6H         LINE#         403
  C:4BD0H         LINE#         404
  C:4BE3H         LINE#         405
  C:4BEDH         LINE#         406
  -------         ENDPROC       _TWO_BYTEHEX_DECIMAL
  -------         PROC          _BLOCK_READ_CLOCK_ASCII
  X:0065H         SYMBOL        datos_clock
  -------         DO            
  D:0007H         SYMBOL        dato
  -------         ENDDO         
  C:6691H         LINE#         412
  C:669CH         LINE#         413
  C:669CH         LINE#         419
  C:66A1H         LINE#         420
  C:66B9H         LINE#         421
  C:66C3H         LINE#         422
  C:66D8H         LINE#         423
BL51 BANKED LINKER/LOCATER V6.22.2.0                                                  10/09/2020  16:27:21  PAGE 35


  C:66E2H         LINE#         426
  C:66E7H         LINE#         427
  C:66FFH         LINE#         428
  C:6709H         LINE#         429
  C:671EH         LINE#         430
  C:6721H         LINE#         433
  C:6724H         LINE#         434
  C:673CH         LINE#         435
  C:6746H         LINE#         436
  C:675BH         LINE#         437
  C:6765H         LINE#         441
  C:676AH         LINE#         442
  C:6782H         LINE#         443
  C:678CH         LINE#         444
  C:67A1H         LINE#         445
  C:67ABH         LINE#         448
  C:67B0H         LINE#         449
  C:67C8H         LINE#         450
  C:67D2H         LINE#         451
  C:67E7H         LINE#         452
  C:67F1H         LINE#         453
  -------         ENDPROC       _BLOCK_READ_CLOCK_ASCII
  -------         PROC          _BLOCK_READ_CLOCK_HEX
  X:00C2H         SYMBOL        datos_clock
  C:9136H         LINE#         456
  C:9141H         LINE#         457
  C:9141H         LINE#         460
  C:9158H         LINE#         461
  C:9162H         LINE#         463
  C:9179H         LINE#         464
  C:917CH         LINE#         466
  C:9191H         LINE#         467
  C:919BH         LINE#         469
  C:91B2H         LINE#         470
  C:91BCH         LINE#         472
  C:91D3H         LINE#         473
  -------         ENDPROC       _BLOCK_READ_CLOCK_HEX
  -------         PROC          _HEX_ASCII
  X:0071H         SYMBOL        datos
  X:0074H         SYMBOL        fecha_asii
  -------         DO            
  D:0007H         SYMBOL        dato
  -------         ENDDO         
  C:9632H         LINE#         476
  C:963DH         LINE#         477
  C:963DH         LINE#         481
  C:9640H         LINE#         482
  C:9658H         LINE#         483
  C:966DH         LINE#         484
  C:966DH         LINE#         486
  C:9670H         LINE#         487
  C:968BH         LINE#         488
  C:9693H         LINE#         489
  C:9693H         LINE#         491
  C:9696H         LINE#         492
  C:96B1H         LINE#         493
  C:96BCH         LINE#         495
BL51 BANKED LINKER/LOCATER V6.22.2.0                                                  10/09/2020  16:27:21  PAGE 36


  -------         ENDPROC       _HEX_ASCII
  -------         PROC          _BLOCK_READ_CLOCK_RASBERRY
  X:0024H         SYMBOL        datos_clock
  -------         DO            
  D:0007H         SYMBOL        dato
  -------         ENDDO         
  C:5B84H         LINE#         499
  C:5B8FH         LINE#         500
  C:5B8FH         LINE#         504
  C:5B94H         LINE#         505
  C:5BACH         LINE#         506
  C:5BB6H         LINE#         507
  C:5BCBH         LINE#         508
  C:5BCEH         LINE#         511
  C:5BD1H         LINE#         512
  C:5BE9H         LINE#         513
  C:5BF3H         LINE#         514
  C:5C08H         LINE#         515
  C:5C12H         LINE#         519
  C:5C17H         LINE#         520
  C:5C2FH         LINE#         521
  C:5C39H         LINE#         522
  C:5C4EH         LINE#         523
  C:5C58H         LINE#         526
  C:5C5DH         LINE#         527
  C:5C75H         LINE#         528
  C:5C7FH         LINE#         529
  C:5C94H         LINE#         530
  C:5C9EH         LINE#         533
  C:5CA3H         LINE#         534
  C:5CBBH         LINE#         535
  C:5CC5H         LINE#         536
  C:5CDAH         LINE#         537
  C:5CE4H         LINE#         539
  C:5CF4H         LINE#         540
  C:5CFEH         LINE#         542
  C:5D03H         LINE#         543
  C:5D1BH         LINE#         544
  C:5D25H         LINE#         545
  C:5D3AH         LINE#         546
  C:5D44H         LINE#         547
  -------         ENDPROC       _BLOCK_READ_CLOCK_RASBERRY
  -------         PROC          _BLOCK_READ_CLOCK
  X:0024H         SYMBOL        datos_clock
  C:8961H         LINE#         554
  C:896CH         LINE#         555
  C:896CH         LINE#         557
  C:8980H         LINE#         558
  C:898AH         LINE#         560
  C:899EH         LINE#         561
  C:89A1H         LINE#         563
  C:89B3H         LINE#         564
  C:89BDH         LINE#         566
  C:89D1H         LINE#         567
  C:89DBH         LINE#         569
  C:89EFH         LINE#         570
  C:89F9H         LINE#         572
BL51 BANKED LINKER/LOCATER V6.22.2.0                                                  10/09/2020  16:27:21  PAGE 37


  C:8A0DH         LINE#         573
  C:8A17H         LINE#         574
  -------         ENDPROC       _BLOCK_READ_CLOCK
  -------         PROC          COND_INI_CLOCK
  C:AF5CH         LINE#         577
  C:AF5CH         LINE#         578
  C:AF5CH         LINE#         579
  C:AF5EH         LINE#         580
  C:AF60H         LINE#         581
  C:AF62H         LINE#         582
  -------         ENDPROC       COND_INI_CLOCK
  -------         PROC          _CHECK_FECHAOUT
  X:0013H         SYMBOL        buffer
  -------         DO            
  X:0016H         SYMBOL        temp
  X:0017H         SYMBOL        datos_clk
  -------         ENDDO         
  C:63A2H         LINE#         592
  C:63ADH         LINE#         593
  C:63ADH         LINE#         594
  C:63B1H         LINE#         600
  C:63FAH         LINE#         601
  C:63FAH         LINE#         603
  C:63FFH         LINE#         605
  C:6402H         LINE#         607
  C:6402H         LINE#         609
  C:640BH         LINE#         611
  C:6413H         LINE#         612
  C:6413H         LINE#         613
  C:641CH         LINE#         615
  C:641CH         LINE#         618
  C:643FH         LINE#         619
  C:643FH         LINE#         620
  C:643FH         LINE#         621
  C:6442H         LINE#         622
  C:644CH         LINE#         623
  C:644CH         LINE#         624
  C:6472H         LINE#         625
  C:6472H         LINE#         626
  C:6472H         LINE#         627
  C:6475H         LINE#         628
  C:647FH         LINE#         629
  C:647FH         LINE#         630
  C:64A5H         LINE#         631
  C:64A5H         LINE#         632
  C:64A5H         LINE#         633
  C:64A7H         LINE#         634
  C:64AEH         LINE#         635
  C:64AEH         LINE#         636
  C:64D4H         LINE#         637
  C:64D4H         LINE#         638
  C:64D4H         LINE#         639
  C:64D6H         LINE#         640
  C:64DDH         LINE#         641
  C:64DDH         LINE#         642
  C:6502H         LINE#         643
  C:6502H         LINE#         644
BL51 BANKED LINKER/LOCATER V6.22.2.0                                                  10/09/2020  16:27:21  PAGE 38


  C:6507H         LINE#         645
  C:6509H         LINE#         653
  C:6509H         LINE#         654
  C:6509H         LINE#         655
  C:6509H         LINE#         656
  C:650BH         LINE#         658
  C:650BH         LINE#         659
  C:650BH         LINE#         660
  C:650BH         LINE#         661
  C:650DH         LINE#         663
  C:650DH         LINE#         664
  C:650DH         LINE#         665
  C:650DH         LINE#         666
  C:650FH         LINE#         668
  C:650FH         LINE#         669
  C:6515H         LINE#         671
  C:6515H         LINE#         673
  C:6515H         LINE#         674
  C:651AH         LINE#         675
  -------         ENDPROC       _CHECK_FECHAOUT
  -------         PROC          _CHECK_FECHAOUT_2
  X:00B0H         SYMBOL        buffer
  -------         DO            
  X:00B3H         SYMBOL        fecha_inicio
  X:00B7H         SYMBOL        fecha_fin
  X:00BBH         SYMBOL        datos_clk
  X:00C1H         SYMBOL        temp
  -------         ENDDO         
  C:8C63H         LINE#         676
  C:8C6EH         LINE#         677
  C:8C6EH         LINE#         683
  C:8C77H         LINE#         684
  C:8CA6H         LINE#         685
  C:8CEBH         LINE#         688
  C:8D0BH         LINE#         689
  C:8D0BH         LINE#         690
  C:8D11H         LINE#         691
  C:8D13H         LINE#         693
  C:8D13H         LINE#         694
  C:8D18H         LINE#         695
  C:8D18H         LINE#         699
  C:8D1DH         LINE#         700
  -------         ENDPROC       _CHECK_FECHAOUT_2
  -------         PROC          _ANALIZA_TIEMPO
  X:0011H         SYMBOL        buffer
  X:0014H         SYMBOL        Val_DctoMinutos
  -------         DO            
  X:0016H         SYMBOL        ano_inT
  B:0020H.0       SYMBOL        bisiesto
  X:0018H         SYMBOL        ano_out
  X:0019H         SYMBOL        mes_out
  X:001AH         SYMBOL        dia_out
  X:001BH         SYMBOL        hora_out
  X:001CH         SYMBOL        min_out
  X:001DH         SYMBOL        Horas_Dcto
  X:001EH         SYMBOL        Minutos_Dcto
  X:001FH         SYMBOL        Xtemp
BL51 BANKED LINKER/LOCATER V6.22.2.0                                                  10/09/2020  16:27:21  PAGE 39


  B:0020H.1       SYMBOL        Tiempo_Dcto
  -------         ENDDO         
  C:3092H         LINE#         702
  C:30A5H         LINE#         703
  C:30A5H         LINE#         707
  C:30A7H         LINE#         712
  C:30A9H         LINE#         714
  C:3104H         LINE#         715
  C:3104H         LINE#         720
  C:3116H         LINE#         721
  C:3116H         LINE#         722
  C:3126H         LINE#         723
  C:3130H         LINE#         725
  C:3132H         LINE#         727
  C:3132H         LINE#         728
  C:3138H         LINE#         729
  C:313DH         LINE#         730
  C:313DH         LINE#         734
  C:3147H         LINE#         735
  C:3147H         LINE#         736
  C:315FH         LINE#         737
  C:316BH         LINE#         738
  C:316BH         LINE#         740
  C:3175H         LINE#         741
  C:3183H         LINE#         743
  C:3190H         LINE#         744
  C:319CH         LINE#         745
  C:319CH         LINE#         746
  C:31A6H         LINE#         747
  C:31B4H         LINE#         749
  C:31C1H         LINE#         750
  C:31F6H         LINE#         751
  C:31F6H         LINE#         752
  C:3203H         LINE#         753
  C:3203H         LINE#         754
  C:3207H         LINE#         755
  C:321DH         LINE#         756
  C:3226H         LINE#         757
  C:3226H         LINE#         758
  C:322EH         LINE#         759
  C:3232H         LINE#         760
  C:3235H         LINE#         767
  C:3235H         LINE#         768
  C:324AH         LINE#         769
  C:324AH         LINE#         770
  C:324AH         LINE#         771
  C:324DH         LINE#         772
  C:327BH         LINE#         773
  C:327BH         LINE#         774
  C:3288H         LINE#         775
  C:3288H         LINE#         776
  C:328CH         LINE#         777
  C:3293H         LINE#         778
  C:3293H         LINE#         779
  C:3295H         LINE#         781
  C:3295H         LINE#         782
  C:329FH         LINE#         783
BL51 BANKED LINKER/LOCATER V6.22.2.0                                                  10/09/2020  16:27:21  PAGE 40


  C:329FH         LINE#         784
  C:329FH         LINE#         786
  C:32A2H         LINE#         787
  C:32C1H         LINE#         788
  C:32C1H         LINE#         790
  C:32D8H         LINE#         791
  C:32DAH         LINE#         831
  C:3303H         LINE#         832
  C:3303H         LINE#         833
  C:3305H         LINE#         834
  C:3305H         LINE#         836
  C:3308H         LINE#         837
  C:3308H         LINE#         838
  C:3321H         LINE#         839
  C:3321H         LINE#         840
  C:3328H         LINE#         841
  C:332FH         LINE#         842
  C:3336H         LINE#         844
  C:3338H         LINE#         846
  C:3338H         LINE#         847
  C:333FH         LINE#         848
  C:3344H         LINE#         849
  C:334EH         LINE#         850
  C:334EH         LINE#         851
  C:3351H         LINE#         853
  C:3351H         LINE#         854
  C:335FH         LINE#         855
  C:335FH         LINE#         856
  C:3363H         LINE#         857
  C:3375H         LINE#         858
  C:3375H         LINE#         859
  C:3377H         LINE#         861
  C:3377H         LINE#         862
  C:337CH         LINE#         863
  C:3391H         LINE#         864
  C:3391H         LINE#         865
  C:3391H         LINE#         866
  C:3391H         LINE#         868
  C:3394H         LINE#         870
  C:3394H         LINE#         871
  C:3399H         LINE#         872
  C:33AEH         LINE#         873
  C:33AEH         LINE#         874
  C:33AEH         LINE#         875
  C:33B1H         LINE#         877
  C:33B1H         LINE#         878
  C:33C6H         LINE#         879
  C:33D0H         LINE#         880
  C:33D0H         LINE#         881
  C:33D0H         LINE#         882
  C:33D2H         LINE#         884
  C:33D2H         LINE#         885
  C:33E7H         LINE#         886
  C:33F1H         LINE#         887
  C:33FBH         LINE#         888
  C:33FBH         LINE#         889
  C:33FBH         LINE#         890
BL51 BANKED LINKER/LOCATER V6.22.2.0                                                  10/09/2020  16:27:21  PAGE 41


  C:33FDH         LINE#         892
  C:33FDH         LINE#         893
  C:3412H         LINE#         894
  C:341CH         LINE#         895
  C:3426H         LINE#         896
  C:3430H         LINE#         897
  C:3437H         LINE#         898
  C:3437H         LINE#         902
  C:3441H         LINE#         903
  C:3441H         LINE#         904
  C:3447H         LINE#         905
  C:3455H         LINE#         906
  C:3455H         LINE#         907
  C:345EH         LINE#         908
  C:346CH         LINE#         910
  C:3472H         LINE#         911
  C:3499H         LINE#         912
  C:3499H         LINE#         913
  C:34A9H         LINE#         914
  C:34A9H         LINE#         915
  C:34ADH         LINE#         916
  C:34B3H         LINE#         917
  C:34C1H         LINE#         918
  C:34C1H         LINE#         919
  C:34C3H         LINE#         920
  C:34C7H         LINE#         921
  C:34CAH         LINE#         923
  C:34CAH         LINE#         924
  C:34CBH         LINE#         925
  C:34CBH         LINE#         926
  C:34CBH         LINE#         927
  C:34CEH         LINE#         928
  C:34E6H         LINE#         929
  C:34E6H         LINE#         930
  C:34F3H         LINE#         931
  C:34F3H         LINE#         932
  C:34F7H         LINE#         933
  C:34FCH         LINE#         934
  C:34FCH         LINE#         935
  C:34FFH         LINE#         937
  C:34FFH         LINE#         938
  C:3503H         LINE#         939
  C:3503H         LINE#         940
  C:3503H         LINE#         941
  C:3505H         LINE#         942
  C:350EH         LINE#         943
  C:350EH         LINE#         945
  C:3523H         LINE#         946
  C:3525H         LINE#         979
  C:3544H         LINE#         980
  C:3544H         LINE#         981
  C:3546H         LINE#         982
  C:3546H         LINE#         985
  C:3549H         LINE#         986
  C:3549H         LINE#         987
  C:3557H         LINE#         988
  C:3557H         LINE#         989
BL51 BANKED LINKER/LOCATER V6.22.2.0                                                  10/09/2020  16:27:21  PAGE 42


  C:355BH         LINE#         990
  C:3560H         LINE#         991
  C:3560H         LINE#         992
  C:3562H         LINE#         994
  C:3562H         LINE#         995
  C:3567H         LINE#         996
  C:356BH         LINE#         997
  C:356BH         LINE#         998
  C:356BH         LINE#         999
  C:356DH         LINE#         1001
  C:356DH         LINE#         1002
  C:357AH         LINE#         1003
  C:357AH         LINE#         1004
  C:357EH         LINE#         1005
  C:3584H         LINE#         1006
  C:3589H         LINE#         1007
  C:3589H         LINE#         1008
  C:3589H         LINE#         1010
  C:3589H         LINE#         1012
  C:3589H         LINE#         1013
  C:3589H         LINE#         1016
  C:35A0H         LINE#         1017
  C:35AAH         LINE#         1018
  C:35B4H         LINE#         1019
  C:35BEH         LINE#         1020
  C:35C8H         LINE#         1022
  C:35C8H         LINE#         1025
  -------         ENDPROC       _ANALIZA_TIEMPO
  -------         ENDMOD        CLOCK

  -------         MODULE        DELAY
  C:0000H         SYMBOL        _ICE_DUMMY_
  C:AB86H         PUBLIC        _Delay_10ms
  C:AE99H         PUBLIC        _Delay_20us
  C:AE3CH         PUBLIC        _Delay_1ms
  C:AFA5H         PUBLIC        Delay
  -------         PROC          _DELAY_20US
  D:0006H         SYMBOL        cnt
  -------         DO            
  D:0004H         SYMBOL        i
  -------         ENDDO         
  C:AE99H         LINE#         20
  C:AE99H         LINE#         21
  C:AE99H         LINE#         24
  C:AEA3H         LINE#         26
  C:AEAAH         LINE#         27
  -------         ENDPROC       _DELAY_20US
  -------         PROC          _DELAY_1MS
  D:0002H         SYMBOL        cnt
  -------         DO            
  D:0082H         SYMBOL        i
  -------         ENDDO         
  C:AE3CH         LINE#         38
  C:AE40H         LINE#         39
  C:AE40H         LINE#         41
  C:AE56H         LINE#         42
  -------         ENDPROC       _DELAY_1MS
BL51 BANKED LINKER/LOCATER V6.22.2.0                                                  10/09/2020  16:27:21  PAGE 43


  -------         PROC          _DELAY_10MS
  X:0012H         SYMBOL        cnt
  -------         DO            
  X:0014H         SYMBOL        i
  -------         ENDDO         
  C:AB86H         LINE#         54
  C:AB8EH         LINE#         55
  C:AB8EH         LINE#         57
  C:ABBFH         LINE#         58
  -------         ENDPROC       _DELAY_10MS
  -------         PROC          DELAY
  C:AFA5H         LINE#         60
  C:AFA5H         LINE#         62
  -------         ENDPROC       DELAY
  -------         ENDMOD        DELAY

  -------         MODULE        EEPROM
  C:0000H         SYMBOL        _ICE_DUMMY_
  D:0090H         PUBLIC        P1
  C:A22BH         PUBLIC        _EscribirMemoria
  X:0298H         PUBLIC        l_chr
  C:AD67H         PUBLIC        ackd
  B:0021H.6       PUBLIC        memory_flag
  B:00D0H.7       PUBLIC        CY
  C:AF8DH         PUBLIC        p_me
  C:A5B2H         PUBLIC        variable_inicio
  C:AEB3H         PUBLIC        start
  B:0090H.2       PUBLIC        sda
  C:AD87H         PUBLIC        ack_lect
  B:0090H.3       PUBLIC        scl
  C:AAD6H         PUBLIC        _rd_eeprom
  C:AF4AH         PUBLIC        stop
  X:0299H         PUBLIC        l_data_eeprom
  C:A573H         PUBLIC        _wr_eeprom
  C:A3DDH         PUBLIC        _LeerMemoria
  X:029AH         PUBLIC        byte_rd
  C:AD42H         PUBLIC        _e_d_m
  C:A608H         PUBLIC        l_d_m
  -------         PROC          L?0048
  -------         ENDPROC       L?0048
  -------         PROC          ACKD
  -------         DO            
  D:0006H         SYMBOL        i
  -------         ENDDO         
  C:AD67H         LINE#         44
  C:AD67H         LINE#         45
  C:AD67H         LINE#         47
  C:AD69H         LINE#         48
  C:AD6BH         LINE#         49
  C:AD6DH         LINE#         50
  C:AD70H         LINE#         51
  C:AD70H         LINE#         52
  C:AD73H         LINE#         53
  C:AD73H         LINE#         54
  C:AD75H         LINE#         55
  C:AD77H         LINE#         57
  C:AD78H         LINE#         58
BL51 BANKED LINKER/LOCATER V6.22.2.0                                                  10/09/2020  16:27:21  PAGE 44


  C:AD78H         LINE#         59
  C:AD83H         LINE#         61
  C:AD83H         LINE#         62
  C:AD83H         LINE#         64
  C:AD83H         LINE#         65
  -------         ENDPROC       ACKD
  -------         PROC          L?0050
  -------         ENDPROC       L?0050
  -------         PROC          ACK_LECT
  -------         DO            
  D:0006H         SYMBOL        i
  -------         ENDDO         
  C:AD87H         LINE#         68
  C:AD87H         LINE#         69
  C:AD87H         LINE#         71
  C:AD89H         LINE#         72
  C:AD8BH         LINE#         73
  C:AD8DH         LINE#         74
  C:AD90H         LINE#         75
  C:AD90H         LINE#         76
  C:AD93H         LINE#         77
  C:AD93H         LINE#         78
  C:AD95H         LINE#         79
  C:AD97H         LINE#         80
  C:AD98H         LINE#         81
  C:AD98H         LINE#         82
  C:ADA3H         LINE#         83
  -------         ENDPROC       ACK_LECT
  -------         PROC          P_ME
  C:AF8DH         LINE#         85
  C:AF8DH         LINE#         86
  C:AF8DH         LINE#         87
  C:AF8FH         LINE#         88
  C:AF90H         LINE#         89
  C:AF92H         LINE#         90
  -------         ENDPROC       P_ME
  -------         PROC          _E_D_M
  D:0007H         SYMBOL        a_serial_eeprom
  -------         DO            
  D:0006H         SYMBOL        nbits
  -------         ENDDO         
  C:AD42H         LINE#         92
  C:AD42H         LINE#         93
  C:AD42H         LINE#         95
  C:AD4EH         LINE#         96
  C:AD4EH         LINE#         97
  C:AD52H         LINE#         98
  C:AD55H         LINE#         99
  C:AD55H         LINE#         100
  C:AD57H         LINE#         101
  C:AD59H         LINE#         103
  C:AD59H         LINE#         104
  C:AD5BH         LINE#         105
  C:AD5BH         LINE#         106
  C:AD5DH         LINE#         107
  C:AD60H         LINE#         108
  C:AD63H         LINE#         110
BL51 BANKED LINKER/LOCATER V6.22.2.0                                                  10/09/2020  16:27:21  PAGE 45


  -------         ENDPROC       _E_D_M
  -------         PROC          L?0049
  -------         ENDPROC       L?0049
  -------         PROC          START
  C:AEB3H         LINE#         112
  C:AEB3H         LINE#         113
  C:AEB3H         LINE#         114
  C:AEB5H         LINE#         115
  C:AEB7H         LINE#         116
  C:AEB8H         LINE#         117
  C:AEBAH         LINE#         118
  C:AEBCH         LINE#         120
  -------         ENDPROC       START
  -------         PROC          STOP
  C:AF4AH         LINE#         122
  C:AF4AH         LINE#         123
  C:AF4AH         LINE#         124
  C:AF4CH         LINE#         125
  C:AF4EH         LINE#         126
  C:AF50H         LINE#         127
  C:AF52H         LINE#         129
  -------         ENDPROC       STOP
  -------         PROC          L_D_M
  -------         DO            
  D:0003H         SYMBOL        nbits
  -------         ENDDO         
  C:A608H         LINE#         131
  C:A608H         LINE#         132
  C:A608H         LINE#         134
  C:A615H         LINE#         135
  C:A615H         LINE#         136
  C:A617H         LINE#         137
  C:A61AH         LINE#         138
  C:A61AH         LINE#         139
  C:A621H         LINE#         140
  C:A62AH         LINE#         141
  C:A62AH         LINE#         142
  C:A62EH         LINE#         143
  C:A630H         LINE#         144
  C:A630H         LINE#         145
  C:A630H         LINE#         146
  C:A633H         LINE#         147
  C:A633H         LINE#         148
  C:A63AH         LINE#         149
  C:A644H         LINE#         150
  C:A644H         LINE#         151
  C:A648H         LINE#         152
  C:A64AH         LINE#         153
  C:A64AH         LINE#         154
  C:A64AH         LINE#         155
  C:A64DH         LINE#         156
  C:A64FH         LINE#         157
  C:A654H         LINE#         158
  -------         ENDPROC       L_D_M
  -------         PROC          L?0045
  -------         ENDPROC       L?0045
  -------         PROC          _WR_EEPROM
BL51 BANKED LINKER/LOCATER V6.22.2.0                                                  10/09/2020  16:27:21  PAGE 46


  D:0002H         SYMBOL        control
  D:0004H         SYMBOL        Dir
  D:0003H         SYMBOL        data_eeprom
  -------         DO            
  D:0005H         SYMBOL        dir_h
  D:0001H         SYMBOL        dir_l
  -------         ENDDO         
  C:A573H         LINE#         164
  C:A575H         LINE#         165
  C:A575H         LINE#         167
  C:A579H         LINE#         168
  C:A579H         LINE#         169
  C:A579H         LINE#         172
  C:A579H         LINE#         173
  C:A579H         LINE#         175
  C:A57CH         LINE#         176
  C:A57EH         LINE#         177
  C:A581H         LINE#         178
  C:A583H         LINE#         179
  C:A586H         LINE#         180
  C:A58BH         LINE#         181
  C:A58EH         LINE#         182
  C:A593H         LINE#         183
  C:A596H         LINE#         184
  C:A599H         LINE#         185
  C:A5A0H         LINE#         187
  C:A5A2H         LINE#         188
  C:A5A4H         LINE#         189
  C:A5ABH         LINE#         190
  -------         ENDPROC       _WR_EEPROM
  C:AAD2H         SYMBOL        L?0047
  -------         PROC          L?0046
  -------         ENDPROC       L?0046
  C:AAD2H         SYMBOL        L?0047
  -------         PROC          _RD_EEPROM
  D:0003H         SYMBOL        control
  D:0004H         SYMBOL        Dir
  -------         DO            
  D:0005H         SYMBOL        dir_h
  D:0002H         SYMBOL        dir_l
  -------         ENDDO         
  C:AAD6H         LINE#         228
  C:AAD8H         LINE#         229
  C:AAD8H         LINE#         232
  C:AADCH         LINE#         233
  C:AADCH         LINE#         234
  C:AADCH         LINE#         236
  C:AADCH         LINE#         237
  C:AADCH         LINE#         239
  C:AADFH         LINE#         240
  C:AAE1H         LINE#         241
  C:AAE4H         LINE#         242
  C:AAE6H         LINE#         243
  C:AAE9H         LINE#         244
  C:AAEEH         LINE#         245
  C:AAF1H         LINE#         246
  C:AAF4H         LINE#         247
BL51 BANKED LINKER/LOCATER V6.22.2.0                                                  10/09/2020  16:27:21  PAGE 47


  C:AAFAH         LINE#         248
  C:AAFDH         LINE#         249
  C:AAFFH         LINE#         250
  C:AB02H         LINE#         251
  C:AB05H         LINE#         252
  C:AB07H         LINE#         253
  C:AB09H         LINE#         254
  C:AB0EH         LINE#         255
  -------         ENDPROC       _RD_EEPROM
  -------         PROC          VARIABLE_INICIO
  C:A5B2H         LINE#         259
  C:A5B2H         LINE#         260
  C:A5B2H         LINE#         262
  C:A5C2H         LINE#         263
  C:A5CFH         LINE#         264
  C:A5DCH         LINE#         265
  C:A5E9H         LINE#         266
  C:A5F3H         LINE#         268
  C:A5FDH         LINE#         269
  C:A607H         LINE#         270
  -------         ENDPROC       VARIABLE_INICIO
  -------         PROC          _LEERMEMORIA
  X:00B0H         SYMBOL        addres
  X:00B2H         SYMBOL        res
  -------         DO            
  D:0007H         SYMBOL        i
  -------         ENDDO         
  C:A3DDH         LINE#         274
  C:A3EEH         LINE#         275
  C:A3EEH         LINE#         277
  C:A3EEH         LINE#         278
  C:A40AH         LINE#         279
  C:A419H         LINE#         280
  C:A427H         LINE#         281
  C:A431H         LINE#         282
  C:A434H         LINE#         283
  -------         ENDPROC       _LEERMEMORIA
  -------         PROC          _ESCRIBIRMEMORIA
  X:0071H         SYMBOL        addres
  X:0073H         SYMBOL        res
  C:A22BH         LINE#         285
  C:A23CH         LINE#         286
  C:A23CH         LINE#         289
  C:A24CH         LINE#         290
  C:A253H         LINE#         291
  C:A256H         LINE#         293
  C:A264H         LINE#         294
  C:A26EH         LINE#         295
  C:A270H         LINE#         296
  C:A273H         LINE#         297
  C:A281H         LINE#         298
  C:A28BH         LINE#         299
  -------         ENDPROC       _ESCRIBIRMEMORIA
  -------         ENDMOD        EEPROM

  -------         MODULE        IO_SENSORES
  C:0000H         SYMBOL        _ICE_DUMMY_
BL51 BANKED LINKER/LOCATER V6.22.2.0                                                  10/09/2020  16:27:21  PAGE 48


  D:0090H         PUBLIC        P1
  D:00B0H         PUBLIC        P3
  C:A8D1H         PUBLIC        Dir_board
  B:0090H.1       PUBLIC        DataIn
  C:AEBDH         PUBLIC        Dir_Board_Monitor
  C:AF6AH         PUBLIC        sel_Auto
  C:A145H         PUBLIC        ValidaSensoresPaso
  B:00B0H.3       PUBLIC        busy
  C:ADC3H         PUBLIC        ValidaSensores_Out
  C:ADA4H         PUBLIC        ValidaSensor
  C:AF78H         PUBLIC        sel_Sensor1
  C:AF71H         PUBLIC        sel_Sensor2
  B:00B0H.5       PUBLIC        sel_A
  B:00B0H.6       PUBLIC        sel_B
  B:00B0H.7       PUBLIC        sel_C
  C:9E52H         PUBLIC        msj_lcd_informativo
  C:AF7FH         PUBLIC        sel_Dir1
  C:AF86H         PUBLIC        sel_Dir2
  C:AF63H         PUBLIC        sel_Funcion
  -------         PROC          SEL_FUNCION
  C:AF63H         LINE#         31
  C:AF63H         LINE#         32
  C:AF63H         LINE#         33
  C:AF65H         LINE#         34
  C:AF67H         LINE#         35
  C:AF69H         LINE#         36
  -------         ENDPROC       SEL_FUNCION
  -------         PROC          SEL_AUTO
  C:AF6AH         LINE#         38
  C:AF6AH         LINE#         39
  C:AF6AH         LINE#         40
  C:AF6CH         LINE#         41
  C:AF6EH         LINE#         42
  C:AF70H         LINE#         43
  -------         ENDPROC       SEL_AUTO
  -------         PROC          SEL_SENSOR2
  C:AF71H         LINE#         54
  C:AF71H         LINE#         55
  C:AF71H         LINE#         56
  C:AF73H         LINE#         57
  C:AF75H         LINE#         58
  C:AF77H         LINE#         59
  -------         ENDPROC       SEL_SENSOR2
  -------         PROC          SEL_SENSOR1
  C:AF78H         LINE#         61
  C:AF78H         LINE#         62
  C:AF78H         LINE#         63
  C:AF7AH         LINE#         64
  C:AF7CH         LINE#         65
  C:AF7EH         LINE#         66
  -------         ENDPROC       SEL_SENSOR1
  -------         PROC          SEL_DIR1
  C:AF7FH         LINE#         68
  C:AF7FH         LINE#         69
  C:AF7FH         LINE#         70
  C:AF81H         LINE#         71
  C:AF83H         LINE#         72
BL51 BANKED LINKER/LOCATER V6.22.2.0                                                  10/09/2020  16:27:21  PAGE 49


  C:AF85H         LINE#         73
  -------         ENDPROC       SEL_DIR1
  -------         PROC          SEL_DIR2
  C:AF86H         LINE#         75
  C:AF86H         LINE#         76
  C:AF86H         LINE#         77
  C:AF88H         LINE#         78
  C:AF8AH         LINE#         79
  C:AF8CH         LINE#         80
  -------         ENDPROC       SEL_DIR2
  -------         PROC          VALIDASENSOR
  -------         DO            
  D:0007H         SYMBOL        Valido
  D:0004H         SYMBOL        Tmin
  -------         ENDDO         
  C:ADA4H         LINE#         82
  C:ADA4H         LINE#         83
  C:ADA4H         LINE#         85
  C:ADA6H         LINE#         86
  C:ADAAH         LINE#         87
  C:ADB5H         LINE#         88
  C:ADB5H         LINE#         89
  C:ADBAH         LINE#         90
  C:ADBEH         LINE#         91
  C:ADBEH         LINE#         92
  C:ADC0H         LINE#         93
  C:ADC0H         LINE#         94
  C:ADC2H         LINE#         95
  C:ADC2H         LINE#         96
  -------         ENDPROC       VALIDASENSOR
  -------         PROC          DIR_BOARD
  -------         DO            
  X:0037H         SYMBOL        Board
  D:0007H         SYMBOL        Board_High
  -------         ENDDO         
  C:A8D1H         LINE#         100
  C:A8D1H         LINE#         101
  C:A8D1H         LINE#         102
  C:A8D7H         LINE#         104
  C:A8DAH         LINE#         105
  C:A8DDH         LINE#         106
  C:A8DDH         LINE#         107
  C:A8E0H         LINE#         108
  C:A8E0H         LINE#         109
  C:A8E3H         LINE#         110
  C:A8E6H         LINE#         111
  C:A8E6H         LINE#         112
  C:A8EDH         LINE#         113
  C:A8EDH         LINE#         114
  C:A8F5H         LINE#         115
  C:A8F5H         LINE#         116
  C:A8FDH         LINE#         118
  C:A900H         LINE#         119
  C:A900H         LINE#         120
  C:A906H         LINE#         121
  C:A906H         LINE#         122
  C:A908H         LINE#         123
BL51 BANKED LINKER/LOCATER V6.22.2.0                                                  10/09/2020  16:27:21  PAGE 50


  C:A90AH         LINE#         124
  C:A90CH         LINE#         125
  C:A90CH         LINE#         127
  C:A90CH         LINE#         128
  C:A913H         LINE#         129
  -------         ENDPROC       DIR_BOARD
  -------         PROC          DIR_BOARD_MONITOR
  -------         DO            
  D:0007H         SYMBOL        Board_High
  -------         ENDDO         
  C:AEBDH         LINE#         130
  C:AEBDH         LINE#         131
  C:AEBDH         LINE#         134
  C:AEC6H         LINE#         135
  C:AEC9H         LINE#         136
  C:AEC9H         LINE#         137
  C:AECCH         LINE#         138
  C:AECCH         LINE#         139
  C:AECEH         LINE#         140
  C:AECEH         LINE#         141
  C:AECEH         LINE#         142
  C:AECEH         LINE#         143
  -------         ENDPROC       DIR_BOARD_MONITOR
  -------         PROC          VALIDASENSORESPASO
  C:A145H         LINE#         151
  C:A145H         LINE#         152
  C:A145H         LINE#         154
  C:A148H         LINE#         155
  C:A14BH         LINE#         156
  C:A14BH         LINE#         157
  C:A159H         LINE#         158
  C:A159H         LINE#         159
  C:A15CH         LINE#         160
  C:A15FH         LINE#         161
  C:A162H         LINE#         162
  C:A167H         LINE#         163
  C:A167H         LINE#         164
  C:A16EH         LINE#         165
  C:A172H         LINE#         166
  C:A174H         LINE#         168
  C:A174H         LINE#         170
  C:A174H         LINE#         171
  C:A17BH         LINE#         172
  C:A180H         LINE#         173
  C:A182H         LINE#         174
  C:A182H         LINE#         177
  C:A182H         LINE#         179
  C:A185H         LINE#         180
  C:A18AH         LINE#         181
  C:A18AH         LINE#         183
  C:A191H         LINE#         184
  C:A197H         LINE#         185
  C:A19AH         LINE#         186
  C:A19AH         LINE#         188
  C:A19AH         LINE#         189
  C:A19EH         LINE#         190
  C:A1A0H         LINE#         191
BL51 BANKED LINKER/LOCATER V6.22.2.0                                                  10/09/2020  16:27:21  PAGE 51


  C:A1A0H         LINE#         194
  C:A1A0H         LINE#         195
  C:A1A0H         LINE#         197
  C:A1A0H         LINE#         198
  C:A1A9H         LINE#         199
  C:A1ACH         LINE#         200
  C:A1ACH         LINE#         201
  C:A1ACH         LINE#         202
  C:A1ACH         LINE#         203
  C:A1B5H         LINE#         204
  C:A1B7H         LINE#         205
  C:A1B7H         LINE#         207
  -------         ENDPROC       VALIDASENSORESPASO
  -------         PROC          VALIDASENSORES_OUT
  -------         DO            
  D:0006H         SYMBOL        valido
  -------         ENDDO         
  C:ADC3H         LINE#         209
  C:ADC3H         LINE#         210
  C:ADC3H         LINE#         211
  C:ADC5H         LINE#         213
  C:ADC8H         LINE#         214
  C:ADCBH         LINE#         215
  C:ADCBH         LINE#         216
  C:ADDAH         LINE#         217
  C:ADDAH         LINE#         218
  C:ADDAH         LINE#         219
  C:ADDCH         LINE#         220
  C:ADDCH         LINE#         222
  C:ADDCH         LINE#         223
  C:ADDCH         LINE#         224
  C:ADDFH         LINE#         225
  C:ADDFH         LINE#         226
  C:ADDFH         LINE#         228
  C:ADDFH         LINE#         229
  C:ADDFH         LINE#         230
  C:ADE1H         LINE#         231
  C:ADE1H         LINE#         232
  -------         ENDPROC       VALIDASENSORES_OUT
  -------         PROC          MSJ_LCD_INFORMATIVO
  -------         DO            
  X:0001H         SYMBOL        info
  X:02A4H         SYMBOL        toggle
  -------         ENDDO         
  C:9E52H         LINE#         239
  C:9E52H         LINE#         240
  C:9E52H         LINE#         241
  C:9E57H         LINE#         243
  C:9E5AH         LINE#         244
  C:9E5DH         LINE#         245
  C:9E5DH         LINE#         246
  C:9E69H         LINE#         247
  C:9E69H         LINE#         248
  C:9E6CH         LINE#         249
  C:9E6CH         LINE#         250
  C:9E6EH         LINE#         251
  C:9E71H         LINE#         252
BL51 BANKED LINKER/LOCATER V6.22.2.0                                                  10/09/2020  16:27:21  PAGE 52


  C:9E77H         LINE#         253
  C:9E77H         LINE#         254
  C:9E79H         LINE#         255
  C:9E87H         LINE#         256
  C:9E87H         LINE#         257
  C:9E8AH         LINE#         258
  C:9E8AH         LINE#         259
  C:9E8CH         LINE#         260
  C:9E8FH         LINE#         261
  C:9E95H         LINE#         262
  C:9E95H         LINE#         263
  C:9E97H         LINE#         264
  C:9EA5H         LINE#         265
  C:9EA5H         LINE#         266
  C:9EA8H         LINE#         267
  C:9EA8H         LINE#         268
  C:9EAAH         LINE#         269
  C:9EB8H         LINE#         270
  C:9EB8H         LINE#         271
  C:9EBAH         LINE#         272
  C:9EC1H         LINE#         274
  C:9EC6H         LINE#         275
  C:9EC6H         LINE#         277
  C:9EC6H         LINE#         279
  C:9EC6H         LINE#         281
  C:9EC9H         LINE#         282
  C:9ECCH         LINE#         283
  C:9ECCH         LINE#         284
  C:9ED1H         LINE#         285
  C:9ED1H         LINE#         287
  -------         ENDPROC       MSJ_LCD_INFORMATIVO
  -------         ENDMOD        IO_SENSORES

  -------         MODULE        PANTALLAS
  C:0000H         SYMBOL        _ICE_DUMMY_
  D:0080H         PUBLIC        P0
  C:A0CEH         PUBLIC        Reloj_Pantalla_Lcd
  C:3EB8H         PUBLIC        _PantallaLCD
  C:A851H         PUBLIC        _LCD_txt
  C:A503H         PUBLIC        _Raspberry_data
  C:ACDAH         PUBLIC        _tx_chrlcd
  C:3EACH         SYMBOL        _?ix1000
  C:3EB2H         SYMBOL        _?ix1001
  C:A7BDH         PUBLIC        _LCD_txt_num_char
  X:01BBH         PUBLIC        malloc_memoria
  C:6966H         PUBLIC        _PantallaLCD_LINEA_2
  B:0098H.4       PUBLIC        REN
  B:0080H.7       PUBLIC        sel_com
  -------         PROC          _PANTALLALCD
  X:002EH         SYMBOL        cod_msg
  -------         DO            
  X:002FH         SYMBOL        Ini_LCD_Line_one
  X:0035H         SYMBOL        num_chr
  X:0036H         SYMBOL        msjpantalla
  -------         ENDDO         
  C:3EB8H         LINE#         63
  C:3EBDH         LINE#         64
BL51 BANKED LINKER/LOCATER V6.22.2.0                                                  10/09/2020  16:27:21  PAGE 53


  C:3EBDH         LINE#         66
  C:3ED0H         LINE#         73
  C:3EDBH         LINE#         74
  C:3EEAH         LINE#         76
  C:3EECH         LINE#         78
  C:3EF5H         LINE#         79
  C:3EF5H         LINE#         80
  C:3EFFH         LINE#         82
  C:3F40H         LINE#         83
  C:3F40H         LINE#         85
  C:3F40H         LINE#         86
  C:3F4EH         LINE#         87
  C:3F54H         LINE#         88
  C:3F57H         LINE#         89
  C:3F5DH         LINE#         90
  C:3F60H         LINE#         92
  C:3F60H         LINE#         94
  C:3F6EH         LINE#         95
  C:3F74H         LINE#         96
  C:3F77H         LINE#         97
  C:3F7DH         LINE#         98
  C:3F80H         LINE#         100
  C:3F80H         LINE#         102
  C:3F8EH         LINE#         103
  C:3F94H         LINE#         104
  C:3F97H         LINE#         105
  C:3F9DH         LINE#         106
  C:3FA0H         LINE#         107
  C:3FA0H         LINE#         108
  C:3FAEH         LINE#         109
  C:3FB4H         LINE#         110
  C:3FB7H         LINE#         111
  C:3FBDH         LINE#         112
  C:3FC0H         LINE#         113
  C:3FC0H         LINE#         114
  C:3FCEH         LINE#         115
  C:3FD4H         LINE#         116
  C:3FD7H         LINE#         117
  C:3FDDH         LINE#         118
  C:3FE0H         LINE#         119
  C:3FE0H         LINE#         120
  C:3FEEH         LINE#         121
  C:3FF4H         LINE#         122
  C:3FF7H         LINE#         123
  C:3FFDH         LINE#         124
  C:4000H         LINE#         125
  C:4000H         LINE#         127
  C:400EH         LINE#         128
  C:4014H         LINE#         129
  C:4017H         LINE#         130
  C:401DH         LINE#         131
  C:4020H         LINE#         132
  C:4020H         LINE#         138
  C:4020H         LINE#         139
  C:402EH         LINE#         140
  C:4034H         LINE#         141
  C:4037H         LINE#         142
BL51 BANKED LINKER/LOCATER V6.22.2.0                                                  10/09/2020  16:27:21  PAGE 54


  C:403DH         LINE#         143
  C:4040H         LINE#         144
  C:4040H         LINE#         145
  C:404EH         LINE#         146
  C:4054H         LINE#         147
  C:4057H         LINE#         148
  C:405DH         LINE#         149
  C:4060H         LINE#         151
  C:4060H         LINE#         152
  C:406EH         LINE#         153
  C:4074H         LINE#         154
  C:4077H         LINE#         155
  C:407DH         LINE#         156
  C:4080H         LINE#         158
  C:4080H         LINE#         159
  C:408EH         LINE#         160
  C:4094H         LINE#         161
  C:4097H         LINE#         162
  C:409DH         LINE#         163
  C:40A0H         LINE#         168
  C:40A0H         LINE#         170
  C:40AEH         LINE#         171
  C:40B4H         LINE#         172
  C:40B7H         LINE#         173
  C:40BDH         LINE#         174
  C:40C0H         LINE#         175
  C:40C0H         LINE#         177
  C:40CEH         LINE#         178
  C:40D4H         LINE#         179
  C:40D7H         LINE#         180
  C:40DDH         LINE#         181
  C:40E0H         LINE#         182
  C:40E0H         LINE#         184
  C:40EEH         LINE#         185
  C:40F4H         LINE#         186
  C:40F7H         LINE#         187
  C:40FDH         LINE#         188
  C:40FFH         LINE#         189
  C:40FFH         LINE#         191
  C:410DH         LINE#         192
  C:4113H         LINE#         193
  C:4116H         LINE#         194
  C:411CH         LINE#         195
  C:411EH         LINE#         197
  C:411EH         LINE#         199
  C:412CH         LINE#         200
  C:4132H         LINE#         201
  C:4135H         LINE#         202
  C:413BH         LINE#         203
  C:413DH         LINE#         205
  C:413DH         LINE#         206
  C:414BH         LINE#         207
  C:4151H         LINE#         208
  C:4154H         LINE#         209
  C:415FH         LINE#         210
  C:415FH         LINE#         211
  C:415FH         LINE#         213
BL51 BANKED LINKER/LOCATER V6.22.2.0                                                  10/09/2020  16:27:21  PAGE 55


  C:415FH         LINE#         214
  C:415FH         LINE#         215
  C:4161H         LINE#         217
  C:4162H         LINE#         219
  C:4162H         LINE#         220
  C:4164H         LINE#         221
  C:41AEH         LINE#         222
  C:41AEH         LINE#         225
  C:41AEH         LINE#         226
  C:41C5H         LINE#         227
  C:41D1H         LINE#         228
  C:41D4H         LINE#         229
  C:41D4H         LINE#         231
  C:41DAH         LINE#         232
  C:41DDH         LINE#         234
  C:41DDH         LINE#         236
  C:41E3H         LINE#         237
  C:41E6H         LINE#         238
  C:41E6H         LINE#         239
  C:41ECH         LINE#         240
  C:41EFH         LINE#         241
  C:41EFH         LINE#         242
  C:41F5H         LINE#         243
  C:41F7H         LINE#         244
  C:41F7H         LINE#         245
  C:41FDH         LINE#         246
  C:41FFH         LINE#         247
  C:41FFH         LINE#         249
  C:4205H         LINE#         250
  C:4207H         LINE#         251
  C:4207H         LINE#         252
  C:420DH         LINE#         253
  C:420FH         LINE#         255
  C:420FH         LINE#         256
  C:4215H         LINE#         257
  C:4217H         LINE#         259
  C:4217H         LINE#         260
  C:421DH         LINE#         261
  C:421FH         LINE#         263
  C:421FH         LINE#         264
  C:4225H         LINE#         265
  C:4227H         LINE#         267
  C:4227H         LINE#         268
  C:422DH         LINE#         269
  C:422FH         LINE#         273
  C:422FH         LINE#         275
  C:4235H         LINE#         276
  C:4237H         LINE#         277
  C:4237H         LINE#         279
  C:423DH         LINE#         280
  C:423FH         LINE#         281
  C:423FH         LINE#         283
  C:4245H         LINE#         285
  C:4247H         LINE#         286
  C:4247H         LINE#         288
  C:424DH         LINE#         289
  C:424FH         LINE#         290
BL51 BANKED LINKER/LOCATER V6.22.2.0                                                  10/09/2020  16:27:21  PAGE 56


  C:424FH         LINE#         292
  C:4255H         LINE#         293
  C:4257H         LINE#         295
  C:4257H         LINE#         297
  C:425DH         LINE#         298
  C:425FH         LINE#         299
  C:425FH         LINE#         300
  C:4265H         LINE#         301
  C:4267H         LINE#         302
  C:4267H         LINE#         303
  C:426DH         LINE#         304
  C:426FH         LINE#         305
  C:426FH         LINE#         306
  C:4278H         LINE#         307
  C:4278H         LINE#         309
  C:4278H         LINE#         311
  C:4278H         LINE#         312
  C:4278H         LINE#         313
  C:4283H         LINE#         314
  C:428AH         LINE#         315
  C:428CH         LINE#         316
  C:428CH         LINE#         320
  -------         ENDPROC       _PANTALLALCD
  -------         PROC          _PANTALLALCD_LINEA_2
  X:0010H         SYMBOL        cod_msg
  X:0011H         SYMBOL        buffer
  -------         DO            
  X:0014H         SYMBOL        Ini_LCD_Line_one
  X:001AH         SYMBOL        num_chr
  X:001BH         SYMBOL        buf
  -------         ENDDO         
  C:6966H         LINE#         321
  C:6974H         LINE#         322
  C:6974H         LINE#         324
  C:6987H         LINE#         331
  C:6989H         LINE#         333
  C:6992H         LINE#         334
  C:6992H         LINE#         337
  C:69A0H         LINE#         338
  C:69A0H         LINE#         340
  C:69A0H         LINE#         341
  C:69A3H         LINE#         342
  C:69B1H         LINE#         343
  C:69C6H         LINE#         344
  C:69CCH         LINE#         345
  C:69D2H         LINE#         346
  C:69D8H         LINE#         347
  C:69D8H         LINE#         348
  C:69DAH         LINE#         349
  C:69DAH         LINE#         350
  C:69DDH         LINE#         351
  C:69EBH         LINE#         352
  C:6A00H         LINE#         353
  C:6A06H         LINE#         354
  C:6A0CH         LINE#         355
  C:6A17H         LINE#         356
  C:6A27H         LINE#         357
BL51 BANKED LINKER/LOCATER V6.22.2.0                                                  10/09/2020  16:27:21  PAGE 57


  C:6A27H         LINE#         358
  C:6A27H         LINE#         360
  C:6A27H         LINE#         362
  C:6A27H         LINE#         363
  C:6A29H         LINE#         364
  C:6A2AH         LINE#         366
  C:6A2AH         LINE#         367
  C:6A2CH         LINE#         368
  C:6A3AH         LINE#         369
  C:6A3AH         LINE#         370
  C:6A3AH         LINE#         372
  C:6A49H         LINE#         373
  C:6A49H         LINE#         374
  C:6A49H         LINE#         375
  C:6A49H         LINE#         377
  C:6A4BH         LINE#         379
  C:6A4BH         LINE#         380
  C:6A5AH         LINE#         381
  C:6A6DH         LINE#         382
  C:6A87H         LINE#         383
  C:6AA5H         LINE#         384
  C:6ABCH         LINE#         385
  C:6AC5H         LINE#         386
  C:6AC5H         LINE#         387
  C:6AC5H         LINE#         389
  C:6AC5H         LINE#         390
  C:6AC5H         LINE#         391
  C:6AC7H         LINE#         392
  C:6AC7H         LINE#         395
  -------         ENDPROC       _PANTALLALCD_LINEA_2
  C:ACD1H         SYMBOL        L?0118
  C:ACD4H         SYMBOL        L?0119
  -------         PROC          L?0117
  -------         ENDPROC       L?0117
  C:ACD1H         SYMBOL        L?0118
  C:ACD4H         SYMBOL        L?0119
  -------         PROC          _TX_CHRLCD
  D:0007H         SYMBOL        data_com
  X:003FH         SYMBOL        enable_char_add
  -------         DO            
  X:0040H         SYMBOL        d
  -------         ENDDO         
  C:ACDAH         LINE#         401
  C:ACDFH         LINE#         402
  C:ACDFH         LINE#         404
  C:ACE7H         LINE#         405
  C:ACF7H         LINE#         407
  -------         ENDPROC       _TX_CHRLCD
  -------         PROC          L?0120
  -------         ENDPROC       L?0120
  -------         PROC          _LCD_TXT
  X:003AH         SYMBOL        msg
  X:003DH         SYMBOL        enable_char_add
  -------         DO            
  X:003EH         SYMBOL        i
  -------         ENDDO         
  C:A851H         LINE#         414
BL51 BANKED LINKER/LOCATER V6.22.2.0                                                  10/09/2020  16:27:21  PAGE 58


  C:A85FH         LINE#         415
  C:A85FH         LINE#         418
  C:A87CH         LINE#         419
  C:A87CH         LINE#         420
  C:A884H         LINE#         421
  C:A88CH         LINE#         422
  -------         ENDPROC       _LCD_TXT
  -------         PROC          _LCD_TXT_NUM_CHAR
  X:0024H         SYMBOL        msg
  X:0027H         SYMBOL        length_char
  X:0028H         SYMBOL        enable_char_add
  -------         DO            
  X:0029H         SYMBOL        i
  -------         ENDDO         
  C:A7BDH         LINE#         429
  C:A7CBH         LINE#         430
  C:A7CBH         LINE#         433
  C:A7DEH         LINE#         434
  C:A7DEH         LINE#         435
  C:A7FAH         LINE#         436
  C:A802H         LINE#         437
  -------         ENDPROC       _LCD_TXT_NUM_CHAR
  -------         PROC          _RASPBERRY_DATA
  X:003AH         SYMBOL        msg
  -------         DO            
  X:01BAH         SYMBOL        i
  X:003DH         SYMBOL        lenth_cadena
  D:0007H         SYMBOL        d
  -------         ENDDO         
  C:A503H         LINE#         442
  C:A50EH         LINE#         443
  C:A50EH         LINE#         448
  C:A516H         LINE#         450
  C:A528H         LINE#         451
  C:A528H         LINE#         452
  C:A53AH         LINE#         453
  C:A544H         LINE#         454
  C:A550H         LINE#         455
  C:A550H         LINE#         457
  C:A553H         LINE#         460
  C:A55BH         LINE#         464
  -------         ENDPROC       _RASPBERRY_DATA
  -------         PROC          RELOJ_PANTALLA_LCD
  -------         DO            
  X:0010H         SYMBOL        Ini_Clock_LCD
  D:0007H         SYMBOL        lendtrama
  -------         ENDDO         
  C:A0CEH         LINE#         473
  C:A0CEH         LINE#         474
  C:A0CEH         LINE#         479
  C:A0D4H         LINE#         480
  C:A0D4H         LINE#         481
  C:A0D6H         LINE#         482
  C:A0DFH         LINE#         486
  C:A0E1H         LINE#         487
  C:A0F1H         LINE#         489
  C:A0F3H         LINE#         490
BL51 BANKED LINKER/LOCATER V6.22.2.0                                                  10/09/2020  16:27:21  PAGE 59


  C:A0F5H         LINE#         492
  C:A0F6H         LINE#         494
  C:A0F6H         LINE#         495
  C:A0F8H         LINE#         496
  C:A0FDH         LINE#         497
  C:A10CH         LINE#         498
  C:A115H         LINE#         500
  C:A122H         LINE#         501
  C:A139H         LINE#         502
  C:A142H         LINE#         503
  C:A144H         LINE#         504
  C:A144H         LINE#         505
  -------         ENDPROC       RELOJ_PANTALLA_LCD
  -------         ENDMOD        PANTALLAS

  -------         MODULE        PROG
  C:0000H         SYMBOL        _ICE_DUMMY_
  C:57A3H         PUBLIC        Prog_fecha_vencimiento
  C:6E8CH         PUBLIC        Prog_Sin_Cobro
  C:746CH         PUBLIC        _Ver_Horario_Desde_Hasta
  C:7BB9H         PUBLIC        Prog_debug
  C:7FA9H         PUBLIC        dcto_caja
  C:97F8H         PUBLIC        _GetOption
  X:020FH         PUBLIC        validacion
  X:0218H         PUBLIC        cursor
  C:7352H         PUBLIC        _Prog_Horarios_on_off
  C:9C41H         PUBLIC        Show
  C:428DH         PUBLIC        Ver_Prog
  C:ABF7H         PUBLIC        Addr_Horarios
  C:7DB1H         PUBLIC        Prog_Comparacion_Activa
  C:8D1EH         PUBLIC        prog_id_cliente
  C:A91CH         PUBLIC        _ValidarClave
  C:5180H         PUBLIC        menu
  C:7CB5H         PUBLIC        Prog_Use_Lpr
  C:A443H         PUBLIC        _ListaComandos
  C:115BH         SYMBOL        _?ix1000
  C:1166H         SYMBOL        _?ix1001
  C:1176H         SYMBOL        _?ix1002
  C:1186H         SYMBOL        _?ix1003
  C:6AC8H         PUBLIC        Prog_Horarios
  C:118AH         SYMBOL        _?ix1004
  C:118EH         SYMBOL        _?ix1005
  C:80A5H         PUBLIC        Prog_Apb_Mensual
  C:539AH         PUBLIC        _hash_id
  C:4EC9H         PUBLIC        _Prog_Horario_dias
  C:8BA6H         PUBLIC        Prog_tiempo_gracia
  C:9EDAH         PUBLIC        _IngresaDato
  C:A6A0H         PUBLIC        First_Clave
  X:022CH         PUBLIC        comandos
  C:AE57H         PUBLIC        DisplayCursor
  C:8AE9H         PUBLIC        prog_cod_park
  C:6FCAH         PUBLIC        Ver_Horario
  C:722AH         PUBLIC        _Ver_Horario_dias
  C:55A9H         PUBLIC        _Prog_Horario_Desde_Hasta
  C:7EADH         PUBLIC        tipo_pantalla
  C:8464H         PUBLIC        Prog_Address_High_Board
  C:A9DEH         PUBLIC        _GetCMD
BL51 BANKED LINKER/LOCATER V6.22.2.0                                                  10/09/2020  16:27:21  PAGE 60


  -------         PROC          _HASH_ID
  X:0071H         SYMBOL        clave
  -------         DO            
  X:0074H         SYMBOL        len_clave
  X:0075H         SYMBOL        i
  X:020BH         SYMBOL        temp
  X:020DH         SYMBOL        temp1
  X:0076H         SYMBOL        aleatorio
  X:0081H         SYMBOL        suma
  X:0091H         SYMBOL        xxor
  X:00A1H         SYMBOL        usuario1
  X:00ACH         SYMBOL        vencimiento_password
  -------         ENDDO         
  C:539AH         LINE#         112
  C:53A5H         LINE#         113
  C:53A5H         LINE#         116
  C:53B8H         LINE#         117
  C:53CBH         LINE#         118
  C:53DEH         LINE#         122
  C:53EBH         LINE#         123
  C:53FFH         LINE#         125
  C:53FFH         LINE#         126
  C:5408H         LINE#         127
  C:5414H         LINE#         128
  C:5416H         LINE#         130
  C:5416H         LINE#         131
  C:5425H         LINE#         132
  C:5425H         LINE#         134
  C:5438H         LINE#         135
  C:544CH         LINE#         136
  C:544CH         LINE#         137
  C:5478H         LINE#         138
  C:5483H         LINE#         139
  C:5490H         LINE#         140
  C:54AEH         LINE#         141
  C:54B9H         LINE#         142
  C:54C6H         LINE#         143
  C:54EAH         LINE#         144
  C:54F2H         LINE#         145
  C:54F2H         LINE#         146
  C:54F7H         LINE#         147
  C:54F7H         LINE#         148
  C:5510H         LINE#         149
  C:5510H         LINE#         150
  C:551CH         LINE#         152
  C:551CH         LINE#         153
  C:552BH         LINE#         154
  C:552BH         LINE#         155
  C:5537H         LINE#         156
  C:5537H         LINE#         157
  C:5550H         LINE#         158
  C:5550H         LINE#         159
  C:555BH         LINE#         160
  C:555BH         LINE#         161
  C:5574H         LINE#         162
  C:5574H         LINE#         163
  C:557FH         LINE#         164
BL51 BANKED LINKER/LOCATER V6.22.2.0                                                  10/09/2020  16:27:21  PAGE 61


  C:557FH         LINE#         165
  C:5594H         LINE#         167
  C:559DH         LINE#         168
  C:55A2H         LINE#         169
  C:55A8H         LINE#         170
  -------         ENDPROC       _HASH_ID
  -------         PROC          _LISTACOMANDOS
  X:005AH         SYMBOL        cmd
  -------         DO            
  X:005DH         SYMBOL        buf
  X:0060H         SYMBOL        i
  -------         ENDDO         
  C:A443H         LINE#         177
  C:A44EH         LINE#         178
  C:A44EH         LINE#         182
  C:A461H         LINE#         183
  C:A461H         LINE#         184
  C:A479H         LINE#         185
  C:A494H         LINE#         186
  C:A49AH         LINE#         187
  C:A4A2H         LINE#         189
  C:A4A4H         LINE#         190
  -------         ENDPROC       _LISTACOMANDOS
  -------         PROC          L?0254
  -------         ENDPROC       L?0254
  -------         PROC          _VALIDARCLAVE
  X:0071H         SYMBOL        buffer
  -------         DO            
  X:0074H         SYMBOL        buf
  -------         ENDDO         
  C:A91CH         LINE#         196
  C:A927H         LINE#         197
  C:A927H         LINE#         200
  C:A936H         LINE#         201
  C:A951H         LINE#         202
  C:A953H         LINE#         205
  C:A955H         LINE#         206
  -------         ENDPROC       _VALIDARCLAVE
  -------         PROC          L?0255
  -------         ENDPROC       L?0255
  -------         PROC          _GETCMD
  X:0071H         SYMBOL        in
  -------         DO            
  X:0074H         SYMBOL        tokens
  -------         ENDDO         
  C:A9DEH         LINE#         213
  C:A9E9H         LINE#         214
  C:A9E9H         LINE#         215
  C:A9FCH         LINE#         216
  -------         ENDPROC       _GETCMD
  -------         PROC          L?0253
  -------         ENDPROC       L?0253
  -------         PROC          _GETOPTION
  X:005AH         SYMBOL        in
  -------         DO            
  X:005DH         SYMBOL        tokensSpace
  X:0061H         SYMBOL        tokensQuote
BL51 BANKED LINKER/LOCATER V6.22.2.0                                                  10/09/2020  16:27:21  PAGE 62


  -------         ENDDO         
  C:97F8H         LINE#         222
  C:9803H         LINE#         223
  C:9803H         LINE#         224
  C:9816H         LINE#         225
  C:9829H         LINE#         228
  C:983BH         LINE#         229
  C:9847H         LINE#         232
  C:984EH         LINE#         233
  C:985BH         LINE#         235
  C:9874H         LINE#         236
  -------         ENDPROC       _GETOPTION
  -------         PROC          DISPLAYCURSOR
  C:AE57H         LINE#         241
  C:AE57H         LINE#         242
  C:AE57H         LINE#         243
  -------         ENDPROC       DISPLAYCURSOR
  C:9ED6H         SYMBOL        L?0252
  -------         PROC          L?0251
  -------         ENDPROC       L?0251
  C:9ED6H         SYMBOL        L?0252
  -------         PROC          _INGRESADATO
  X:0085H         SYMBOL        buffer
  X:0088H         SYMBOL        modo
  -------         DO            
  D:0006H         SYMBOL        i
  -------         ENDDO         
  C:9EDAH         LINE#         250
  C:9EE8H         LINE#         251
  C:9EE8H         LINE#         256
  C:9EE8H         LINE#         257
  C:9EFAH         LINE#         258
  C:9F00H         LINE#         259
  C:9F00H         LINE#         260
  C:9F1BH         LINE#         261
  C:9F1DH         LINE#         263
  C:9F1DH         LINE#         264
  C:9F22H         LINE#         265
  C:9F22H         LINE#         266
  C:9F33H         LINE#         267
  C:9F3DH         LINE#         268
  C:9F4CH         LINE#         270
  C:9F51H         LINE#         274
  -------         ENDPROC       _INGRESADATO
  -------         PROC          PROG_ID_CLIENTE
  -------         DO            
  X:005AH         SYMBOL        buffer
  X:0064H         SYMBOL        dataee
  -------         ENDDO         
  C:8D1EH         LINE#         291
  C:8D1EH         LINE#         292
  C:8D1EH         LINE#         296
  C:8D30H         LINE#         297
  C:8D4DH         LINE#         299
  C:8D64H         LINE#         301
  C:8D6DH         LINE#         302
  C:8D74H         LINE#         303
BL51 BANKED LINKER/LOCATER V6.22.2.0                                                  10/09/2020  16:27:21  PAGE 63


  C:8D85H         LINE#         304
  C:8D8EH         LINE#         306
  C:8DA0H         LINE#         307
  C:8DBDH         LINE#         308
  -------         ENDPROC       PROG_ID_CLIENTE
  -------         PROC          PROG_COD_PARK
  -------         DO            
  X:005AH         SYMBOL        buffer
  X:0064H         SYMBOL        dataee
  -------         ENDDO         
  C:8AE9H         LINE#         313
  C:8AE9H         LINE#         314
  C:8AE9H         LINE#         318
  C:8AFCH         LINE#         319
  C:8B19H         LINE#         321
  C:8B30H         LINE#         323
  C:8B39H         LINE#         324
  C:8B44H         LINE#         325
  C:8B55H         LINE#         326
  C:8B5FH         LINE#         328
  C:8B72H         LINE#         329
  C:8B8FH         LINE#         330
  -------         ENDPROC       PROG_COD_PARK
  -------         PROC          PROG_TIEMPO_GRACIA
  -------         DO            
  X:005AH         SYMBOL        buffer
  X:0064H         SYMBOL        dataee
  -------         ENDDO         
  C:8BA6H         LINE#         335
  C:8BA6H         LINE#         336
  C:8BA6H         LINE#         340
  C:8BB9H         LINE#         341
  C:8BD6H         LINE#         343
  C:8BEDH         LINE#         345
  C:8BF6H         LINE#         346
  C:8C01H         LINE#         347
  C:8C12H         LINE#         348
  C:8C1CH         LINE#         350
  C:8C2FH         LINE#         351
  C:8C4CH         LINE#         352
  -------         ENDPROC       PROG_TIEMPO_GRACIA
  -------         PROC          PROG_SIN_COBRO
  -------         DO            
  X:005AH         SYMBOL        buffer
  X:0064H         SYMBOL        dataee
  -------         ENDDO         
  C:6E8CH         LINE#         358
  C:6E8CH         LINE#         359
  C:6E8CH         LINE#         365
  C:6E9FH         LINE#         366
  C:6EBCH         LINE#         367
  C:6EC6H         LINE#         368
  C:6EC6H         LINE#         369
  C:6ED9H         LINE#         370
  C:6EDBH         LINE#         371
  C:6EE7H         LINE#         372
  C:6EE7H         LINE#         373
BL51 BANKED LINKER/LOCATER V6.22.2.0                                                  10/09/2020  16:27:21  PAGE 64


  C:6EFAH         LINE#         374
  C:6EFCH         LINE#         376
  C:6EFCH         LINE#         377
  C:6F13H         LINE#         378
  C:6F13H         LINE#         380
  C:6F1CH         LINE#         381
  C:6F27H         LINE#         382
  C:6F38H         LINE#         383
  C:6F42H         LINE#         385
  C:6F55H         LINE#         386
  C:6F72H         LINE#         387
  C:6F7CH         LINE#         388
  C:6F7CH         LINE#         389
  C:6F8FH         LINE#         390
  C:6F91H         LINE#         391
  C:6F9DH         LINE#         392
  C:6F9DH         LINE#         393
  C:6FB0H         LINE#         394
  C:6FB2H         LINE#         396
  C:6FB2H         LINE#         397
  C:6FC9H         LINE#         398
  C:6FC9H         LINE#         400
  -------         ENDPROC       PROG_SIN_COBRO
  -------         PROC          PROG_DEBUG
  -------         DO            
  X:005AH         SYMBOL        buffer
  X:0064H         SYMBOL        dataee
  -------         ENDDO         
  C:7BB9H         LINE#         406
  C:7BB9H         LINE#         407
  C:7BB9H         LINE#         412
  C:7BCCH         LINE#         413
  C:7BE9H         LINE#         414
  C:7BF3H         LINE#         415
  C:7BF3H         LINE#         416
  C:7C06H         LINE#         417
  C:7C08H         LINE#         419
  C:7C08H         LINE#         420
  C:7C1FH         LINE#         421
  C:7C1FH         LINE#         423
  C:7C28H         LINE#         424
  C:7C33H         LINE#         425
  C:7C44H         LINE#         426
  C:7C4EH         LINE#         428
  C:7C61H         LINE#         429
  C:7C7EH         LINE#         430
  C:7C88H         LINE#         431
  C:7C88H         LINE#         432
  C:7C9BH         LINE#         433
  C:7C9DH         LINE#         435
  C:7C9DH         LINE#         436
  C:7CB4H         LINE#         437
  C:7CB4H         LINE#         438
  -------         ENDPROC       PROG_DEBUG
  -------         PROC          PROG_USE_LPR
  -------         DO            
  X:005AH         SYMBOL        buffer
BL51 BANKED LINKER/LOCATER V6.22.2.0                                                  10/09/2020  16:27:21  PAGE 65


  X:0064H         SYMBOL        dataee
  -------         ENDDO         
  C:7CB5H         LINE#         443
  C:7CB5H         LINE#         444
  C:7CB5H         LINE#         449
  C:7CC8H         LINE#         450
  C:7CE5H         LINE#         451
  C:7CEFH         LINE#         452
  C:7CEFH         LINE#         453
  C:7D02H         LINE#         454
  C:7D04H         LINE#         456
  C:7D04H         LINE#         457
  C:7D1BH         LINE#         458
  C:7D1BH         LINE#         460
  C:7D24H         LINE#         461
  C:7D2FH         LINE#         462
  C:7D40H         LINE#         463
  C:7D4AH         LINE#         465
  C:7D5DH         LINE#         466
  C:7D7AH         LINE#         467
  C:7D84H         LINE#         468
  C:7D84H         LINE#         469
  C:7D97H         LINE#         470
  C:7D99H         LINE#         472
  C:7D99H         LINE#         473
  C:7DB0H         LINE#         474
  C:7DB0H         LINE#         475
  -------         ENDPROC       PROG_USE_LPR
  -------         PROC          PROG_COMPARACION_ACTIVA
  -------         DO            
  X:005AH         SYMBOL        buffer
  X:0064H         SYMBOL        dataee
  -------         ENDDO         
  C:7DB1H         LINE#         479
  C:7DB1H         LINE#         480
  C:7DB1H         LINE#         485
  C:7DC4H         LINE#         486
  C:7DE1H         LINE#         487
  C:7DEBH         LINE#         488
  C:7DEBH         LINE#         489
  C:7DFEH         LINE#         490
  C:7E00H         LINE#         492
  C:7E00H         LINE#         493
  C:7E17H         LINE#         494
  C:7E17H         LINE#         496
  C:7E20H         LINE#         497
  C:7E2BH         LINE#         498
  C:7E3CH         LINE#         499
  C:7E46H         LINE#         501
  C:7E59H         LINE#         502
  C:7E76H         LINE#         503
  C:7E80H         LINE#         504
  C:7E80H         LINE#         505
  C:7E93H         LINE#         506
  C:7E95H         LINE#         508
  C:7E95H         LINE#         509
  C:7EACH         LINE#         510
BL51 BANKED LINKER/LOCATER V6.22.2.0                                                  10/09/2020  16:27:21  PAGE 66


  C:7EACH         LINE#         511
  -------         ENDPROC       PROG_COMPARACION_ACTIVA
  -------         PROC          TIPO_PANTALLA
  -------         DO            
  X:005AH         SYMBOL        buffer
  X:0064H         SYMBOL        dataee
  -------         ENDDO         
  C:7EADH         LINE#         517
  C:7EADH         LINE#         518
  C:7EADH         LINE#         523
  C:7EC0H         LINE#         524
  C:7EDDH         LINE#         525
  C:7EE7H         LINE#         526
  C:7EE7H         LINE#         527
  C:7EFAH         LINE#         528
  C:7EFCH         LINE#         530
  C:7EFCH         LINE#         531
  C:7F13H         LINE#         532
  C:7F13H         LINE#         534
  C:7F1CH         LINE#         535
  C:7F27H         LINE#         536
  C:7F38H         LINE#         537
  C:7F42H         LINE#         539
  C:7F55H         LINE#         540
  C:7F72H         LINE#         541
  C:7F7CH         LINE#         542
  C:7F7CH         LINE#         543
  C:7F8FH         LINE#         544
  C:7F91H         LINE#         546
  C:7F91H         LINE#         547
  C:7FA8H         LINE#         548
  C:7FA8H         LINE#         550
  -------         ENDPROC       TIPO_PANTALLA
  -------         PROC          DCTO_CAJA
  -------         DO            
  X:005AH         SYMBOL        buffer
  X:0064H         SYMBOL        dataee
  -------         ENDDO         
  C:7FA9H         LINE#         556
  C:7FA9H         LINE#         557
  C:7FA9H         LINE#         562
  C:7FBCH         LINE#         563
  C:7FD9H         LINE#         564
  C:7FE3H         LINE#         565
  C:7FE3H         LINE#         566
  C:7FF6H         LINE#         567
  C:7FF8H         LINE#         569
  C:7FF8H         LINE#         570
  C:800FH         LINE#         571
  C:800FH         LINE#         573
  C:8018H         LINE#         574
  C:8023H         LINE#         575
  C:8034H         LINE#         576
  C:803EH         LINE#         578
  C:8051H         LINE#         579
  C:806EH         LINE#         580
  C:8078H         LINE#         581
BL51 BANKED LINKER/LOCATER V6.22.2.0                                                  10/09/2020  16:27:21  PAGE 67


  C:8078H         LINE#         582
  C:808BH         LINE#         583
  C:808DH         LINE#         585
  C:808DH         LINE#         586
  C:80A4H         LINE#         587
  C:80A4H         LINE#         588
  -------         ENDPROC       DCTO_CAJA
  -------         PROC          PROG_APB_MENSUAL
  -------         DO            
  X:005AH         SYMBOL        buffer
  X:0064H         SYMBOL        dataee
  -------         ENDDO         
  C:80A5H         LINE#         589
  C:80A5H         LINE#         590
  C:80A5H         LINE#         595
  C:80B8H         LINE#         596
  C:80D5H         LINE#         597
  C:80DFH         LINE#         598
  C:80DFH         LINE#         599
  C:80F2H         LINE#         600
  C:80F4H         LINE#         602
  C:80F4H         LINE#         603
  C:810BH         LINE#         604
  C:810BH         LINE#         606
  C:8114H         LINE#         607
  C:811FH         LINE#         608
  C:8130H         LINE#         609
  C:813AH         LINE#         611
  C:814DH         LINE#         612
  C:816AH         LINE#         613
  C:8174H         LINE#         614
  C:8174H         LINE#         615
  C:8187H         LINE#         616
  C:8189H         LINE#         618
  C:8189H         LINE#         619
  C:81A0H         LINE#         620
  C:81A0H         LINE#         621
  -------         ENDPROC       PROG_APB_MENSUAL
  -------         PROC          PROG_ADDRESS_HIGH_BOARD
  -------         DO            
  X:005AH         SYMBOL        buffer
  X:0064H         SYMBOL        dataee
  -------         ENDDO         
  C:8464H         LINE#         622
  C:8464H         LINE#         623
  C:8464H         LINE#         628
  C:8477H         LINE#         629
  C:8494H         LINE#         630
  C:849EH         LINE#         631
  C:849EH         LINE#         632
  C:84A2H         LINE#         633
  C:84A4H         LINE#         635
  C:84A4H         LINE#         636
  C:84BBH         LINE#         637
  C:84BBH         LINE#         639
  C:84C4H         LINE#         640
  C:84CFH         LINE#         641
BL51 BANKED LINKER/LOCATER V6.22.2.0                                                  10/09/2020  16:27:21  PAGE 68


  C:84E0H         LINE#         642
  C:84EAH         LINE#         644
  C:84FDH         LINE#         645
  C:851AH         LINE#         646
  C:8524H         LINE#         647
  C:8524H         LINE#         648
  C:8528H         LINE#         649
  C:852AH         LINE#         651
  C:852AH         LINE#         652
  C:8541H         LINE#         653
  C:8541H         LINE#         654
  -------         ENDPROC       PROG_ADDRESS_HIGH_BOARD
  -------         PROC          ADDR_HORARIOS
  -------         DO            
  X:0088H         SYMBOL        ee_addr_horario
  -------         ENDDO         
  C:ABF7H         LINE#         655
  C:ABF7H         LINE#         656
  C:ABF7H         LINE#         659
  C:ABFDH         LINE#         660
  C:AC01H         LINE#         661
  C:AC05H         LINE#         662
  C:AC09H         LINE#         663
  C:AC0DH         LINE#         664
  C:AC11H         LINE#         665
  C:AC15H         LINE#         666
  C:AC19H         LINE#         667
  C:AC1DH         LINE#         668
  C:AC21H         LINE#         669
  C:AC24H         LINE#         670
  C:AC2AH         LINE#         671
  -------         ENDPROC       ADDR_HORARIOS
  -------         PROC          _PROG_HORARIOS_ON_OFF
  X:0075H         SYMBOL        addr
  -------         DO            
  X:0077H         SYMBOL        buffer
  X:0081H         SYMBOL        dataee
  X:0083H         SYMBOL        habilitado
  -------         ENDDO         
  C:7352H         LINE#         672
  C:735CH         LINE#         673
  C:735CH         LINE#         676
  C:736BH         LINE#         677
  C:7388H         LINE#         678
  C:7392H         LINE#         679
  C:7392H         LINE#         680
  C:73A5H         LINE#         681
  C:73A7H         LINE#         683
  C:73A7H         LINE#         684
  C:73BEH         LINE#         685
  C:73BEH         LINE#         686
  C:73C7H         LINE#         687
  C:73D2H         LINE#         688
  C:73E3H         LINE#         689
  C:73F2H         LINE#         691
  C:7409H         LINE#         692
  C:7426H         LINE#         693
BL51 BANKED LINKER/LOCATER V6.22.2.0                                                  10/09/2020  16:27:21  PAGE 69


  C:7433H         LINE#         694
  C:7433H         LINE#         695
  C:7436H         LINE#         696
  C:7449H         LINE#         697
  C:744BH         LINE#         699
  C:744BH         LINE#         700
  C:7450H         LINE#         701
  C:7465H         LINE#         702
  C:7465H         LINE#         703
  C:746BH         LINE#         704
  -------         ENDPROC       _PROG_HORARIOS_ON_OFF
  -------         PROC          _PROG_HORARIO_DESDE_HASTA
  X:0075H         SYMBOL        addr
  -------         DO            
  X:0077H         SYMBOL        buffer
  D:0007H         SYMBOL        dataee
  -------         ENDDO         
  C:55A9H         LINE#         705
  C:55B1H         LINE#         706
  C:55B1H         LINE#         711
  C:55BAH         LINE#         712
  C:55BDH         LINE#         713
  C:55C6H         LINE#         714
  C:55DEH         LINE#         715
  C:55F1H         LINE#         716
  C:55FFH         LINE#         717
  C:5617H         LINE#         718
  C:562AH         LINE#         719
  C:5638H         LINE#         720
  C:5650H         LINE#         721
  C:5663H         LINE#         722
  C:5671H         LINE#         723
  C:5689H         LINE#         724
  C:569CH         LINE#         725
  C:56AAH         LINE#         729
  C:56B3H         LINE#         730
  C:56B6H         LINE#         732
  C:56BFH         LINE#         734
  C:56D7H         LINE#         735
  C:56EAH         LINE#         736
  C:56F8H         LINE#         737
  C:5710H         LINE#         738
  C:5723H         LINE#         739
  C:5731H         LINE#         740
  C:5749H         LINE#         741
  C:575CH         LINE#         742
  C:576AH         LINE#         743
  C:5782H         LINE#         744
  C:5795H         LINE#         745
  -------         ENDPROC       _PROG_HORARIO_DESDE_HASTA
  -------         PROC          _VER_HORARIO_DESDE_HASTA
  X:0088H         SYMBOL        addr
  -------         DO            
  D:0007H         SYMBOL        dataee
  -------         ENDDO         
  C:746CH         LINE#         747
  C:7474H         LINE#         748
BL51 BANKED LINKER/LOCATER V6.22.2.0                                                  10/09/2020  16:27:21  PAGE 70


  C:7474H         LINE#         750
  C:747DH         LINE#         751
  C:7490H         LINE#         752
  C:749EH         LINE#         753
  C:74B1H         LINE#         754
  C:74BFH         LINE#         755
  C:74D2H         LINE#         756
  C:74E0H         LINE#         757
  C:74F3H         LINE#         758
  C:7501H         LINE#         760
  C:7514H         LINE#         761
  C:7522H         LINE#         763
  C:7535H         LINE#         764
  C:7543H         LINE#         766
  C:7556H         LINE#         767
  C:7564H         LINE#         769
  C:7577H         LINE#         770
  -------         ENDPROC       _VER_HORARIO_DESDE_HASTA
  -------         PROC          _PROG_HORARIO_DIAS
  X:0075H         SYMBOL        addr
  -------         DO            
  X:0077H         SYMBOL        buffer
  X:0081H         SYMBOL        dataee
  X:0082H         SYMBOL        j
  X:0083H         SYMBOL        temp
  -------         ENDDO         
  C:4EC9H         LINE#         772
  C:4ED1H         LINE#         773
  C:4ED1H         LINE#         777
  C:4EDAH         LINE#         778
  C:4EE3H         LINE#         779
  C:4EECH         LINE#         780
  C:4EF7H         LINE#         783
  C:4F00H         LINE#         785
  C:4F16H         LINE#         786
  C:4F16H         LINE#         788
  C:4F29H         LINE#         789
  C:4F29H         LINE#         790
  C:4F32H         LINE#         792
  C:4F47H         LINE#         793
  C:4F5FH         LINE#         794
  C:4F6CH         LINE#         795
  C:4F6CH         LINE#         797
  C:4F82H         LINE#         798
  C:4F82H         LINE#         799
  C:4F8BH         LINE#         800
  C:4FA0H         LINE#         801
  C:4FB8H         LINE#         802
  C:4FC5H         LINE#         803
  C:4FC5H         LINE#         805
  C:4FDBH         LINE#         806
  C:4FDBH         LINE#         807
  C:4FE4H         LINE#         808
  C:4FF9H         LINE#         809
  C:5011H         LINE#         810
  C:501EH         LINE#         811
  C:501EH         LINE#         813
BL51 BANKED LINKER/LOCATER V6.22.2.0                                                  10/09/2020  16:27:21  PAGE 71


  C:5034H         LINE#         814
  C:5034H         LINE#         815
  C:503DH         LINE#         816
  C:5052H         LINE#         817
  C:506AH         LINE#         818
  C:5077H         LINE#         819
  C:5077H         LINE#         821
  C:508DH         LINE#         822
  C:508DH         LINE#         823
  C:5096H         LINE#         824
  C:50ABH         LINE#         825
  C:50C3H         LINE#         826
  C:50D0H         LINE#         827
  C:50D0H         LINE#         829
  C:50E6H         LINE#         830
  C:50E6H         LINE#         831
  C:50EFH         LINE#         832
  C:5104H         LINE#         833
  C:511CH         LINE#         834
  C:5129H         LINE#         835
  C:5129H         LINE#         837
  C:513FH         LINE#         838
  C:513FH         LINE#         839
  C:5148H         LINE#         840
  C:5157H         LINE#         841
  C:5169H         LINE#         842
  C:5176H         LINE#         843
  C:5176H         LINE#         844
  C:517FH         LINE#         846
  -------         ENDPROC       _PROG_HORARIO_DIAS
  -------         PROC          _VER_HORARIO_DIAS
  X:0088H         SYMBOL        addr
  -------         DO            
  X:008AH         SYMBOL        dataee
  -------         ENDDO         
  C:722AH         LINE#         847
  C:7232H         LINE#         848
  C:7232H         LINE#         851
  C:7242H         LINE#         852
  C:7248H         LINE#         853
  C:7248H         LINE#         854
  C:724CH         LINE#         855
  C:724EH         LINE#         857
  C:724EH         LINE#         858
  C:7255H         LINE#         859
  C:7255H         LINE#         862
  C:726DH         LINE#         863
  C:7273H         LINE#         864
  C:7273H         LINE#         865
  C:7277H         LINE#         866
  C:7279H         LINE#         868
  C:7279H         LINE#         869
  C:7280H         LINE#         870
  C:7280H         LINE#         873
  C:7298H         LINE#         874
  C:729EH         LINE#         875
  C:729EH         LINE#         876
BL51 BANKED LINKER/LOCATER V6.22.2.0                                                  10/09/2020  16:27:21  PAGE 72


  C:72A2H         LINE#         877
  C:72A4H         LINE#         879
  C:72A4H         LINE#         880
  C:72ABH         LINE#         881
  C:72ABH         LINE#         883
  C:72C3H         LINE#         884
  C:72C9H         LINE#         885
  C:72C9H         LINE#         886
  C:72CDH         LINE#         887
  C:72CFH         LINE#         889
  C:72CFH         LINE#         890
  C:72D6H         LINE#         891
  C:72D6H         LINE#         893
  C:72EEH         LINE#         894
  C:72F4H         LINE#         895
  C:72F4H         LINE#         896
  C:72F8H         LINE#         897
  C:72FAH         LINE#         899
  C:72FAH         LINE#         900
  C:7301H         LINE#         901
  C:7301H         LINE#         904
  C:7319H         LINE#         905
  C:731FH         LINE#         906
  C:731FH         LINE#         907
  C:7323H         LINE#         908
  C:7325H         LINE#         910
  C:7325H         LINE#         911
  C:732CH         LINE#         912
  C:732CH         LINE#         914
  C:733EH         LINE#         915
  C:7344H         LINE#         916
  C:7344H         LINE#         917
  C:7348H         LINE#         918
  C:734AH         LINE#         920
  C:734AH         LINE#         921
  C:7351H         LINE#         922
  C:7351H         LINE#         923
  -------         ENDPROC       _VER_HORARIO_DIAS
  -------         PROC          PROG_HORARIOS
  -------         DO            
  X:005AH         SYMBOL        buffer
  X:0064H         SYMBOL        ee_addr_horario
  X:006FH         SYMBOL        addr
  X:0071H         SYMBOL        temp
  X:0073H         SYMBOL        dataee
  X:0074H         SYMBOL        j
  -------         ENDDO         
  C:6AC8H         LINE#         924
  C:6AC8H         LINE#         925
  C:6AC8H         LINE#         934
  C:6AD4H         LINE#         938
  C:6ADDH         LINE#         939
  C:6AE8H         LINE#         941
  C:6AF7H         LINE#         945
  C:6B0DH         LINE#         946
  C:6B13H         LINE#         950
  C:6B21H         LINE#         951
BL51 BANKED LINKER/LOCATER V6.22.2.0                                                  10/09/2020  16:27:21  PAGE 73


  C:6B29H         LINE#         952
  C:6B29H         LINE#         954
  C:6B38H         LINE#         955
  C:6B4CH         LINE#         956
  C:6B4CH         LINE#         957
  C:6B60H         LINE#         958
  C:6B68H         LINE#         960
  C:6B78H         LINE#         963
  C:6B7BH         LINE#         967
  C:6B86H         LINE#         970
  C:6B8FH         LINE#         971
  C:6B9AH         LINE#         972
  C:6BA9H         LINE#         973
  C:6BBCH         LINE#         975
  C:6BD4H         LINE#         976
  C:6BEEH         LINE#         977
  C:6BF6H         LINE#         978
  C:6BF6H         LINE#         980
  C:6C04H         LINE#         981
  C:6C0CH         LINE#         982
  C:6C0CH         LINE#         983
  C:6C0CH         LINE#         985
  -------         ENDPROC       PROG_HORARIOS
  -------         PROC          PROG_FECHA_VENCIMIENTO
  -------         DO            
  X:005AH         SYMBOL        buffer
  X:0065H         SYMBOL        cmd
  X:0068H         SYMBOL        fecha
  X:006FH         SYMBOL        dataee
  -------         ENDDO         
  C:57A3H         LINE#         986
  C:57A3H         LINE#         987
  C:57A3H         LINE#         994
  C:57B0H         LINE#         995
  C:57C7H         LINE#         998
  C:57DEH         LINE#         1000
  C:57DEH         LINE#         1001
  C:57E7H         LINE#         1002
  C:57F4H         LINE#         1003
  C:580BH         LINE#         1004
  C:581DH         LINE#         1005
  C:5826H         LINE#         1010
  C:5831H         LINE#         1011
  C:5845H         LINE#         1012
  C:5852H         LINE#         1014
  C:585BH         LINE#         1017
  C:5864H         LINE#         1018
  C:586FH         LINE#         1019
  C:5886H         LINE#         1021
  C:588EH         LINE#         1022
  C:5896H         LINE#         1023
  C:5899H         LINE#         1025
  C:58AAH         LINE#         1026
  C:58BBH         LINE#         1028
  C:58CAH         LINE#         1029
  C:58D2H         LINE#         1030
  C:58DAH         LINE#         1031
BL51 BANKED LINKER/LOCATER V6.22.2.0                                                  10/09/2020  16:27:21  PAGE 74


  C:58DDH         LINE#         1032
  C:58EEH         LINE#         1033
  C:58FFH         LINE#         1034
  C:590EH         LINE#         1035
  C:5916H         LINE#         1036
  C:591EH         LINE#         1037
  C:5921H         LINE#         1038
  C:5932H         LINE#         1039
  C:5943H         LINE#         1040
  C:5952H         LINE#         1041
  C:595DH         LINE#         1043
  C:596AH         LINE#         1045
  C:5981H         LINE#         1046
  -------         ENDPROC       PROG_FECHA_VENCIMIENTO
  -------         PROC          VER_HORARIO
  -------         DO            
  X:006DH         SYMBOL        buffer
  X:0077H         SYMBOL        ee_addr_horario
  X:0082H         SYMBOL        conta
  X:0083H         SYMBOL        addr
  X:0085H         SYMBOL        temp
  X:0087H         SYMBOL        dataee
  -------         ENDDO         
  C:6FCAH         LINE#         1049
  C:6FCAH         LINE#         1050
  C:6FCAH         LINE#         1059
  C:6FD6H         LINE#         1060
  C:6FECH         LINE#         1061
  C:6FECH         LINE#         1063
  C:6FFCH         LINE#         1066
  C:7015H         LINE#         1067
  C:701BH         LINE#         1070
  C:7029H         LINE#         1071
  C:7038H         LINE#         1072
  C:7052H         LINE#         1073
  C:705DH         LINE#         1074
  C:705DH         LINE#         1075
  C:7066H         LINE#         1077
  C:706FH         LINE#         1078
  C:707FH         LINE#         1079
  C:7082H         LINE#         1081
  C:708DH         LINE#         1082
  C:70A5H         LINE#         1083
  C:70BFH         LINE#         1084
  C:70C9H         LINE#         1085
  C:70C9H         LINE#         1086
  C:70D0H         LINE#         1088
  C:70DEH         LINE#         1089
  C:70E6H         LINE#         1090
  C:70E8H         LINE#         1092
  C:70E8H         LINE#         1093
  C:70ECH         LINE#         1094
  C:70ECH         LINE#         1095
  C:70EEH         LINE#         1097
  C:70EEH         LINE#         1098
  C:70F7H         LINE#         1099
  C:70F7H         LINE#         1101
BL51 BANKED LINKER/LOCATER V6.22.2.0                                                  10/09/2020  16:27:21  PAGE 75


  C:7100H         LINE#         1104
  -------         ENDPROC       VER_HORARIO
  -------         PROC          VER_PROG
  -------         DO            
  X:005AH         SYMBOL        buffer
  X:0064H         SYMBOL        dataee
  X:0066H         SYMBOL        fecha
  -------         ENDDO         
  C:428DH         LINE#         1105
  C:428DH         LINE#         1106
  C:428DH         LINE#         1112
  C:429FH         LINE#         1113
  C:42BCH         LINE#         1115
  C:42D3H         LINE#         1117
  C:42E6H         LINE#         1118
  C:4303H         LINE#         1120
  C:431AH         LINE#         1122
  C:432DH         LINE#         1123
  C:434AH         LINE#         1125
  C:4361H         LINE#         1127
  C:4374H         LINE#         1128
  C:4391H         LINE#         1129
  C:439BH         LINE#         1130
  C:439BH         LINE#         1131
  C:43A1H         LINE#         1132
  C:43A3H         LINE#         1133
  C:43AFH         LINE#         1134
  C:43AFH         LINE#         1135
  C:43B8H         LINE#         1136
  C:43B8H         LINE#         1139
  C:43CBH         LINE#         1140
  C:43E8H         LINE#         1141
  C:43F6H         LINE#         1142
  C:43F6H         LINE#         1143
  C:43FAH         LINE#         1144
  C:43FCH         LINE#         1146
  C:43FCH         LINE#         1147
  C:4403H         LINE#         1148
  C:4403H         LINE#         1150
  C:4416H         LINE#         1151
  C:4433H         LINE#         1152
  C:443FH         LINE#         1153
  C:443FH         LINE#         1154
  C:4443H         LINE#         1155
  C:4445H         LINE#         1157
  C:4445H         LINE#         1158
  C:444CH         LINE#         1159
  C:444CH         LINE#         1161
  C:445FH         LINE#         1162
  C:447CH         LINE#         1163
  C:4488H         LINE#         1164
  C:4488H         LINE#         1165
  C:448CH         LINE#         1166
  C:448EH         LINE#         1168
  C:448EH         LINE#         1169
  C:4495H         LINE#         1170
  C:4495H         LINE#         1173
BL51 BANKED LINKER/LOCATER V6.22.2.0                                                  10/09/2020  16:27:21  PAGE 76


  C:44A8H         LINE#         1174
  C:44C5H         LINE#         1175
  C:44D1H         LINE#         1176
  C:44D1H         LINE#         1177
  C:44D5H         LINE#         1178
  C:44D7H         LINE#         1180
  C:44D7H         LINE#         1181
  C:44DEH         LINE#         1182
  C:44DEH         LINE#         1184
  C:44F1H         LINE#         1185
  C:450EH         LINE#         1186
  C:4518H         LINE#         1187
  C:4518H         LINE#         1188
  C:452BH         LINE#         1189
  C:452DH         LINE#         1191
  C:452DH         LINE#         1192
  C:4544H         LINE#         1193
  C:4544H         LINE#         1195
  C:4557H         LINE#         1196
  C:4574H         LINE#         1197
  C:4580H         LINE#         1198
  C:4580H         LINE#         1199
  C:4584H         LINE#         1200
  C:4586H         LINE#         1202
  C:4586H         LINE#         1203
  C:458DH         LINE#         1204
  C:458DH         LINE#         1206
  C:45A0H         LINE#         1207
  C:45BDH         LINE#         1208
  C:45C7H         LINE#         1209
  C:45C7H         LINE#         1210
  C:45DDH         LINE#         1211
  C:45DDH         LINE#         1215
  C:45E0H         LINE#         1218
  C:45EDH         LINE#         1220
  C:4604H         LINE#         1221
  -------         ENDPROC       VER_PROG
  -------         PROC          SHOW
  C:9C41H         LINE#         1226
  C:9C41H         LINE#         1227
  C:9C41H         LINE#         1228
  C:9C4AH         LINE#         1229
  C:9C53H         LINE#         1230
  C:9C5CH         LINE#         1231
  C:9C65H         LINE#         1232
  C:9C6EH         LINE#         1233
  C:9C77H         LINE#         1234
  C:9C80H         LINE#         1235
  C:9C89H         LINE#         1236
  C:9C92H         LINE#         1237
  C:9C9BH         LINE#         1238
  C:9CA4H         LINE#         1239
  C:9CADH         LINE#         1240
  C:9CB6H         LINE#         1241
  C:9CBFH         LINE#         1242
  -------         ENDPROC       SHOW
  -------         PROC          FIRST_CLAVE
BL51 BANKED LINKER/LOCATER V6.22.2.0                                                  10/09/2020  16:27:21  PAGE 77


  -------         DO            
  X:005AH         SYMBOL        clave
  -------         ENDDO         
  C:A6A0H         LINE#         1248
  C:A6A0H         LINE#         1249
  C:A6A0H         LINE#         1253
  C:A6A9H         LINE#         1254
  C:A6AEH         LINE#         1255
  C:A6C0H         LINE#         1256
  C:A6CDH         LINE#         1257
  C:A6D3H         LINE#         1258
  C:A6D6H         LINE#         1259
  C:A6D9H         LINE#         1260
  C:A6DBH         LINE#         1262
  -------         ENDPROC       FIRST_CLAVE
  -------         PROC          MENU
  -------         DO            
  X:0001H         SYMBOL        cmd
  X:0004H         SYMBOL        option1
  X:0007H         SYMBOL        option2
  X:000AH         SYMBOL        opt_buffer
  X:0032H         SYMBOL        buffer
  -------         ENDDO         
  C:5180H         LINE#         1270
  C:5180H         LINE#         1271
  C:5180H         LINE#         1280
  C:5189H         LINE#         1281
  C:5195H         LINE#         1282
  C:5195H         LINE#         1283
  C:5198H         LINE#         1284
  C:51A2H         LINE#         1287
  C:51A2H         LINE#         1290
  C:51A2H         LINE#         1291
  C:51ABH         LINE#         1292
  C:51B8H         LINE#         1293
  C:51BDH         LINE#         1294
  C:51D3H         LINE#         1295
  C:51E5H         LINE#         1296
  C:51EEH         LINE#         1301
  C:51F9H         LINE#         1302
  C:5207H         LINE#         1303
  C:5214H         LINE#         1304
  C:521DH         LINE#         1308
  C:5220H         LINE#         1309
  C:5220H         LINE#         1310
  C:5220H         LINE#         1311
  C:5223H         LINE#         1314
  C:522EH         LINE#         1315
  C:523CH         LINE#         1316
  C:5250H         LINE#         1317
  C:5264H         LINE#         1322
  C:527AH         LINE#         1323
  C:527AH         LINE#         1325
  C:5289H         LINE#         1326
  C:528BH         LINE#         1327
  C:529BH         LINE#         1328
  C:529BH         LINE#         1330
BL51 BANKED LINKER/LOCATER V6.22.2.0                                                  10/09/2020  16:27:21  PAGE 78


  C:52AAH         LINE#         1331
  C:52C8H         LINE#         1332
  C:52C8H         LINE#         1338
  C:52DBH         LINE#         1339
  C:52DBH         LINE#         1340
  C:531EH         LINE#         1341
  C:531EH         LINE#         1342
  C:531EH         LINE#         1343
  C:5321H         LINE#         1345
  C:5324H         LINE#         1347
  C:5324H         LINE#         1348
  C:5327H         LINE#         1349
  C:532AH         LINE#         1351
  C:532AH         LINE#         1353
  C:532DH         LINE#         1355
  C:5330H         LINE#         1357
  C:5330H         LINE#         1358
  C:5333H         LINE#         1360
  C:5336H         LINE#         1362
  C:5336H         LINE#         1363
  C:5339H         LINE#         1364
  C:533CH         LINE#         1365
  C:533CH         LINE#         1366
  C:533FH         LINE#         1367
  C:5342H         LINE#         1368
  C:5342H         LINE#         1369
  C:5345H         LINE#         1371
  C:5348H         LINE#         1372
  C:5348H         LINE#         1373
  C:534BH         LINE#         1374
  C:534EH         LINE#         1376
  C:534EH         LINE#         1377
  C:5351H         LINE#         1378
  C:5354H         LINE#         1379
  C:5354H         LINE#         1380
  C:5357H         LINE#         1381
  C:535AH         LINE#         1382
  C:535AH         LINE#         1383
  C:535DH         LINE#         1384
  C:5360H         LINE#         1385
  C:5360H         LINE#         1386
  C:5363H         LINE#         1387
  C:5366H         LINE#         1389
  C:5366H         LINE#         1391
  C:5369H         LINE#         1392
  C:536CH         LINE#         1393
  C:536CH         LINE#         1395
  C:536FH         LINE#         1396
  C:5372H         LINE#         1397
  C:5372H         LINE#         1400
  C:5372H         LINE#         1401
  C:5372H         LINE#         1402
  C:5375H         LINE#         1403
  C:5378H         LINE#         1406
  C:5378H         LINE#         1407
  C:5396H         LINE#         1408
  C:5399H         LINE#         1409
BL51 BANKED LINKER/LOCATER V6.22.2.0                                                  10/09/2020  16:27:21  PAGE 79


  C:5399H         LINE#         1410
  C:5399H         LINE#         1411
  C:5399H         LINE#         1412
  -------         ENDPROC       MENU
  -------         ENDMOD        PROG

  -------         MODULE        PTO_PARALELO
  C:0000H         SYMBOL        _ICE_DUMMY_
  D:0080H         PUBLIC        P0
  D:00A0H         PUBLIC        P2
  D:00B0H         PUBLIC        P3
  B:0080H.2       PUBLIC        led_err_imp
  C:769AH         PUBLIC        load_and_send_id_cod
  C:9467H         PUBLIC        _recibe_port
  B:00B0H.2       PUBLIC        ready
  B:0080H.6       PUBLIC        rx_in_data
  C:AECFH         PUBLIC        Pulso_Bus
  C:9AA9H         PUBLIC        _send_portERR
  B:00B0H.3       PUBLIC        busy
  C:AC2BH         PUBLIC        load_and_send_info_reloj
  C:8DD4H         PUBLIC        _send_port
  B:00B0H.4       PUBLIC        port_clk
  C:4BFCH         PUBLIC        _Trama_pto_Paralelo_new
  C:79BCH         PUBLIC        _Trama_pto_Paralelo_P
  C:AF40H         PUBLIC        cond_ini_pto
  -------         PROC          _RECIBE_PORT
  X:0001H         SYMBOL        buffer_port
  -------         DO            
  D:0006H         SYMBOL        count
  X:0004H         SYMBOL        time_out
  X:0005H         SYMBOL        num_data
  X:0006H         SYMBOL        T_ANCHO
  X:0008H         SYMBOL        data_temp
  -------         ENDDO         
  C:9467H         LINE#         46
  C:9472H         LINE#         47
  C:9472H         LINE#         51
  C:947BH         LINE#         52
  C:947EH         LINE#         55
  C:9481H         LINE#         56
  C:9481H         LINE#         58
  C:9484H         LINE#         59
  C:9489H         LINE#         60
  C:948BH         LINE#         61
  C:948FH         LINE#         62
  C:9491H         LINE#         65
  C:9496H         LINE#         66
  C:949FH         LINE#         67
  C:949FH         LINE#         68
  C:94A2H         LINE#         69
  C:94A2H         LINE#         71
  C:94A7H         LINE#         72
  C:94ABH         LINE#         73
  C:94ABH         LINE#         74
  C:94ADH         LINE#         75
  C:94AFH         LINE#         76
  C:94AFH         LINE#         77
BL51 BANKED LINKER/LOCATER V6.22.2.0                                                  10/09/2020  16:27:21  PAGE 80


  C:94AFH         LINE#         79
  C:94AFH         LINE#         80
  C:94BCH         LINE#         81
  C:94BCH         LINE#         83
  C:94BFH         LINE#         84
  C:94BFH         LINE#         86
  C:94C5H         LINE#         88
  C:94C7H         LINE#         89
  C:94DBH         LINE#         90
  C:94E5H         LINE#         91
  C:94EBH         LINE#         92
  C:94F1H         LINE#         93
  C:94F3H         LINE#         94
  C:94F3H         LINE#         95
  C:94F3H         LINE#         96
  C:94F3H         LINE#         97
  C:94F3H         LINE#         99
  C:94F6H         LINE#         100
  C:94F8H         LINE#         101
  C:94FAH         LINE#         102
  C:94FAH         LINE#         103
  C:94FDH         LINE#         105
  C:9502H         LINE#         106
  -------         ENDPROC       _RECIBE_PORT
  -------         PROC          _SEND_PORT
  X:003BH         SYMBOL        buffer_port
  X:003EH         SYMBOL        length_char
  -------         DO            
  X:003FH         SYMBOL        cont
  X:0043H         SYMBOL        timeOut
  X:0044H         SYMBOL        length
  -------         ENDDO         
  C:8DD4H         LINE#         113
  C:8DE2H         LINE#         114
  C:8DE2H         LINE#         119
  C:8DE6H         LINE#         121
  C:8DE8H         LINE#         122
  C:8DEAH         LINE#         123
  C:8DECH         LINE#         124
  C:8DF1H         LINE#         125
  C:8DF3H         LINE#         126
  C:8DFDH         LINE#         128
  C:8E06H         LINE#         129
  C:8E06H         LINE#         130
  C:8E08H         LINE#         131
  C:8E0AH         LINE#         132
  C:8E2EH         LINE#         133
  C:8E42H         LINE#         134
  C:8E42H         LINE#         135
  C:8E45H         LINE#         136
  C:8E47H         LINE#         137
  C:8E47H         LINE#         138
  C:8E49H         LINE#         139
  C:8E52H         LINE#         140
  C:8E52H         LINE#         144
  C:8E52H         LINE#         146
  C:8E62H         LINE#         147
BL51 BANKED LINKER/LOCATER V6.22.2.0                                                  10/09/2020  16:27:21  PAGE 81


  C:8E65H         LINE#         148
  C:8E6FH         LINE#         150
  C:8E75H         LINE#         151
  C:8E78H         LINE#         153
  C:8E78H         LINE#         154
  C:8E7BH         LINE#         155
  C:8E7DH         LINE#         156
  C:8E7FH         LINE#         157
  C:8E81H         LINE#         158
  -------         ENDPROC       _SEND_PORT
  -------         PROC          _TRAMA_PTO_PARALELO_P
  D:0001H         SYMBOL        buffer_S1_B0
  X:0014H         SYMBOL        buffer_S1_B2
  X:0017H         SYMBOL        cmd
  -------         DO            
  X:025CH         SYMBOL        Buffer_port
  X:0018H         SYMBOL        j
  -------         ENDDO         
  C:79BCH         LINE#         226
  C:79BCH         LINE#         227
  C:79BCH         LINE#         230
  C:79C2H         LINE#         231
  C:79C7H         LINE#         232
  C:79CFH         LINE#         233
  C:79D3H         LINE#         235
  C:79D3H         LINE#         236
  C:79EAH         LINE#         237
  C:79F1H         LINE#         238
  C:79F6H         LINE#         239
  C:7A00H         LINE#         240
  C:7A13H         LINE#         242
  C:7A13H         LINE#         243
  C:7A27H         LINE#         244
  C:7A43H         LINE#         245
  C:7A43H         LINE#         258
  C:7A57H         LINE#         261
  C:7A6DH         LINE#         262
  C:7A6DH         LINE#         263
  C:7A7EH         LINE#         264
  C:7A80H         LINE#         266
  C:7A80H         LINE#         267
  C:7A91H         LINE#         268
  C:7A91H         LINE#         271
  C:7A93H         LINE#         273
  C:7AA1H         LINE#         274
  C:7AA4H         LINE#         276
  C:7AB8H         LINE#         277
  -------         ENDPROC       _TRAMA_PTO_PARALELO_P
  -------         PROC          _TRAMA_PTO_PARALELO_NEW
  D:0001H         SYMBOL        buffer_S1_B0
  X:0018H         SYMBOL        buffer_S1_B2
  X:001BH         SYMBOL        cmd
  -------         DO            
  X:001CH         SYMBOL        Buffer_port
  X:003AH         SYMBOL        j
  -------         ENDDO         
  C:4BFCH         LINE#         285
BL51 BANKED LINKER/LOCATER V6.22.2.0                                                  10/09/2020  16:27:21  PAGE 82


  C:4BFCH         LINE#         286
  C:4BFCH         LINE#         288
  C:4C02H         LINE#         290
  C:4C06H         LINE#         291
  C:4C0EH         LINE#         294
  C:4C0EH         LINE#         295
  C:4C25H         LINE#         296
  C:4C2CH         LINE#         297
  C:4C31H         LINE#         299
  C:4C47H         LINE#         301
  C:4C47H         LINE#         302
  C:4C58H         LINE#         303
  C:4C74H         LINE#         304
  C:4C76H         LINE#         306
  C:4C76H         LINE#         307
  C:4C87H         LINE#         308
  C:4C9BH         LINE#         309
  C:4C9BH         LINE#         311
  C:4CB5H         LINE#         312
  C:4CB5H         LINE#         313
  C:4CB8H         LINE#         314
  C:4CBAH         LINE#         316
  C:4CBAH         LINE#         317
  C:4CBDH         LINE#         318
  C:4CBDH         LINE#         320
  C:4CD1H         LINE#         321
  C:4CEAH         LINE#         322
  C:4D06H         LINE#         323
  C:4D22H         LINE#         324
  C:4D3EH         LINE#         325
  C:4D5AH         LINE#         326
  C:4D6EH         LINE#         328
  C:4D7EH         LINE#         330
  C:4DA2H         LINE#         331
  C:4DC6H         LINE#         332
  C:4DEAH         LINE#         333
  C:4E0EH         LINE#         334
  C:4E32H         LINE#         338
  C:4E46H         LINE#         341
  C:4E5CH         LINE#         342
  C:4E5CH         LINE#         343
  C:4E6DH         LINE#         344
  C:4E6FH         LINE#         346
  C:4E6FH         LINE#         347
  C:4E80H         LINE#         348
  C:4E80H         LINE#         349
  C:4E94H         LINE#         352
  C:4E96H         LINE#         353
  C:4E99H         LINE#         354
  C:4EA7H         LINE#         356
  C:4EAAH         LINE#         357
  C:4EB3H         LINE#         358
  C:4EC6H         LINE#         359
  -------         ENDPROC       _TRAMA_PTO_PARALELO_NEW
  -------         PROC          PULSO_BUS
  C:AECFH         LINE#         367
  C:AECFH         LINE#         368
BL51 BANKED LINKER/LOCATER V6.22.2.0                                                  10/09/2020  16:27:21  PAGE 83


  C:AECFH         LINE#         369
  C:AED1H         LINE#         370
  C:AED8H         LINE#         371
  C:AEDAH         LINE#         372
  -------         ENDPROC       PULSO_BUS
  -------         PROC          _SEND_PORTERR
  X:002EH         SYMBOL        cod_err
  -------         DO            
  X:002FH         SYMBOL        timeOut
  X:0030H         SYMBOL        cont
  -------         ENDDO         
  C:9AA9H         LINE#         377
  C:9AAFH         LINE#         378
  C:9AAFH         LINE#         382
  C:9AB1H         LINE#         383
  C:9AB3H         LINE#         384
  C:9AB6H         LINE#         385
  C:9ABEH         LINE#         387
  C:9AC0H         LINE#         388
  C:9AC2H         LINE#         389
  C:9ACBH         LINE#         390
  C:9ACBH         LINE#         391
  C:9AEDH         LINE#         392
  C:9B01H         LINE#         393
  C:9B01H         LINE#         394
  C:9B06H         LINE#         395
  C:9B06H         LINE#         396
  C:9B08H         LINE#         397
  C:9B11H         LINE#         398
  C:9B11H         LINE#         399
  C:9B17H         LINE#         400
  C:9B1AH         LINE#         401
  C:9B1AH         LINE#         402
  C:9B1CH         LINE#         403
  C:9B1EH         LINE#         404
  C:9B20H         LINE#         406
  C:9B23H         LINE#         408
  C:9B2AH         LINE#         409
  -------         ENDPROC       _SEND_PORTERR
  -------         PROC          COND_INI_PTO
  C:AF40H         LINE#         415
  C:AF40H         LINE#         416
  C:AF40H         LINE#         418
  C:AF42H         LINE#         419
  C:AF44H         LINE#         420
  C:AF46H         LINE#         421
  C:AF49H         LINE#         422
  -------         ENDPROC       COND_INI_PTO
  -------         PROC          LOAD_AND_SEND_INFO_RELOJ
  -------         DO            
  X:0002H         SYMBOL        buffer_info
  -------         ENDDO         
  C:AC2BH         LINE#         427
  C:AC2BH         LINE#         428
  C:AC2BH         LINE#         431
  C:AC31H         LINE#         433
  C:AC35H         LINE#         435
BL51 BANKED LINKER/LOCATER V6.22.2.0                                                  10/09/2020  16:27:21  PAGE 84


  C:AC3EH         LINE#         436
  C:AC48H         LINE#         437
  C:AC4CH         LINE#         441
  -------         ENDPROC       LOAD_AND_SEND_INFO_RELOJ
  -------         PROC          LOAD_AND_SEND_ID_COD
  -------         DO            
  X:0002H         SYMBOL        buffer_info
  X:000DH         SYMBOL        buf
  X:0011H         SYMBOL        i
  X:0012H         SYMBOL        k
  -------         ENDDO         
  C:769AH         LINE#         448
  C:769AH         LINE#         449
  C:769AH         LINE#         453
  C:769FH         LINE#         455
  C:76A5H         LINE#         456
  C:76A9H         LINE#         457
  C:76CFH         LINE#         458
  C:76D5H         LINE#         459
  C:76D5H         LINE#         460
  C:76E6H         LINE#         461
  C:76E6H         LINE#         462
  C:76F5H         LINE#         463
  C:76FBH         LINE#         464
  C:76FDH         LINE#         465
  C:7715H         LINE#         467
  C:771DH         LINE#         470
  C:7743H         LINE#         472
  C:7748H         LINE#         473
  C:7748H         LINE#         474
  C:7759H         LINE#         475
  C:7759H         LINE#         476
  C:7768H         LINE#         477
  C:776EH         LINE#         478
  C:7788H         LINE#         479
  C:7790H         LINE#         482
  C:77A1H         LINE#         483
  -------         ENDPROC       LOAD_AND_SEND_ID_COD
  -------         ENDMOD        PTO_PARALELO

  -------         MODULE        TIBBO
  C:0000H         SYMBOL        _ICE_DUMMY_
  C:A803H         PUBLIC        _Debug_HexDec
  C:A893H         PUBLIC        _Debug_txt_Tibbo
  D:0080H         PUBLIC        P0
  D:0090H         PUBLIC        P1
  C:9284H         PUBLIC        _Debug_Fecha_actual
  B:0090H.0       PUBLIC        txd2
  B:00A8H.7       PUBLIC        EA
  C:A658H         PUBLIC        _tx_aux
  B:0080H.0       PUBLIC        rx_ip
  C:AF53H         PUBLIC        Debug_Dividir_texto
  C:AF9DH         PUBLIC        cond_ini_tibbo
  C:AE6EH         PUBLIC        time_mbit
  C:9B31H         PUBLIC        rx_Data
  C:ADE8H         PUBLIC        time_bit
  C:A6E8H         PUBLIC        _Debug_pto_paralelo
BL51 BANKED LINKER/LOCATER V6.22.2.0                                                  10/09/2020  16:27:21  PAGE 85


  C:A1B8H         PUBLIC        _DebugBufferMF
  C:A730H         PUBLIC        _Debug_chr_Tibbo
  C:ADE2H         SYMBOL        L?0066
  -------         PROC          L?0065
  -------         ENDPROC       L?0065
  C:ADE2H         SYMBOL        L?0066
  -------         PROC          TIME_BIT
  -------         DO            
  D:0007H         SYMBOL        j
  -------         ENDDO         
  C:ADE8H         LINE#         18
  C:ADE8H         LINE#         19
  C:ADE8H         LINE#         22
  C:ADF4H         LINE#         23
  C:ADF4H         LINE#         24
  C:ADF5H         LINE#         25
  C:ADF6H         LINE#         26
  C:ADF7H         LINE#         27
  C:ADF8H         LINE#         28
  C:ADF9H         LINE#         29
  C:ADFAH         LINE#         30
  C:ADFBH         LINE#         31
  C:ADFCH         LINE#         32
  C:ADFDH         LINE#         37
  C:AE00H         LINE#         38
  -------         ENDPROC       TIME_BIT
  -------         PROC          TIME_MBIT
  -------         DO            
  D:0007H         SYMBOL        j
  -------         ENDDO         
  C:AE6EH         LINE#         41
  C:AE6EH         LINE#         42
  C:AE6EH         LINE#         44
  C:AE7AH         LINE#         45
  C:AE7AH         LINE#         46
  C:AE7BH         LINE#         47
  C:AE7CH         LINE#         48
  C:AE7DH         LINE#         49
  C:AE7EH         LINE#         50
  C:AE7FH         LINE#         51
  C:AE80H         LINE#         52
  C:AE81H         LINE#         53
  C:AE84H         LINE#         55
  -------         ENDPROC       TIME_MBIT
  -------         PROC          L?0067
  -------         ENDPROC       L?0067
  -------         PROC          _TX_AUX
  D:0006H         SYMBOL        caracter
  -------         DO            
  D:0004H         SYMBOL        j
  D:0005H         SYMBOL        temporal
  D:0006H         SYMBOL        bitTX
  -------         ENDDO         
  C:A658H         LINE#         60
  C:A65AH         LINE#         61
  C:A65AH         LINE#         64
  C:A65CH         LINE#         65
BL51 BANKED LINKER/LOCATER V6.22.2.0                                                  10/09/2020  16:27:21  PAGE 86


  C:A65EH         LINE#         66
  C:A661H         LINE#         67
  C:A662H         LINE#         68
  C:A663H         LINE#         69
  C:A665H         LINE#         70
  C:A669H         LINE#         71
  C:A66BH         LINE#         72
  C:A66BH         LINE#         73
  C:A66DH         LINE#         74
  C:A66FH         LINE#         76
  C:A66FH         LINE#         77
  C:A671H         LINE#         78
  C:A671H         LINE#         79
  C:A674H         LINE#         80
  C:A680H         LINE#         81
  C:A680H         LINE#         82
  C:A684H         LINE#         83
  C:A687H         LINE#         84
  C:A689H         LINE#         85
  C:A689H         LINE#         86
  C:A68BH         LINE#         87
  C:A68DH         LINE#         89
  C:A68DH         LINE#         90
  C:A68FH         LINE#         91
  C:A68FH         LINE#         92
  C:A692H         LINE#         93
  C:A695H         LINE#         94
  C:A697H         LINE#         95
  C:A69AH         LINE#         96
  C:A69DH         LINE#         98
  C:A69FH         LINE#         99
  -------         ENDPROC       _TX_AUX
  -------         PROC          _DEBUG_HEXDEC
  D:0007H         SYMBOL        xfc
  -------         DO            
  X:0015H         SYMBOL        valor
  D:0006H         SYMBOL        centena
  D:0003H         SYMBOL        decena
  D:0002H         SYMBOL        unidad
  -------         ENDDO         
  C:A803H         LINE#         102
  C:A803H         LINE#         103
  C:A803H         LINE#         106
  C:A80AH         LINE#         108
  C:A80BH         LINE#         109
  C:A80CH         LINE#         110
  C:A80DH         LINE#         112
  C:A815H         LINE#         113
  C:A815H         LINE#         114
  C:A81FH         LINE#         115
  C:A81FH         LINE#         116
  C:A823H         LINE#         117
  C:A824H         LINE#         118
  C:A826H         LINE#         119
  C:A830H         LINE#         120
  C:A830H         LINE#         121
  C:A834H         LINE#         122
BL51 BANKED LINKER/LOCATER V6.22.2.0                                                  10/09/2020  16:27:21  PAGE 87


  C:A835H         LINE#         123
  C:A837H         LINE#         124
  C:A839H         LINE#         125
  C:A83DH         LINE#         126
  C:A841H         LINE#         127
  C:A848H         LINE#         129
  C:A848H         LINE#         130
  -------         ENDPROC       _DEBUG_HEXDEC
  -------         PROC          _DEBUG_CHR_TIBBO
  D:0003H         SYMBOL        Dat
  -------         DO            
  D:0007H         SYMBOL        temp
  -------         ENDDO         
  C:A730H         LINE#         135
  C:A732H         LINE#         136
  C:A732H         LINE#         139
  C:A73AH         LINE#         140
  C:A73AH         LINE#         141
  C:A741H         LINE#         142
  C:A754H         LINE#         144
  C:A757H         LINE#         146
  C:A75BH         LINE#         147
  C:A76EH         LINE#         148
  C:A771H         LINE#         149
  C:A776H         LINE#         151
  C:A776H         LINE#         152
  -------         ENDPROC       _DEBUG_CHR_TIBBO
  -------         PROC          _DEBUGBUFFERMF
  X:003BH         SYMBOL        str
  X:003EH         SYMBOL        num_char
  X:003FH         SYMBOL        io
  -------         DO            
  X:0040H         SYMBOL        j
  -------         ENDDO         
  C:A1B8H         LINE#         159
  C:A1C6H         LINE#         160
  C:A1C6H         LINE#         164
  C:A1CEH         LINE#         165
  C:A1CEH         LINE#         167
  C:A1DDH         LINE#         168
  C:A1DDH         LINE#         169
  C:A1E1H         LINE#         170
  C:A1EAH         LINE#         171
  C:A1FCH         LINE#         172
  C:A1FCH         LINE#         173
  C:A20EH         LINE#         174
  C:A218H         LINE#         175
  C:A220H         LINE#         177
  C:A225H         LINE#         178
  C:A22AH         LINE#         180
  C:A22AH         LINE#         182
  -------         ENDPROC       _DEBUGBUFFERMF
  -------         PROC          L?0068
  -------         ENDPROC       L?0068
  -------         PROC          _DEBUG_TXT_TIBBO
  X:0041H         SYMBOL        str
  -------         DO            
BL51 BANKED LINKER/LOCATER V6.22.2.0                                                  10/09/2020  16:27:21  PAGE 88


  X:0044H         SYMBOL        i
  -------         ENDDO         
  C:A893H         LINE#         187
  C:A89EH         LINE#         188
  C:A89EH         LINE#         190
  C:A8A1H         LINE#         193
  C:A8A9H         LINE#         194
  C:A8A9H         LINE#         195
  C:A8C5H         LINE#         196
  C:A8C5H         LINE#         197
  C:A8C8H         LINE#         198
  C:A8D0H         LINE#         200
  C:A8D0H         LINE#         201
  -------         ENDPROC       _DEBUG_TXT_TIBBO
  -------         PROC          DEBUG_DIVIDIR_TEXTO
  C:AF53H         LINE#         203
  C:AF53H         LINE#         204
  C:AF53H         LINE#         205
  -------         ENDPROC       DEBUG_DIVIDIR_TEXTO
  -------         PROC          RX_DATA
  -------         DO            
  D:0006H         SYMBOL        temporal
  -------         ENDDO         
  C:9B31H         LINE#         211
  C:9B31H         LINE#         212
  C:9B31H         LINE#         215
  C:9B33H         LINE#         216
  C:9B36H         LINE#         218
  C:9B39H         LINE#         220
  C:9B45H         LINE#         221
  C:9B45H         LINE#         223
  C:9B48H         LINE#         225
  C:9B54H         LINE#         226
  C:9B54H         LINE#         228
  C:9B57H         LINE#         230
  C:9B63H         LINE#         231
  C:9B63H         LINE#         233
  C:9B66H         LINE#         235
  C:9B72H         LINE#         236
  C:9B72H         LINE#         238
  C:9B75H         LINE#         240
  C:9B81H         LINE#         241
  C:9B81H         LINE#         243
  C:9B84H         LINE#         245
  C:9B90H         LINE#         246
  C:9B90H         LINE#         248
  C:9B93H         LINE#         250
  C:9B9FH         LINE#         251
  C:9B9FH         LINE#         253
  C:9BA2H         LINE#         254
  C:9BB0H         LINE#         256
  C:9BB3H         LINE#         257
  C:9BB6H         LINE#         258
  C:9BB6H         LINE#         259
  C:9BB6H         LINE#         261
  C:9BB8H         LINE#         263
  -------         ENDPROC       RX_DATA
BL51 BANKED LINKER/LOCATER V6.22.2.0                                                  10/09/2020  16:27:21  PAGE 89


  -------         PROC          _DEBUG_FECHA_ACTUAL
  X:001DH         SYMBOL        buffer
  C:9284H         LINE#         264
  C:928FH         LINE#         265
  C:928FH         LINE#         266
  C:9298H         LINE#         267
  C:92ADH         LINE#         268
  C:92B2H         LINE#         269
  C:92CAH         LINE#         270
  C:92CFH         LINE#         271
  C:92E7H         LINE#         272
  C:92ECH         LINE#         273
  C:9304H         LINE#         274
  C:9309H         LINE#         275
  C:9321H         LINE#         276
  -------         ENDPROC       _DEBUG_FECHA_ACTUAL
  -------         PROC          COND_INI_TIBBO
  C:AF9DH         LINE#         281
  C:AF9DH         LINE#         282
  C:AF9DH         LINE#         284
  C:AF9FH         LINE#         285
  C:AFA1H         LINE#         286
  -------         ENDPROC       COND_INI_TIBBO
  -------         PROC          _DEBUG_PTO_PARALELO
  X:0001H         SYMBOL        buffer
  X:0004H         SYMBOL        Length_trama
  C:A6E8H         LINE#         287
  C:A6F6H         LINE#         288
  C:A6F6H         LINE#         290
  C:A6FFH         LINE#         291
  C:A716H         LINE#         292
  C:A719H         LINE#         293
  C:A722H         LINE#         294
  C:A72AH         LINE#         295
  C:A72DH         LINE#         296
  -------         ENDPROC       _DEBUG_PTO_PARALELO
  -------         ENDMOD        TIBBO

  -------         MODULE        UART
  C:0000H         SYMBOL        _ICE_DUMMY_
  C:ACF8H         PUBLIC        com_getchar
  C:AEE1H         PUBLIC        com_rbuflen
  C:AEF3H         PUBLIC        com_tbuflen
  B:00A8H.4       PUBLIC        ES
  B:0098H.0       PUBLIC        RI
  C:AB4BH         PUBLIC        _com_putchar
  B:0098H.1       PUBLIC        TI
  B:0021H.4       PUBLIC        aSk
  B:00B8H.4       PUBLIC        PS
  D:000DH         SYMBOL        r_in
  D:000EH         SYMBOL        r_out
  D:000FH         SYMBOL        t_in
  D:0010H         SYMBOL        t_out
  D:0099H         PUBLIC        SBUF
  D:0087H         PUBLIC        PCON
  D:0089H         PUBLIC        TMOD
  B:0021H.5       SYMBOL        ti_restart
BL51 BANKED LINKER/LOCATER V6.22.2.0                                                  10/09/2020  16:27:21  PAGE 90


  B:00A8H.3       PUBLIC        ET1
  D:008DH         PUBLIC        TH1
  B:0098H.7       PUBLIC        SM0
  B:0098H.6       PUBLIC        SM1
  D:008BH         PUBLIC        TL1
  B:0098H.5       PUBLIC        SM2
  B:0088H.6       PUBLIC        TR1
  C:AC57H         PUBLIC        com_initialize
  B:0098H.4       PUBLIC        REN
  C:ACA9H         PUBLIC        com_baudrate
  C:5D53H         SYMBOL        com_isr
  X:029DH         PUBLIC        error_rx
  -------         PROC          COM_ISR
  -------         DO            
  X:029BH         SYMBOL        cDatoRx
  D:0006H         SYMBOL        k
  D:0007H         SYMBOL        bcc
  X:029CH         SYMBOL        num_datos
  -------         ENDDO         
  C:5D53H         LINE#         95
  C:5D68H         LINE#         108
  C:5D6EH         LINE#         109
  C:5D6EH         LINE#         111
  C:5D70H         LINE#         112
  C:5D76H         LINE#         113
  C:5D86H         LINE#         114
  C:5D86H         LINE#         115
  C:5D91H         LINE#         116
  C:5D93H         LINE#         118
  C:5D93H         LINE#         119
  C:5DA3H         LINE#         120
  C:5DA3H         LINE#         121
  C:5DA8H         LINE#         122
  C:5DA8H         LINE#         123
  C:5DBFH         LINE#         124
  C:5DBFH         LINE#         128
  C:5DBFH         LINE#         131
  C:5DCEH         LINE#         132
  C:5DCEH         LINE#         133
  C:5DD0H         LINE#         134
  C:5DD8H         LINE#         135
  C:5DDDH         LINE#         137
  C:5DDDH         LINE#         138
  C:5DE0H         LINE#         142
  C:5DE0H         LINE#         143
  C:5DE0H         LINE#         144
  C:5DF8H         LINE#         145
  C:5E07H         LINE#         146
  C:5E07H         LINE#         147
  C:5E07H         LINE#         148
  C:5E09H         LINE#         150
  C:5E09H         LINE#         151
  C:5E0BH         LINE#         152
  C:5E0BH         LINE#         153
  C:5E0BH         LINE#         154
  C:5E0EH         LINE#         158
  C:5E0EH         LINE#         160
BL51 BANKED LINKER/LOCATER V6.22.2.0                                                  10/09/2020  16:27:21  PAGE 91


  C:5E17H         LINE#         161
  C:5E17H         LINE#         163
  C:5E1DH         LINE#         164
  C:5E30H         LINE#         165
  C:5E30H         LINE#         166
  C:5E33H         LINE#         168
  C:5E33H         LINE#         169
  C:5E48H         LINE#         170
  C:5E4EH         LINE#         171
  C:5E4EH         LINE#         173
  C:5E51H         LINE#         177
  C:5E51H         LINE#         179
  C:5E69H         LINE#         180
  C:5E6FH         LINE#         181
  C:5E72H         LINE#         182
  C:5E72H         LINE#         184
  C:5E8AH         LINE#         185
  C:5E8AH         LINE#         186
  C:5E8BH         LINE#         187
  C:5E98H         LINE#         188
  C:5E98H         LINE#         189
  C:5EA5H         LINE#         190
  C:5EA8H         LINE#         191
  C:5EB6H         LINE#         192
  C:5EB6H         LINE#         193
  C:5EB8H         LINE#         194
  C:5EBDH         LINE#         195
  C:5EBFH         LINE#         196
  C:5EC3H         LINE#         198
  C:5EC5H         LINE#         200
  C:5EC5H         LINE#         201
  C:5EC5H         LINE#         202
  C:5EC5H         LINE#         203
  C:5EC7H         LINE#         205
  C:5EC7H         LINE#         206
  C:5EC7H         LINE#         207
  C:5EC7H         LINE#         209
  C:5EC9H         LINE#         211
  C:5EC9H         LINE#         212
  C:5ECFH         LINE#         213
  C:5ECFH         LINE#         215
  C:5ED1H         LINE#         220
  C:5ED1H         LINE#         221
  C:5ED6H         LINE#         222
  C:5ED6H         LINE#         223
  C:5ED6H         LINE#         224
  C:5ED6H         LINE#         229
  C:5ED9H         LINE#         230
  C:5ED9H         LINE#         231
  C:5EDBH         LINE#         233
  C:5EE1H         LINE#         234
  C:5EE1H         LINE#         235
  C:5EEBH         LINE#         236
  C:5EEDH         LINE#         237
  C:5EEFH         LINE#         238
  C:5EF1H         LINE#         240
  C:5EF1H         LINE#         241
BL51 BANKED LINKER/LOCATER V6.22.2.0                                                  10/09/2020  16:27:21  PAGE 92


  C:5EF3H         LINE#         242
  C:5EF3H         LINE#         243
  C:5EF3H         LINE#         245
  -------         ENDPROC       COM_ISR
  -------         PROC          COM_INITIALIZE
  C:AC57H         LINE#         261
  C:AC5EH         LINE#         262
  C:AC5EH         LINE#         266
  C:AC61H         LINE#         271
  C:AC64H         LINE#         272
  C:AC66H         LINE#         274
  C:AC68H         LINE#         275
  C:AC6AH         LINE#         280
  C:AC6EH         LINE#         281
  C:AC70H         LINE#         282
  C:AC72H         LINE#         284
  C:AC74H         LINE#         285
  C:AC76H         LINE#         286
  C:AC78H         LINE#         288
  C:AC7AH         LINE#         289
  C:AC7CH         LINE#         290
  -------         ENDPROC       COM_INITIALIZE
  -------         PROC          COM_BAUDRATE
  C:ACA9H         LINE#         296
  C:ACB0H         LINE#         298
  C:ACB0H         LINE#         302
  C:ACB2H         LINE#         303
  C:ACB5H         LINE#         304
  C:ACB7H         LINE#         309
  C:ACB9H         LINE#         310
  C:ACBBH         LINE#         312
  C:ACBEH         LINE#         314
  C:ACC1H         LINE#         315
  C:ACC4H         LINE#         317
  C:ACC7H         LINE#         318
  C:ACCAH         LINE#         319
  C:ACCCH         LINE#         320
  -------         ENDPROC       COM_BAUDRATE
  -------         PROC          _COM_PUTCHAR
  X:00E3H         SYMBOL        c
  C:AB4BH         LINE#         326
  C:AB57H         LINE#         328
  C:AB57H         LINE#         332
  C:AB64H         LINE#         333
  C:AB68H         LINE#         339
  C:AB76H         LINE#         340
  C:AB78H         LINE#         342
  C:AB7BH         LINE#         343
  C:AB7BH         LINE#         344
  C:AB7DH         LINE#         345
  C:AB7FH         LINE#         346
  C:AB7FH         LINE#         348
  C:AB81H         LINE#         349
  -------         ENDPROC       _COM_PUTCHAR
  -------         PROC          COM_GETCHAR
  C:ACF8H         LINE#         355
  C:ACFFH         LINE#         356
BL51 BANKED LINKER/LOCATER V6.22.2.0                                                  10/09/2020  16:27:21  PAGE 93


  C:ACFFH         LINE#         357
  C:AD05H         LINE#         358
  C:AD0BH         LINE#         360
  C:AD19H         LINE#         361
  -------         ENDPROC       COM_GETCHAR
  -------         PROC          COM_RBUFLEN
  C:AEE1H         LINE#         367
  C:AEE8H         LINE#         368
  C:AEE8H         LINE#         369
  C:AEEEH         LINE#         370
  -------         ENDPROC       COM_RBUFLEN
  -------         PROC          COM_TBUFLEN
  C:AEF3H         LINE#         376
  C:AEFAH         LINE#         377
  C:AEFAH         LINE#         378
  C:AF00H         LINE#         379
  -------         ENDPROC       COM_TBUFLEN
  -------         ENDMOD        UART

  -------         MODULE        VERIFICADOR
  C:0000H         SYMBOL        _ICE_DUMMY_
  D:0080H         PUBLIC        P0
  D:0090H         PUBLIC        P1
  D:00B0H         PUBLIC        P3
  B:00B0H.2       PUBLIC        ready
  C:6C0DH         PUBLIC        Secuencia_inicio_expedidor
  C:861DH         PUBLIC        _Analiza_Uid_Card
  B:0080H.3       PUBLIC        Atascado
  C:78B9H         PUBLIC        _Bloque_Horario
  B:0090H.7       PUBLIC        lock
  C:A307H         PUBLIC        _Valida_Mismo_Dia
  C:77AAH         PUBLIC        _Responde_Lectura_Tarjeta_Sector1_Bloque0
  C:8E88H         PUBLIC        error_rx_pto
  C:60ACH         PUBLIC        _Responde_Lectura_Tarjeta_Sector1_Bloque1
  C:5998H         PUBLIC        _Responde_Lectura_Tarjeta_Sector1_Bloque2
  C:A29AH         PUBLIC        Validar_Pago
  C:AD1EH         PUBLIC        Trama_Validacion_P_N
  C:7ABBH         PUBLIC        _Armar_Trama_Pto_Paralelo_Expedidor_Mensual
  C:1192H         PUBLIC        SecuenciaExpedidor
  B:00B0H.3       PUBLIC        busy
  C:81A1H         PUBLIC        _Horarios
  C:8F37H         PUBLIC        _Hora_Maxima
  X:01A8H         PUBLIC        buffer_S_B
  X:01B9H         SYMBOL        Estado
  C:9A1FH         PUBLIC        _En_Horario
  -------         PROC          TRAMA_VALIDACION_P_N
  -------         DO            
  D:0007H         SYMBOL        Trama_Validacion_P_N
  -------         ENDDO         
  C:AD1EH         LINE#         401
  C:AD1EH         LINE#         402
  C:AD1EH         LINE#         403
  C:AD20H         LINE#         405
  C:AD2BH         LINE#         406
  C:AD2BH         LINE#         407
  C:AD2EH         LINE#         408
  C:AD2EH         LINE#         409
BL51 BANKED LINKER/LOCATER V6.22.2.0                                                  10/09/2020  16:27:21  PAGE 94


  C:AD30H         LINE#         412
  C:AD38H         LINE#         413
  C:AD38H         LINE#         415
  C:AD3AH         LINE#         417
  C:AD3BH         LINE#         418
  C:AD3CH         LINE#         419
  C:AD3CH         LINE#         421
  C:AD3CH         LINE#         423
  C:AD3CH         LINE#         425
  C:AD3CH         LINE#         427
  C:AD3EH         LINE#         429
  C:AD3EH         LINE#         430
  C:AD3FH         LINE#         432
  C:AD3FH         LINE#         434
  C:AD41H         LINE#         436
  C:AD41H         LINE#         438
  C:AD41H         LINE#         440
  C:AD41H         LINE#         441
  -------         ENDPROC       TRAMA_VALIDACION_P_N
  -------         PROC          ERROR_RX_PTO
  -------         DO            
  X:0154H         SYMBOL        cont_error_rx
  X:0011H         SYMBOL        error_rx_pto
  -------         ENDDO         
  C:8E88H         LINE#         458
  C:8E88H         LINE#         459
  C:8E88H         LINE#         461
  C:8E8DH         LINE#         465
  C:8E96H         LINE#         466
  C:8E9EH         LINE#         467
  C:8EA7H         LINE#         468
  C:8EAFH         LINE#         469
  C:8EB8H         LINE#         470
  C:8EBBH         LINE#         472
  C:8EBBH         LINE#         473
  C:8EC1H         LINE#         474
  C:8ECBH         LINE#         475
  C:8ECBH         LINE#         476
  C:8ECDH         LINE#         477
  C:8ED4H         LINE#         478
  C:8ED9H         LINE#         479
  C:8EDFH         LINE#         480
  C:8EE3H         LINE#         481
  C:8EE5H         LINE#         482
  C:8EEBH         LINE#         483
  C:8EEBH         LINE#         484
  C:8EEDH         LINE#         486
  C:8EEDH         LINE#         487
  C:8EF3H         LINE#         488
  C:8EF3H         LINE#         489
  C:8EF3H         LINE#         490
  C:8EF5H         LINE#         492
  C:8EF5H         LINE#         493
  C:8F03H         LINE#         494
  C:8F16H         LINE#         495
  C:8F16H         LINE#         496
  C:8F17H         LINE#         497
BL51 BANKED LINKER/LOCATER V6.22.2.0                                                  10/09/2020  16:27:21  PAGE 95


  C:8F1DH         LINE#         498
  C:8F22H         LINE#         499
  C:8F24H         LINE#         500
  C:8F24H         LINE#         501
  C:8F26H         LINE#         503
  C:8F26H         LINE#         504
  C:8F27H         LINE#         505
  C:8F2BH         LINE#         506
  C:8F31H         LINE#         507
  C:8F31H         LINE#         508
  C:8F31H         LINE#         509
  C:8F36H         LINE#         510
  -------         ENDPROC       ERROR_RX_PTO
  -------         PROC          SECUENCIA_INICIO_EXPEDIDOR
  -------         DO            
  X:0001H         SYMBOL        temp
  -------         ENDDO         
  C:6C0DH         LINE#         517
  C:6C0DH         LINE#         518
  C:6C0DH         LINE#         522
  C:6C2DH         LINE#         523
  C:6C2DH         LINE#         524
  C:6C2DH         LINE#         526
  C:6C2FH         LINE#         527
  C:6C34H         LINE#         528
  C:6C3AH         LINE#         531
  C:6C3CH         LINE#         532
  C:6C3CH         LINE#         543
  C:6C3CH         LINE#         545
  C:6C4AH         LINE#         546
  C:6C4AH         LINE#         547
  C:6C56H         LINE#         548
  C:6C56H         LINE#         549
  C:6C5CH         LINE#         550
  C:6C5FH         LINE#         551
  C:6C67H         LINE#         552
  C:6C67H         LINE#         553
  C:6C6EH         LINE#         554
  C:6C82H         LINE#         555
  C:6C82H         LINE#         556
  C:6C84H         LINE#         558
  C:6C84H         LINE#         560
  C:6C8BH         LINE#         561
  C:6C91H         LINE#         562
  C:6C91H         LINE#         563
  C:6C94H         LINE#         565
  C:6C94H         LINE#         566
  C:6C9DH         LINE#         567
  C:6CB1H         LINE#         568
  C:6CB7H         LINE#         569
  C:6CB7H         LINE#         570
  C:6CBAH         LINE#         571
  C:6CBAH         LINE#         577
  C:6CBAH         LINE#         579
  C:6CBDH         LINE#         580
  C:6CC3H         LINE#         584
  C:6CC5H         LINE#         585
BL51 BANKED LINKER/LOCATER V6.22.2.0                                                  10/09/2020  16:27:21  PAGE 96


  C:6CC5H         LINE#         595
  C:6CC5H         LINE#         597
  C:6CD3H         LINE#         598
  C:6CD3H         LINE#         599
  C:6CDFH         LINE#         600
  C:6CDFH         LINE#         601
  C:6CE5H         LINE#         602
  C:6CE7H         LINE#         603
  C:6CEFH         LINE#         604
  C:6CEFH         LINE#         605
  C:6CF6H         LINE#         606
  C:6D0AH         LINE#         607
  C:6D0AH         LINE#         608
  C:6D0CH         LINE#         610
  C:6D0CH         LINE#         613
  C:6D13H         LINE#         614
  C:6D19H         LINE#         615
  C:6D19H         LINE#         616
  C:6D1BH         LINE#         618
  C:6D1BH         LINE#         619
  C:6D24H         LINE#         620
  C:6D38H         LINE#         621
  C:6D3DH         LINE#         622
  C:6D3DH         LINE#         624
  C:6D3FH         LINE#         625
  C:6D3FH         LINE#         631
  C:6D3FH         LINE#         633
  C:6D45H         LINE#         634
  C:6D45H         LINE#         637
  C:6D45H         LINE#         638
  C:6D4CH         LINE#         639
  C:6D4CH         LINE#         640
  C:6D4CH         LINE#         641
  -------         ENDPROC       SECUENCIA_INICIO_EXPEDIDOR
  -------         PROC          _HORARIOS
  X:0011H         SYMBOL        Horario
  -------         DO            
  X:0012H         SYMBOL        Estado_Horario
  X:0013H         SYMBOL        Addr_horarios
  X:001EH         SYMBOL        dia_semana
  X:001FH         SYMBOL        EE_dia_semana
  X:0020H         SYMBOL        addr
  -------         ENDDO         
  C:81A1H         LINE#         652
  C:81A6H         LINE#         653
  C:81A6H         LINE#         659
  C:81ABH         LINE#         660
  C:81ABH         LINE#         662
  C:81B7H         LINE#         664
  C:81D0H         LINE#         668
  C:81E3H         LINE#         669
  C:81E3H         LINE#         671
  C:81EDH         LINE#         672
  C:81F6H         LINE#         673
  C:81FEH         LINE#         674
  C:8207H         LINE#         677
  C:822CH         LINE#         678
BL51 BANKED LINKER/LOCATER V6.22.2.0                                                  10/09/2020  16:27:21  PAGE 97


  C:8235H         LINE#         679
  C:823DH         LINE#         680
  C:8246H         LINE#         682
  C:8250H         LINE#         683
  C:8250H         LINE#         685
  C:825EH         LINE#         686
  C:8260H         LINE#         688
  C:8260H         LINE#         690
  C:8269H         LINE#         691
  C:826EH         LINE#         692
  C:826EH         LINE#         693
  C:8270H         LINE#         695
  C:8270H         LINE#         697
  C:8275H         LINE#         698
  C:827AH         LINE#         699
  C:8280H         LINE#         701
  C:8280H         LINE#         703
  C:8282H         LINE#         705
  C:8282H         LINE#         708
  C:8287H         LINE#         710
  C:8290H         LINE#         711
  C:8290H         LINE#         712
  C:8295H         LINE#         713
  -------         ENDPROC       _HORARIOS
  -------         PROC          _HORA_MAXIMA
  X:002EH         SYMBOL        addr
  -------         DO            
  X:0030H         SYMBOL        Hora_High
  X:0031H         SYMBOL        Minuto_High
  X:0032H         SYMBOL        HoraIni
  X:0033H         SYMBOL        MinutoIni
  X:0034H         SYMBOL        Hora_Prog
  -------         ENDDO         
  C:8F37H         LINE#         714
  C:8F3FH         LINE#         715
  C:8F3FH         LINE#         720
  C:8F54H         LINE#         721
  C:8F74H         LINE#         722
  C:8F91H         LINE#         723
  C:8FB1H         LINE#         724
  C:8FB9H         LINE#         725
  C:8FC1H         LINE#         726
  C:8FCAH         LINE#         728
  C:8FE2H         LINE#         729
  -------         ENDPROC       _HORA_MAXIMA
  -------         PROC          _EN_HORARIO
  X:0029H         SYMBOL        HoraNow
  D:0004H         SYMBOL        Hora_Prog
  X:002BH         SYMBOL        addr
  -------         DO            
  X:002DH         SYMBOL        Estado_Horario
  -------         ENDDO         
  C:9A1FH         LINE#         730
  C:9A2DH         LINE#         731
  C:9A2DH         LINE#         734
  C:9A3AH         LINE#         735
  C:9A3AH         LINE#         738
BL51 BANKED LINKER/LOCATER V6.22.2.0                                                  10/09/2020  16:27:21  PAGE 98


  C:9A43H         LINE#         739
  C:9A58H         LINE#         742
  C:9A67H         LINE#         743
  C:9A67H         LINE#         744
  C:9A6AH         LINE#         745
  C:9A73H         LINE#         746
  C:9A79H         LINE#         747
  C:9A7BH         LINE#         749
  C:9A7BH         LINE#         750
  C:9A7EH         LINE#         751
  C:9A83H         LINE#         752
  C:9A89H         LINE#         753
  C:9A89H         LINE#         754
  C:9A89H         LINE#         756
  C:9A8BH         LINE#         758
  C:9A8BH         LINE#         759
  C:9A90H         LINE#         760
  C:9A95H         LINE#         761
  C:9A9EH         LINE#         762
  C:9AA3H         LINE#         764
  C:9AA3H         LINE#         765
  C:9AA8H         LINE#         766
  -------         ENDPROC       _EN_HORARIO
  -------         PROC          _BLOQUE_HORARIO
  X:0022H         SYMBOL        addr
  -------         DO            
  X:0024H         SYMBOL        Estado_Horario
  X:0025H         SYMBOL        HoraNow
  X:0027H         SYMBOL        Hora_Prog
  -------         ENDDO         
  C:78B9H         LINE#         768
  C:78C1H         LINE#         769
  C:78C1H         LINE#         775
  C:78CAH         LINE#         776
  C:78D2H         LINE#         777
  C:78DAH         LINE#         778
  C:78E3H         LINE#         779
  C:7911H         LINE#         784
  C:791AH         LINE#         785
  C:792FH         LINE#         786
  C:7947H         LINE#         787
  C:7949H         LINE#         788
  C:7949H         LINE#         791
  C:7961H         LINE#         792
  C:7961H         LINE#         793
  C:796AH         LINE#         794
  C:7985H         LINE#         795
  C:79A3H         LINE#         796
  C:79A5H         LINE#         798
  C:79A5H         LINE#         799
  C:79AAH         LINE#         800
  C:79AFH         LINE#         801
  C:79B4H         LINE#         802
  C:79B4H         LINE#         803
  C:79B4H         LINE#         805
  C:79BBH         LINE#         806
  -------         ENDPROC       _BLOQUE_HORARIO
BL51 BANKED LINKER/LOCATER V6.22.2.0                                                  10/09/2020  16:27:21  PAGE 99


  -------         PROC          _RESPONDE_LECTURA_TARJETA_SECTOR1_BLOQUE1
  X:0011H         SYMBOL        Atributos_Expedidor
  -------         DO            
  D:0007H         SYMBOL        temp
  X:0014H         SYMBOL        Estado_expedidor
  X:0156H         SYMBOL        falla
  -------         ENDDO         
  C:60ACH         LINE#         807
  C:60B7H         LINE#         808
  C:60B7H         LINE#         813
  C:60C0H         LINE#         816
  C:60D0H         LINE#         817
  C:60D0H         LINE#         819
  C:60DCH         LINE#         820
  C:60DCH         LINE#         821
  C:60F4H         LINE#         822
  C:60F7H         LINE#         823
  C:6108H         LINE#         824
  C:6142H         LINE#         825
  C:6142H         LINE#         826
  C:614BH         LINE#         827
  C:6153H         LINE#         828
  C:615CH         LINE#         830
  C:6165H         LINE#         831
  C:616DH         LINE#         832
  C:6176H         LINE#         834
  C:617FH         LINE#         835
  C:6187H         LINE#         836
  C:6190H         LINE#         839
  C:61A7H         LINE#         842
  C:61B1H         LINE#         843
  C:61BBH         LINE#         844
  C:61C5H         LINE#         845
  C:61CAH         LINE#         846
  C:61D0H         LINE#         848
  C:61D2H         LINE#         850
  C:61D2H         LINE#         851
  C:61D7H         LINE#         852
  C:61DCH         LINE#         853
  C:61DEH         LINE#         854
  C:61DEH         LINE#         855
  C:61DEH         LINE#         856
  C:61E0H         LINE#         858
  C:61E0H         LINE#         859
  C:61E8H         LINE#         860
  C:61E8H         LINE#         861
  C:61EEH         LINE#         862
  C:61EEH         LINE#         863
  C:61FBH         LINE#         865
  C:61FBH         LINE#         866
  C:6204H         LINE#         867
  C:620AH         LINE#         869
  C:620CH         LINE#         871
  C:620CH         LINE#         872
  C:6211H         LINE#         873
  C:6216H         LINE#         874
  C:621BH         LINE#         875
BL51 BANKED LINKER/LOCATER V6.22.2.0                                                  10/09/2020  16:27:21  PAGE 100


  C:6221H         LINE#         876
  C:6221H         LINE#         877
  C:6221H         LINE#         878
  C:6226H         LINE#         879
  -------         ENDPROC       _RESPONDE_LECTURA_TARJETA_SECTOR1_BLOQUE1
  -------         PROC          _RESPONDE_LECTURA_TARJETA_SECTOR1_BLOQUE2
  X:0011H         SYMBOL        Atributos_Expedidor
  -------         DO            
  D:0007H         SYMBOL        temp
  X:0014H         SYMBOL        Estado_expedidor
  -------         ENDDO         
  C:5998H         LINE#         881
  C:59A3H         LINE#         882
  C:59A3H         LINE#         885
  C:59B3H         LINE#         886
  C:59B3H         LINE#         887
  C:59BCH         LINE#         889
  C:59C8H         LINE#         890
  C:59C8H         LINE#         891
  C:59E0H         LINE#         892
  C:59E3H         LINE#         893
  C:59F4H         LINE#         896
  C:5A08H         LINE#         897
  C:5A1FH         LINE#         898
  C:5A29H         LINE#         899
  C:5A33H         LINE#         900
  C:5A3DH         LINE#         902
  C:5A46H         LINE#         903
  C:5A53H         LINE#         904
  C:5A6FH         LINE#         905
  C:5A78H         LINE#         907
  C:5A94H         LINE#         909
  C:5A9EH         LINE#         911
  C:5AAAH         LINE#         917
  C:5AB4H         LINE#         918
  C:5AB4H         LINE#         919
  C:5ACDH         LINE#         920
  C:5ACDH         LINE#         921
  C:5AD6H         LINE#         922
  C:5ADBH         LINE#         923
  C:5ADBH         LINE#         924
  C:5ADBH         LINE#         925
  C:5ADBH         LINE#         926
  C:5ADDH         LINE#         928
  C:5ADDH         LINE#         929
  C:5AE6H         LINE#         930
  C:5AECH         LINE#         932
  C:5AECH         LINE#         934
  C:5AEFH         LINE#         935
  C:5B04H         LINE#         936
  C:5B04H         LINE#         937
  C:5B11H         LINE#         938
  C:5B11H         LINE#         939
  C:5B1AH         LINE#         940
  C:5B33H         LINE#         941
  C:5B33H         LINE#         942
  C:5B3CH         LINE#         944
BL51 BANKED LINKER/LOCATER V6.22.2.0                                                  10/09/2020  16:27:21  PAGE 101


  C:5B41H         LINE#         945
  C:5B46H         LINE#         946
  C:5B46H         LINE#         948
  C:5B48H         LINE#         956
  C:5B48H         LINE#         957
  C:5B51H         LINE#         958
  C:5B5AH         LINE#         959
  C:5B60H         LINE#         960
  C:5B60H         LINE#         961
  C:5B62H         LINE#         963
  C:5B62H         LINE#         964
  C:5B6BH         LINE#         965
  C:5B70H         LINE#         966
  C:5B76H         LINE#         968
  C:5B76H         LINE#         970
  C:5B78H         LINE#         972
  C:5B78H         LINE#         973
  C:5B7EH         LINE#         974
  C:5B7EH         LINE#         976
  C:5B83H         LINE#         978
  -------         ENDPROC       _RESPONDE_LECTURA_TARJETA_SECTOR1_BLOQUE2
  -------         PROC          _RESPONDE_LECTURA_TARJETA_SECTOR1_BLOQUE0
  X:0011H         SYMBOL        Atributos_Expedidor
  -------         DO            
  D:0007H         SYMBOL        temp
  X:0014H         SYMBOL        Estado_expedidor
  X:0157H         SYMBOL        buffer_S1_B0
  -------         ENDDO         
  C:77AAH         LINE#         979
  C:77B5H         LINE#         980
  C:77B5H         LINE#         984
  C:77C5H         LINE#         985
  C:77C5H         LINE#         986
  C:77CEH         LINE#         989
  C:77DAH         LINE#         990
  C:77DAH         LINE#         992
  C:77F2H         LINE#         993
  C:77FFH         LINE#         994
  C:77FFH         LINE#         995
  C:77FFH         LINE#         996
  C:77FFH         LINE#         997
  C:7802H         LINE#         999
  C:780BH         LINE#         1000
  C:7814H         LINE#         1001
  C:781DH         LINE#         1005
  C:7832H         LINE#         1006
  C:7832H         LINE#         1007
  C:7837H         LINE#         1008
  C:7851H         LINE#         1009
  C:7853H         LINE#         1011
  C:7853H         LINE#         1013
  C:7861H         LINE#         1014
  C:7861H         LINE#         1015
  C:7867H         LINE#         1016
  C:7867H         LINE#         1019
  C:787FH         LINE#         1020
  C:787FH         LINE#         1022
BL51 BANKED LINKER/LOCATER V6.22.2.0                                                  10/09/2020  16:27:21  PAGE 102


  C:788AH         LINE#         1023
  C:788CH         LINE#         1025
  C:788CH         LINE#         1026
  C:78A5H         LINE#         1027
  C:78A5H         LINE#         1028
  C:78A5H         LINE#         1032
  C:78ABH         LINE#         1034
  C:78ADH         LINE#         1035
  C:78ADH         LINE#         1036
  C:78B3H         LINE#         1037
  C:78B3H         LINE#         1038
  C:78B8H         LINE#         1039
  -------         ENDPROC       _RESPONDE_LECTURA_TARJETA_SECTOR1_BLOQUE0
  -------         PROC          _ARMAR_TRAMA_PTO_PARALELO_EXPEDIDOR_MENSUAL
  X:0015H         SYMBOL        Atributos_Expedidor
  -------         DO            
  X:0168H         SYMBOL        buffer
  -------         ENDDO         
  C:7ABBH         LINE#         1041
  C:7AC6H         LINE#         1042
  C:7AC6H         LINE#         1048
  C:7ACCH         LINE#         1049
  C:7AD0H         LINE#         1050
  C:7AE5H         LINE#         1051
  C:7AEFH         LINE#         1052
  C:7AF9H         LINE#         1053
  C:7B03H         LINE#         1058
  C:7B0CH         LINE#         1059
  C:7B18H         LINE#         1060
  C:7B24H         LINE#         1061
  C:7B30H         LINE#         1062
  C:7B3CH         LINE#         1065
  C:7B48H         LINE#         1066
  C:7B48H         LINE#         1068
  C:7B4FH         LINE#         1069
  C:7B53H         LINE#         1070
  C:7B57H         LINE#         1071
  C:7B5BH         LINE#         1072
  C:7B5FH         LINE#         1073
  C:7B63H         LINE#         1075
  C:7B63H         LINE#         1077
  C:7B79H         LINE#         1078
  C:7B79H         LINE#         1079
  C:7B7CH         LINE#         1080
  C:7B7EH         LINE#         1082
  C:7B7EH         LINE#         1083
  C:7B81H         LINE#         1084
  C:7B81H         LINE#         1086
  C:7B87H         LINE#         1087
  C:7B8AH         LINE#         1088
  C:7B8CH         LINE#         1089
  C:7B8FH         LINE#         1090
  C:7B9AH         LINE#         1092
  C:7B9DH         LINE#         1093
  C:7BA6H         LINE#         1094
  C:7BB6H         LINE#         1095
  -------         ENDPROC       _ARMAR_TRAMA_PTO_PARALELO_EXPEDIDOR_MENSUAL
BL51 BANKED LINKER/LOCATER V6.22.2.0                                                  10/09/2020  16:27:21  PAGE 103


  -------         PROC          _ANALIZA_UID_CARD
  X:0011H         SYMBOL        Atributos_Expedidor
  -------         DO            
  X:0014H         SYMBOL        Estado_expedidor
  D:0007H         SYMBOL        temp
  -------         ENDDO         
  C:861DH         LINE#         1097
  C:8628H         LINE#         1098
  C:8628H         LINE#         1101
  C:8638H         LINE#         1102
  C:8638H         LINE#         1104
  C:8644H         LINE#         1105
  C:8644H         LINE#         1106
  C:865CH         LINE#         1108
  C:865FH         LINE#         1110
  C:8668H         LINE#         1111
  C:8679H         LINE#         1114
  C:8682H         LINE#         1115
  C:868AH         LINE#         1116
  C:8692H         LINE#         1117
  C:869AH         LINE#         1118
  C:86A2H         LINE#         1119
  C:86ABH         LINE#         1121
  C:86C2H         LINE#         1122
  C:86CCH         LINE#         1123
  C:86D6H         LINE#         1124
  C:86E0H         LINE#         1125
  C:86E6H         LINE#         1126
  C:86E8H         LINE#         1128
  C:86E8H         LINE#         1129
  C:86EEH         LINE#         1130
  C:86EEH         LINE#         1131
  C:86F3H         LINE#         1132
  -------         ENDPROC       _ANALIZA_UID_CARD
  -------         PROC          VALIDAR_PAGO
  -------         DO            
  X:0011H         SYMBOL        Estado_expedidor
  X:0012H         SYMBOL        temp
  -------         ENDDO         
  C:A29AH         LINE#         1134
  C:A29AH         LINE#         1135
  C:A29AH         LINE#         1138
  C:A2A8H         LINE#         1139
  C:A2ACH         LINE#         1140
  C:A2ACH         LINE#         1141
  C:A2B5H         LINE#         1142
  C:A2BAH         LINE#         1143
  C:A2BFH         LINE#         1144
  C:A2C4H         LINE#         1146
  C:A2CAH         LINE#         1148
  C:A2CCH         LINE#         1149
  C:A2D6H         LINE#         1150
  C:A2D6H         LINE#         1151
  C:A2DDH         LINE#         1152
  C:A2E2H         LINE#         1153
  C:A2E7H         LINE#         1154
  C:A2ECH         LINE#         1155
BL51 BANKED LINKER/LOCATER V6.22.2.0                                                  10/09/2020  16:27:21  PAGE 104


  C:A2F2H         LINE#         1156
  C:A2F4H         LINE#         1158
  C:A2F4H         LINE#         1159
  C:A2FBH         LINE#         1161
  C:A301H         LINE#         1162
  C:A301H         LINE#         1163
  C:A306H         LINE#         1164
  -------         ENDPROC       VALIDAR_PAGO
  -------         PROC          _VALIDA_MISMO_DIA
  X:0011H         SYMBOL        Atributos_Expedidor
  -------         DO            
  D:0007H         SYMBOL        day
  X:0014H         SYMBOL        month
  X:0015H         SYMBOL        year
  X:0016H         SYMBOL        Valida_Mismo_Dia
  -------         ENDDO         
  C:A307H         LINE#         1165
  C:A312H         LINE#         1166
  C:A312H         LINE#         1172
  C:A317H         LINE#         1173
  C:A324H         LINE#         1174
  C:A331H         LINE#         1175
  C:A339H         LINE#         1177
  C:A366H         LINE#         1178
  C:A366H         LINE#         1179
  C:A36CH         LINE#         1180
  C:A36CH         LINE#         1182
  C:A371H         LINE#         1183
  -------         ENDPROC       _VALIDA_MISMO_DIA
  -------         PROC          SECUENCIAEXPEDIDOR
  -------         DO            
  X:0001H         SYMBOL        temp
  X:0002H         SYMBOL        tiempo
  X:0004H         SYMBOL        Estado_Tiempo
  X:0184H         SYMBOL        Atributos_Expedidor
  X:0196H         SYMBOL        buffer_S1_B0
  X:0008H         SYMBOL        clock_temp
  X:01A7H         SYMBOL        contador
  X:000EH         SYMBOL        atributos
  -------         ENDDO         
  C:1192H         LINE#         1184
  C:1192H         LINE#         1185
  C:1192H         LINE#         1194
  C:1211H         LINE#         1195
  C:1211H         LINE#         1198
  C:1211H         LINE#         1200
  C:121CH         LINE#         1201
  C:121CH         LINE#         1203
  C:121EH         LINE#         1204
  C:1223H         LINE#         1205
  C:1223H         LINE#         1207
  C:1223H         LINE#         1209
  C:1225H         LINE#         1219
  C:1225H         LINE#         1221
  C:122FH         LINE#         1222
  C:122FH         LINE#         1223
  C:1237H         LINE#         1224
BL51 BANKED LINKER/LOCATER V6.22.2.0                                                  10/09/2020  16:27:21  PAGE 105


  C:1237H         LINE#         1225
  C:123CH         LINE#         1226
  C:123DH         LINE#         1227
  C:1243H         LINE#         1228
  C:1243H         LINE#         1229
  C:1249H         LINE#         1230
  C:1249H         LINE#         1231
  C:1249H         LINE#         1232
  C:124CH         LINE#         1234
  C:124CH         LINE#         1237
  C:125FH         LINE#         1238
  C:125FH         LINE#         1239
  C:1265H         LINE#         1240
  C:1266H         LINE#         1241
  C:127EH         LINE#         1242
  C:127EH         LINE#         1243
  C:127EH         LINE#         1244
  C:127EH         LINE#         1246
  C:127EH         LINE#         1247
  C:1281H         LINE#         1249
  C:1281H         LINE#         1250
  C:1287H         LINE#         1251
  C:1287H         LINE#         1252
  C:1287H         LINE#         1253
  C:1287H         LINE#         1255
  C:128AH         LINE#         1261
  C:128AH         LINE#         1262
  C:1295H         LINE#         1263
  C:1295H         LINE#         1264
  C:129AH         LINE#         1265
  C:129AH         LINE#         1266
  C:129AH         LINE#         1267
  C:129CH         LINE#         1277
  C:129CH         LINE#         1279
  C:12A6H         LINE#         1280
  C:12A6H         LINE#         1281
  C:12AEH         LINE#         1282
  C:12AEH         LINE#         1283
  C:12AEH         LINE#         1284
  C:12B0H         LINE#         1285
  C:12B6H         LINE#         1286
  C:12B6H         LINE#         1287
  C:12BCH         LINE#         1288
  C:12BCH         LINE#         1289
  C:12BCH         LINE#         1290
  C:12BFH         LINE#         1292
  C:12BFH         LINE#         1296
  C:12D2H         LINE#         1297
  C:12D2H         LINE#         1298
  C:12D8H         LINE#         1299
  C:12D9H         LINE#         1300
  C:12F1H         LINE#         1301
  C:12F1H         LINE#         1302
  C:12F1H         LINE#         1303
  C:12F1H         LINE#         1305
  C:12F1H         LINE#         1306
  C:12F4H         LINE#         1308
BL51 BANKED LINKER/LOCATER V6.22.2.0                                                  10/09/2020  16:27:21  PAGE 106


  C:12F4H         LINE#         1309
  C:12FDH         LINE#         1310
  C:1311H         LINE#         1311
  C:1319H         LINE#         1312
  C:1319H         LINE#         1314
  C:1322H         LINE#         1315
  C:1328H         LINE#         1316
  C:132EH         LINE#         1317
  C:1334H         LINE#         1318
  C:1334H         LINE#         1319
  C:133AH         LINE#         1320
  C:133AH         LINE#         1321
  C:133DH         LINE#         1322
  C:1346H         LINE#         1323
  C:134BH         LINE#         1324
  C:1350H         LINE#         1326
  C:1350H         LINE#         1327
  C:1350H         LINE#         1328
  C:1356H         LINE#         1329
  C:1365H         LINE#         1330
  C:1365H         LINE#         1331
  C:136BH         LINE#         1334
  C:136CH         LINE#         1335
  C:1373H         LINE#         1336
  C:1373H         LINE#         1338
  C:1379H         LINE#         1339
  C:1379H         LINE#         1342
  C:137CH         LINE#         1343
  C:1387H         LINE#         1344
  C:1387H         LINE#         1345
  C:1390H         LINE#         1348
  C:1398H         LINE#         1349
  C:1398H         LINE#         1350
  C:139FH         LINE#         1353
  C:13A5H         LINE#         1354
  C:13A6H         LINE#         1356
  C:13A6H         LINE#         1357
  C:13ADH         LINE#         1358
  C:13B2H         LINE#         1359
  C:13B4H         LINE#         1360
  C:13B4H         LINE#         1362
  C:13B4H         LINE#         1364
  C:13B4H         LINE#         1366
  C:13B4H         LINE#         1368
  C:13B7H         LINE#         1381
  C:13B7H         LINE#         1383
  C:13C1H         LINE#         1384
  C:13C1H         LINE#         1385
  C:13C9H         LINE#         1386
  C:13C9H         LINE#         1387
  C:13C9H         LINE#         1388
  C:13CCH         LINE#         1389
  C:13D4H         LINE#         1390
  C:13D4H         LINE#         1392
  C:13DBH         LINE#         1393
  C:13EFH         LINE#         1394
  C:13F5H         LINE#         1396
BL51 BANKED LINKER/LOCATER V6.22.2.0                                                  10/09/2020  16:27:21  PAGE 107


  C:13F6H         LINE#         1398
  C:13F6H         LINE#         1399
  C:13FDH         LINE#         1400
  C:1402H         LINE#         1401
  C:1404H         LINE#         1402
  C:1404H         LINE#         1404
  C:1404H         LINE#         1405
  C:1407H         LINE#         1407
  C:1407H         LINE#         1408
  C:140FH         LINE#         1409
  C:140FH         LINE#         1410
  C:1414H         LINE#         1411
  C:1414H         LINE#         1412
  C:141AH         LINE#         1413
  C:141AH         LINE#         1415
  C:141AH         LINE#         1416
  C:141DH         LINE#         1417
  C:1426H         LINE#         1418
  C:1426H         LINE#         1420
  C:142AH         LINE#         1421
  C:142AH         LINE#         1422
  C:142AH         LINE#         1423
  C:142DH         LINE#         1425
  C:142DH         LINE#         1426
  C:1434H         LINE#         1427
  C:1448H         LINE#         1428
  C:144DH         LINE#         1429
  C:1452H         LINE#         1430
  C:1454H         LINE#         1431
  C:1454H         LINE#         1433
  C:1454H         LINE#         1434
  C:1457H         LINE#         1436
  C:1457H         LINE#         1437
  C:1460H         LINE#         1438
  C:1474H         LINE#         1439
  C:1479H         LINE#         1440
  C:147EH         LINE#         1441
  C:1480H         LINE#         1442
  C:1480H         LINE#         1444
  C:1480H         LINE#         1446
  C:1480H         LINE#         1448
  C:1483H         LINE#         1456
  C:1483H         LINE#         1458
  C:148DH         LINE#         1459
  C:148DH         LINE#         1460
  C:1495H         LINE#         1461
  C:1495H         LINE#         1462
  C:1495H         LINE#         1463
  C:1498H         LINE#         1464
  C:14A0H         LINE#         1465
  C:14A0H         LINE#         1466
  C:14A7H         LINE#         1467
  C:14BBH         LINE#         1468
  C:14BBH         LINE#         1469
  C:14BDH         LINE#         1471
  C:14BDH         LINE#         1472
  C:14C4H         LINE#         1473
BL51 BANKED LINKER/LOCATER V6.22.2.0                                                  10/09/2020  16:27:21  PAGE 108


  C:14C4H         LINE#         1474
  C:14C4H         LINE#         1475
  C:14C7H         LINE#         1477
  C:14C7H         LINE#         1478
  C:14D0H         LINE#         1479
  C:14E4H         LINE#         1481
  C:14E4H         LINE#         1482
  C:14E4H         LINE#         1485
  C:14E6H         LINE#         1491
  C:14E6H         LINE#         1493
  C:14EDH         LINE#         1494
  C:14EDH         LINE#         1496
  C:14EFH         LINE#         1502
  C:14EFH         LINE#         1504
  C:14F9H         LINE#         1505
  C:14F9H         LINE#         1506
  C:1501H         LINE#         1507
  C:1501H         LINE#         1508
  C:1501H         LINE#         1509
  C:1503H         LINE#         1510
  C:1509H         LINE#         1511
  C:1509H         LINE#         1512
  C:150FH         LINE#         1513
  C:150FH         LINE#         1514
  C:150FH         LINE#         1515
  C:1512H         LINE#         1517
  C:1512H         LINE#         1521
  C:1525H         LINE#         1522
  C:1525H         LINE#         1523
  C:152BH         LINE#         1524
  C:152CH         LINE#         1525
  C:1544H         LINE#         1526
  C:1544H         LINE#         1527
  C:154AH         LINE#         1528
  C:154AH         LINE#         1530
  C:154AH         LINE#         1531
  C:154BH         LINE#         1533
  C:154BH         LINE#         1534
  C:1554H         LINE#         1535
  C:1554H         LINE#         1536
  C:1557H         LINE#         1541
  C:1557H         LINE#         1543
  C:155EH         LINE#         1544
  C:155EH         LINE#         1545
  C:1560H         LINE#         1551
  C:1560H         LINE#         1553
  C:156AH         LINE#         1554
  C:156AH         LINE#         1555
  C:1572H         LINE#         1556
  C:1572H         LINE#         1557
  C:1572H         LINE#         1558
  C:1574H         LINE#         1559
  C:157AH         LINE#         1560
  C:157AH         LINE#         1561
  C:1580H         LINE#         1562
  C:1580H         LINE#         1563
  C:1580H         LINE#         1564
BL51 BANKED LINKER/LOCATER V6.22.2.0                                                  10/09/2020  16:27:21  PAGE 109


  C:1583H         LINE#         1566
  C:1583H         LINE#         1569
  C:1596H         LINE#         1570
  C:1596H         LINE#         1571
  C:159CH         LINE#         1572
  C:159DH         LINE#         1573
  C:15B5H         LINE#         1574
  C:15B5H         LINE#         1575
  C:15BBH         LINE#         1576
  C:15BBH         LINE#         1578
  C:15BBH         LINE#         1579
  C:15BCH         LINE#         1581
  C:15BCH         LINE#         1582
  C:15C5H         LINE#         1584
  C:15C5H         LINE#         1585
  C:15C8H         LINE#         1586
  C:15C8H         LINE#         1592
  C:15D3H         LINE#         1593
  C:15D3H         LINE#         1594
  C:15D9H         LINE#         1595
  C:15D9H         LINE#         1596
  C:15D9H         LINE#         1598
  C:15D9H         LINE#         1599
  C:15DCH         LINE#         1600
  C:15DCH         LINE#         1601
  C:15EBH         LINE#         1602
  C:15EBH         LINE#         1603
  C:15F4H         LINE#         1606
  C:1618H         LINE#         1607
  C:1618H         LINE#         1608
  C:1618H         LINE#         1610
  C:1618H         LINE#         1611
  C:161BH         LINE#         1612
  C:161BH         LINE#         1614
  C:161BH         LINE#         1615
  C:1624H         LINE#         1616
  C:1629H         LINE#         1617
  C:162EH         LINE#         1618
  C:162EH         LINE#         1619
  C:1631H         LINE#         1620
  C:1631H         LINE#         1623
  C:1631H         LINE#         1624
  C:1631H         LINE#         1629
  C:163AH         LINE#         1630
  C:163AH         LINE#         1632
  C:1649H         LINE#         1633
  C:1649H         LINE#         1634
  C:164CH         LINE#         1635
  C:1655H         LINE#         1636
  C:165DH         LINE#         1637
  C:1666H         LINE#         1639
  C:1674H         LINE#         1640
  C:167AH         LINE#         1641
  C:168BH         LINE#         1643
  C:1694H         LINE#         1644
  C:16BAH         LINE#         1645
  C:16C3H         LINE#         1646
BL51 BANKED LINKER/LOCATER V6.22.2.0                                                  10/09/2020  16:27:21  PAGE 110


  C:16CCH         LINE#         1647
  C:16CFH         LINE#         1651
  C:16D7H         LINE#         1652
  C:16D7H         LINE#         1653
  C:16E0H         LINE#         1654
  C:16E9H         LINE#         1656
  C:16EBH         LINE#         1658
  C:16EBH         LINE#         1659
  C:16F7H         LINE#         1660
  C:16F7H         LINE#         1661
  C:1700H         LINE#         1662
  C:1706H         LINE#         1664
  C:1706H         LINE#         1665
  C:1709H         LINE#         1666
  C:1709H         LINE#         1668
  C:1709H         LINE#         1669
  C:1712H         LINE#         1670
  C:1717H         LINE#         1671
  C:171CH         LINE#         1672
  C:1722H         LINE#         1673
  C:1722H         LINE#         1674
  C:1722H         LINE#         1675
  C:1722H         LINE#         1676
  C:1724H         LINE#         1681
  C:172EH         LINE#         1682
  C:172EH         LINE#         1683
  C:1737H         LINE#         1684
  C:1740H         LINE#         1685
  C:1749H         LINE#         1686
  C:175AH         LINE#         1688
  C:175AH         LINE#         1692
  C:175DH         LINE#         1695
  C:1760H         LINE#         1696
  C:1760H         LINE#         1699
  C:176DH         LINE#         1700
  C:176DH         LINE#         1702
  C:177EH         LINE#         1704
  C:178CH         LINE#         1705
  C:178CH         LINE#         1707
  C:179CH         LINE#         1708
  C:179CH         LINE#         1709
  C:17A0H         LINE#         1710
  C:17A0H         LINE#         1711
  C:17A2H         LINE#         1713
  C:17A2H         LINE#         1714
  C:17A9H         LINE#         1715
  C:17ACH         LINE#         1716
  C:17ACH         LINE#         1718
  C:17AFH         LINE#         1720
  C:17AFH         LINE#         1721
  C:17B4H         LINE#         1723
  C:17B9H         LINE#         1724
  C:17C2H         LINE#         1725
  C:17C2H         LINE#         1727
  C:17C2H         LINE#         1728
  C:17C4H         LINE#         1730
  C:17C4H         LINE#         1731
BL51 BANKED LINKER/LOCATER V6.22.2.0                                                  10/09/2020  16:27:21  PAGE 111


  C:17CFH         LINE#         1732
  C:17CFH         LINE#         1734
  C:17E0H         LINE#         1735
  C:17EEH         LINE#         1736
  C:17EEH         LINE#         1737
  C:17F7H         LINE#         1738
  C:17F7H         LINE#         1739
  C:17F9H         LINE#         1741
  C:17F9H         LINE#         1742
  C:17FEH         LINE#         1743
  C:1803H         LINE#         1744
  C:180CH         LINE#         1745
  C:180CH         LINE#         1746
  C:180CH         LINE#         1747
  C:180FH         LINE#         1749
  C:180FH         LINE#         1750
  C:180FH         LINE#         1751
  C:180FH         LINE#         1752
  C:180FH         LINE#         1753
  C:1812H         LINE#         1754
  C:1812H         LINE#         1756
  C:1819H         LINE#         1757
  C:1819H         LINE#         1758
  C:181BH         LINE#         1764
  C:181BH         LINE#         1766
  C:1825H         LINE#         1767
  C:1825H         LINE#         1768
  C:182DH         LINE#         1769
  C:182DH         LINE#         1770
  C:182DH         LINE#         1771
  C:182FH         LINE#         1772
  C:1835H         LINE#         1773
  C:1835H         LINE#         1774
  C:183BH         LINE#         1775
  C:183BH         LINE#         1776
  C:183BH         LINE#         1777
  C:183EH         LINE#         1779
  C:183EH         LINE#         1782
  C:1851H         LINE#         1783
  C:1851H         LINE#         1784
  C:1857H         LINE#         1785
  C:1858H         LINE#         1786
  C:1870H         LINE#         1787
  C:1870H         LINE#         1788
  C:1876H         LINE#         1789
  C:1876H         LINE#         1790
  C:1876H         LINE#         1791
  C:1877H         LINE#         1793
  C:1877H         LINE#         1794
  C:1880H         LINE#         1796
  C:1880H         LINE#         1797
  C:1883H         LINE#         1804
  C:1883H         LINE#         1807
  C:1890H         LINE#         1808
  C:1890H         LINE#         1810
  C:1892H         LINE#         1815
  C:1892H         LINE#         1816
BL51 BANKED LINKER/LOCATER V6.22.2.0                                                  10/09/2020  16:27:21  PAGE 112


  C:189CH         LINE#         1817
  C:189CH         LINE#         1818
  C:18A4H         LINE#         1819
  C:18A4H         LINE#         1820
  C:18A4H         LINE#         1821
  C:18A6H         LINE#         1822
  C:18ACH         LINE#         1823
  C:18ACH         LINE#         1824
  C:18B2H         LINE#         1825
  C:18B2H         LINE#         1826
  C:18B2H         LINE#         1827
  C:18B5H         LINE#         1829
  C:18B5H         LINE#         1833
  C:18C8H         LINE#         1834
  C:18C8H         LINE#         1835
  C:18CEH         LINE#         1836
  C:18CFH         LINE#         1837
  C:18E7H         LINE#         1838
  C:18E7H         LINE#         1839
  C:18EDH         LINE#         1840
  C:18EDH         LINE#         1844
  C:18EDH         LINE#         1845
  C:18EEH         LINE#         1847
  C:18EEH         LINE#         1849
  C:18F7H         LINE#         1850
  C:190BH         LINE#         1853
  C:190DH         LINE#         1854
  C:1916H         LINE#         1855
  C:192AH         LINE#         1856
  C:192FH         LINE#         1857
  C:1934H         LINE#         1858
  C:1939H         LINE#         1860
  C:1942H         LINE#         1862
  C:1950H         LINE#         1863
  C:1950H         LINE#         1865
  C:1950H         LINE#         1866
  C:1953H         LINE#         1873
  C:1953H         LINE#         1874
  C:1960H         LINE#         1876
  C:1960H         LINE#         1877
  C:1962H         LINE#         1880
  C:1962H         LINE#         1882
  C:196CH         LINE#         1883
  C:196CH         LINE#         1884
  C:1974H         LINE#         1885
  C:1974H         LINE#         1886
  C:1974H         LINE#         1887
  C:1976H         LINE#         1888
  C:197CH         LINE#         1889
  C:197CH         LINE#         1890
  C:1982H         LINE#         1891
  C:1982H         LINE#         1892
  C:1982H         LINE#         1893
  C:1985H         LINE#         1895
  C:1985H         LINE#         1898
  C:1998H         LINE#         1899
  C:1998H         LINE#         1900
BL51 BANKED LINKER/LOCATER V6.22.2.0                                                  10/09/2020  16:27:21  PAGE 113


  C:199EH         LINE#         1901
  C:199FH         LINE#         1902
  C:19B7H         LINE#         1903
  C:19B7H         LINE#         1904
  C:19BDH         LINE#         1905
  C:19BDH         LINE#         1908
  C:19BDH         LINE#         1909
  C:19BEH         LINE#         1911
  C:19BEH         LINE#         1914
  C:19C0H         LINE#         1915
  C:19C9H         LINE#         1916
  C:19DDH         LINE#         1917
  C:19E2H         LINE#         1918
  C:19E7H         LINE#         1919
  C:19ECH         LINE#         1921
  C:19F5H         LINE#         1923
  C:1A00H         LINE#         1924
  C:1A00H         LINE#         1926
  C:1A00H         LINE#         1927
  C:1A02H         LINE#         1929
  C:1A02H         LINE#         1930
  C:1A02H         LINE#         1931
  C:1A02H         LINE#         1932
  C:1A02H         LINE#         1933
  C:1A05H         LINE#         1935
  C:1A05H         LINE#         1937
  C:1A0AH         LINE#         1938
  C:1A10H         LINE#         1939
  C:1A12H         LINE#         1940
  C:1A13H         LINE#         1949
  C:1A13H         LINE#         1951
  C:1A1DH         LINE#         1952
  C:1A1DH         LINE#         1953
  C:1A22H         LINE#         1954
  C:1A22H         LINE#         1956
  C:1A2AH         LINE#         1957
  C:1A2AH         LINE#         1958
  C:1A2CH         LINE#         1959
  C:1A35H         LINE#         1961
  C:1A35H         LINE#         1963
  C:1A35H         LINE#         1966
  C:1A37H         LINE#         1967
  C:1A3FH         LINE#         1968
  C:1A3FH         LINE#         1969
  C:1A45H         LINE#         1970
  C:1A45H         LINE#         1971
  C:1A45H         LINE#         1972
  C:1A48H         LINE#         1974
  C:1A48H         LINE#         1980
  C:1A5BH         LINE#         1981
  C:1A5BH         LINE#         1982
  C:1A61H         LINE#         1983
  C:1A62H         LINE#         1984
  C:1A7AH         LINE#         1985
  C:1A7AH         LINE#         1987
  C:1A80H         LINE#         1988
  C:1A80H         LINE#         1992
BL51 BANKED LINKER/LOCATER V6.22.2.0                                                  10/09/2020  16:27:21  PAGE 114


  C:1A80H         LINE#         1993
  C:1A81H         LINE#         1995
  C:1A81H         LINE#         1997
  C:1A83H         LINE#         1998
  C:1A8CH         LINE#         1999
  C:1AA0H         LINE#         2001
  C:1AA2H         LINE#         2002
  C:1AA8H         LINE#         2003
  C:1AADH         LINE#         2005
  C:1AADH         LINE#         2008
  C:1AAEH         LINE#         2012
  C:1AAEH         LINE#         2013
  C:1AB5H         LINE#         2014
  C:1AB5H         LINE#         2015
  C:1AB7H         LINE#         2023
  C:1AB7H         LINE#         2025
  C:1AC1H         LINE#         2026
  C:1AC1H         LINE#         2027
  C:1AC9H         LINE#         2028
  C:1AC9H         LINE#         2029
  C:1AC9H         LINE#         2030
  C:1ACBH         LINE#         2031
  C:1AD1H         LINE#         2032
  C:1AD1H         LINE#         2033
  C:1ADAH         LINE#         2034
  C:1AEEH         LINE#         2035
  C:1AEEH         LINE#         2036
  C:1AF1H         LINE#         2038
  C:1AF1H         LINE#         2041
  C:1B04H         LINE#         2042
  C:1B04H         LINE#         2043
  C:1B0AH         LINE#         2044
  C:1B0BH         LINE#         2045
  C:1B23H         LINE#         2046
  C:1B23H         LINE#         2047
  C:1B29H         LINE#         2048
  C:1B29H         LINE#         2050
  C:1B29H         LINE#         2051
  C:1B2AH         LINE#         2053
  C:1B2AH         LINE#         2055
  C:1B33H         LINE#         2058
  C:1B46H         LINE#         2059
  C:1B46H         LINE#         2061
  C:1B5FH         LINE#         2062
  C:1B6CH         LINE#         2063
  C:1B6CH         LINE#         2064
  C:1B6CH         LINE#         2065
  C:1B6CH         LINE#         2066
  C:1B74H         LINE#         2067
  C:1B85H         LINE#         2068
  C:1BA0H         LINE#         2069
  C:1BA3H         LINE#         2070
  C:1BA3H         LINE#         2071
  C:1BA6H         LINE#         2072
  C:1BA6H         LINE#         2073
  C:1BA9H         LINE#         2074
  C:1BA9H         LINE#         2075
BL51 BANKED LINKER/LOCATER V6.22.2.0                                                  10/09/2020  16:27:21  PAGE 115


  C:1BABH         LINE#         2076
  C:1BABH         LINE#         2077
  C:1BB5H         LINE#         2078
  C:1BB5H         LINE#         2079
  C:1BBDH         LINE#         2080
  C:1BBDH         LINE#         2081
  C:1BBDH         LINE#         2082
  C:1BBFH         LINE#         2083
  C:1BC5H         LINE#         2084
  C:1BC5H         LINE#         2085
  C:1BCEH         LINE#         2086
  C:1BE2H         LINE#         2087
  C:1BE2H         LINE#         2088
  C:1BE5H         LINE#         2090
  C:1BE5H         LINE#         2094
  C:1BF8H         LINE#         2095
  C:1BF8H         LINE#         2096
  C:1BFEH         LINE#         2097
  C:1BFFH         LINE#         2098
  C:1C17H         LINE#         2099
  C:1C17H         LINE#         2100
  C:1C17H         LINE#         2101
  C:1C17H         LINE#         2103
  C:1C17H         LINE#         2104
  C:1C1AH         LINE#         2106
  C:1C1AH         LINE#         2107
  C:1C28H         LINE#         2108
  C:1C28H         LINE#         2109
  C:1C29H         LINE#         2110
  C:1C29H         LINE#         2111
  C:1C2CH         LINE#         2112
  C:1C32H         LINE#         2113
  C:1C33H         LINE#         2114
  C:1C33H         LINE#         2115
  C:1C36H         LINE#         2116
  C:1C36H         LINE#         2117
  C:1C38H         LINE#         2118
  C:1C38H         LINE#         2119
  C:1C42H         LINE#         2120
  C:1C42H         LINE#         2121
  C:1C4AH         LINE#         2122
  C:1C4AH         LINE#         2123
  C:1C4AH         LINE#         2124
  C:1C4CH         LINE#         2125
  C:1C52H         LINE#         2126
  C:1C52H         LINE#         2127
  C:1C5BH         LINE#         2128
  C:1C6FH         LINE#         2129
  C:1C6FH         LINE#         2130
  C:1C71H         LINE#         2132
  C:1C71H         LINE#         2136
  C:1C84H         LINE#         2137
  C:1C84H         LINE#         2138
  C:1C8AH         LINE#         2139
  C:1C8BH         LINE#         2140
  C:1CA3H         LINE#         2141
  C:1CA3H         LINE#         2142
BL51 BANKED LINKER/LOCATER V6.22.2.0                                                  10/09/2020  16:27:21  PAGE 116


  C:1CA9H         LINE#         2143
  C:1CA9H         LINE#         2145
  C:1CA9H         LINE#         2146
  C:1CAAH         LINE#         2148
  C:1CAAH         LINE#         2149
  C:1CB0H         LINE#         2150
  C:1CB0H         LINE#         2151
  C:1CB1H         LINE#         2152
  C:1CB1H         LINE#         2153
  C:1CB4H         LINE#         2154
  C:1CB4H         LINE#         2155
  C:1CB6H         LINE#         2156
  C:1CB6H         LINE#         2157
  C:1CC0H         LINE#         2158
  C:1CC0H         LINE#         2159
  C:1CC8H         LINE#         2160
  C:1CC8H         LINE#         2161
  C:1CC8H         LINE#         2162
  C:1CCAH         LINE#         2163
  C:1CD0H         LINE#         2164
  C:1CD0H         LINE#         2165
  C:1CD9H         LINE#         2166
  C:1CEDH         LINE#         2167
  C:1CEDH         LINE#         2168
  C:1CEFH         LINE#         2170
  C:1CEFH         LINE#         2174
  C:1D02H         LINE#         2175
  C:1D02H         LINE#         2176
  C:1D08H         LINE#         2177
  C:1D09H         LINE#         2178
  C:1D21H         LINE#         2179
  C:1D21H         LINE#         2180
  C:1D27H         LINE#         2181
  C:1D27H         LINE#         2183
  C:1D27H         LINE#         2184
  C:1D28H         LINE#         2186
  C:1D28H         LINE#         2187
  C:1D2EH         LINE#         2188
  C:1D2EH         LINE#         2189
  C:1D2FH         LINE#         2190
  C:1D2FH         LINE#         2191
  C:1D32H         LINE#         2192
  C:1D38H         LINE#         2193
  C:1D39H         LINE#         2198
  C:1D39H         LINE#         2199
  C:1D3EH         LINE#         2200
  C:1D3EH         LINE#         2201
  C:1D40H         LINE#         2204
  C:1D40H         LINE#         2205
  C:1D4AH         LINE#         2206
  C:1D4AH         LINE#         2207
  C:1D52H         LINE#         2208
  C:1D52H         LINE#         2209
  C:1D52H         LINE#         2210
  C:1D54H         LINE#         2211
  C:1D5AH         LINE#         2212
  C:1D5AH         LINE#         2214
BL51 BANKED LINKER/LOCATER V6.22.2.0                                                  10/09/2020  16:27:21  PAGE 117


  C:1D5AH         LINE#         2215
  C:1D5CH         LINE#         2217
  C:1D5CH         LINE#         2220
  C:1D6FH         LINE#         2221
  C:1D6FH         LINE#         2222
  C:1D75H         LINE#         2223
  C:1D76H         LINE#         2224
  C:1D8BH         LINE#         2225
  C:1D8BH         LINE#         2226
  C:1D91H         LINE#         2227
  C:1D91H         LINE#         2229
  C:1D91H         LINE#         2231
  C:1D92H         LINE#         2233
  C:1D92H         LINE#         2235
  C:1D98H         LINE#         2236
  C:1D98H         LINE#         2238
  C:1D99H         LINE#         2240
  C:1D99H         LINE#         2241
  C:1D9EH         LINE#         2242
  C:1DA4H         LINE#         2244
  C:1DA4H         LINE#         2245
  C:1DAEH         LINE#         2246
  C:1DAEH         LINE#         2247
  C:1DB3H         LINE#         2248
  C:1DB3H         LINE#         2249
  C:1DB9H         LINE#         2250
  C:1DBAH         LINE#         2251
  C:1DBBH         LINE#         2252
  C:1DBDH         LINE#         2254
  C:1DBDH         LINE#         2255
  C:1DBFH         LINE#         2256
  C:1DC0H         LINE#         2257
  C:1DC0H         LINE#         2259
  C:1DC2H         LINE#         2265
  C:1DC2H         LINE#         2266
  C:1DC7H         LINE#         2267
  C:1DC7H         LINE#         2269
  C:1DC7H         LINE#         2270
  -------         ENDPROC       SECUENCIAEXPEDIDOR
  -------         ENDMOD        VERIFICADOR

  -------         MODULE        LINTECH
  C:0000H         SYMBOL        _ICE_DUMMY_
  C:93CAH         PUBLIC        _Inicializa
  C:8A26H         PUBLIC        _RD_MF
  C:908DH         PUBLIC        Dwload_EEprom
  C:96C3H         PUBLIC        _Card_Insercion
  C:8296H         PUBLIC        _Mov_Card
  C:6227H         PUBLIC        _WR_MF
  C:9754H         PUBLIC        LoadVerify_EEprom
  C:9BB9H         PUBLIC        Unique_Identifier_UID
  C:9FD2H         PUBLIC        Power_off
  C:A052H         PUBLIC        _Check_Status
  C:8FE3H         PUBLIC        Clave_Seguridad_S2
  C:9F52H         PUBLIC        Aut_Card_check_Status
  -------         PROC          _INICIALIZA
  X:0002H         SYMBOL        TipoMovimiento
BL51 BANKED LINKER/LOCATER V6.22.2.0                                                  10/09/2020  16:27:21  PAGE 118


  -------         DO            
  D:0003H         SYMBOL        j
  X:0003H         SYMBOL        bcc
  X:0004H         SYMBOL        g_scArrTxComSoft
  -------         ENDDO         
  C:93CAH         LINE#         133
  C:93CFH         LINE#         134
  C:93CFH         LINE#         137
  C:93D2H         LINE#         138
  C:93E8H         LINE#         139
  C:93E8H         LINE#         141
  C:93F1H         LINE#         143
  C:93F7H         LINE#         144
  C:93FAH         LINE#         145
  C:93FCH         LINE#         146
  C:9400H         LINE#         147
  C:9404H         LINE#         148
  C:9408H         LINE#         149
  C:9410H         LINE#         150
  C:9414H         LINE#         151
  C:9420H         LINE#         152
  C:9420H         LINE#         153
  C:9434H         LINE#         154
  C:9437H         LINE#         155
  C:943FH         LINE#         156
  C:9441H         LINE#         157
  C:9446H         LINE#         158
  C:9455H         LINE#         159
  C:9460H         LINE#         160
  C:9466H         LINE#         161
  C:9466H         LINE#         162
  -------         ENDPROC       _INICIALIZA
  -------         PROC          _CHECK_STATUS
  X:0011H         SYMBOL        Detalle
  -------         DO            
  D:0006H         SYMBOL        j
  D:0007H         SYMBOL        bcc
  X:0012H         SYMBOL        g_scArrTxComSoft
  -------         ENDDO         
  C:A052H         LINE#         171
  C:A057H         LINE#         172
  C:A057H         LINE#         175
  C:A060H         LINE#         177
  C:A062H         LINE#         179
  C:A068H         LINE#         180
  C:A06BH         LINE#         181
  C:A06DH         LINE#         182
  C:A071H         LINE#         183
  C:A075H         LINE#         184
  C:A079H         LINE#         185
  C:A081H         LINE#         186
  C:A085H         LINE#         187
  C:A091H         LINE#         188
  C:A091H         LINE#         189
  C:A09EH         LINE#         190
  C:A0A1H         LINE#         191
  C:A0A6H         LINE#         192
BL51 BANKED LINKER/LOCATER V6.22.2.0                                                  10/09/2020  16:27:21  PAGE 119


  C:A0A8H         LINE#         193
  C:A0ADH         LINE#         194
  C:A0BCH         LINE#         195
  C:A0C7H         LINE#         196
  C:A0CDH         LINE#         197
  -------         ENDPROC       _CHECK_STATUS
  -------         PROC          _CARD_INSERCION
  D:0007H         SYMBOL        Tipo
  -------         DO            
  D:0006H         SYMBOL        j
  D:0007H         SYMBOL        bcc
  X:0011H         SYMBOL        g_scArrTxComSoft
  -------         ENDDO         
  C:96C3H         LINE#         205
  C:96C3H         LINE#         206
  C:96C3H         LINE#         209
  C:96D0H         LINE#         210
  C:96D0H         LINE#         211
  C:96D7H         LINE#         212
  C:96DDH         LINE#         213
  C:96DFH         LINE#         215
  C:96DFH         LINE#         217
  C:96E6H         LINE#         218
  C:96ECH         LINE#         220
  C:96ECH         LINE#         222
  C:96EEH         LINE#         224
  C:96F4H         LINE#         225
  C:96F7H         LINE#         226
  C:96F9H         LINE#         227
  C:96FDH         LINE#         228
  C:9701H         LINE#         229
  C:9705H         LINE#         231
  C:970BH         LINE#         232
  C:9717H         LINE#         233
  C:9717H         LINE#         234
  C:9724H         LINE#         235
  C:9727H         LINE#         237
  C:972CH         LINE#         239
  C:972EH         LINE#         240
  C:9733H         LINE#         241
  C:9742H         LINE#         242
  C:974DH         LINE#         243
  C:9753H         LINE#         244
  -------         ENDPROC       _CARD_INSERCION
  -------         PROC          _MOV_CARD
  X:0011H         SYMBOL        Posicion
  -------         DO            
  D:0003H         SYMBOL        j
  X:0012H         SYMBOL        bcc
  X:0013H         SYMBOL        g_scArrTxComSoft
  -------         ENDDO         
  C:8296H         LINE#         255
  C:829BH         LINE#         256
  C:829BH         LINE#         259
  C:829EH         LINE#         261
  C:82BEH         LINE#         262
  C:82BEH         LINE#         263
BL51 BANKED LINKER/LOCATER V6.22.2.0                                                  10/09/2020  16:27:21  PAGE 120


  C:82C5H         LINE#         264
  C:82C5H         LINE#         265
  C:82CBH         LINE#         266
  C:82CDH         LINE#         267
  C:82D4H         LINE#         268
  C:82D4H         LINE#         269
  C:82DAH         LINE#         270
  C:82DCH         LINE#         271
  C:82E3H         LINE#         272
  C:82E3H         LINE#         273
  C:82E9H         LINE#         274
  C:82EBH         LINE#         275
  C:82F2H         LINE#         276
  C:82F2H         LINE#         277
  C:82F8H         LINE#         278
  C:82FAH         LINE#         279
  C:8301H         LINE#         280
  C:8301H         LINE#         281
  C:830AH         LINE#         282
  C:830AH         LINE#         284
  C:8310H         LINE#         285
  C:8313H         LINE#         286
  C:8315H         LINE#         287
  C:8319H         LINE#         288
  C:831DH         LINE#         289
  C:8321H         LINE#         290
  C:8329H         LINE#         291
  C:832DH         LINE#         292
  C:8339H         LINE#         293
  C:8339H         LINE#         294
  C:834DH         LINE#         295
  C:8350H         LINE#         296
  C:8358H         LINE#         297
  C:835AH         LINE#         298
  C:835FH         LINE#         299
  C:836EH         LINE#         300
  C:8379H         LINE#         301
  C:837FH         LINE#         302
  C:837FH         LINE#         304
  -------         ENDPROC       _MOV_CARD
  -------         PROC          AUT_CARD_CHECK_STATUS
  -------         DO            
  D:0003H         SYMBOL        j
  X:0011H         SYMBOL        bcc
  X:0012H         SYMBOL        g_scArrTxComSoft
  -------         ENDDO         
  C:9F52H         LINE#         310
  C:9F52H         LINE#         311
  C:9F52H         LINE#         314
  C:9F57H         LINE#         316
  C:9F60H         LINE#         318
  C:9F66H         LINE#         319
  C:9F69H         LINE#         320
  C:9F6BH         LINE#         321
  C:9F6FH         LINE#         322
  C:9F73H         LINE#         323
  C:9F77H         LINE#         324
BL51 BANKED LINKER/LOCATER V6.22.2.0                                                  10/09/2020  16:27:21  PAGE 121


  C:9F7BH         LINE#         325
  C:9F7FH         LINE#         326
  C:9F8BH         LINE#         327
  C:9F8BH         LINE#         328
  C:9F9FH         LINE#         329
  C:9FA2H         LINE#         330
  C:9FAAH         LINE#         331
  C:9FACH         LINE#         332
  C:9FB1H         LINE#         333
  C:9FC0H         LINE#         334
  C:9FCBH         LINE#         335
  C:9FD1H         LINE#         336
  -------         ENDPROC       AUT_CARD_CHECK_STATUS
  -------         PROC          DWLOAD_EEPROM
  -------         DO            
  D:0003H         SYMBOL        j
  X:0002H         SYMBOL        bcc
  X:0003H         SYMBOL        g_scArrTxComSoft
  -------         ENDDO         
  C:908DH         LINE#         342
  C:908DH         LINE#         343
  C:908DH         LINE#         346
  C:9092H         LINE#         347
  C:909BH         LINE#         349
  C:90A1H         LINE#         350
  C:90A4H         LINE#         351
  C:90A6H         LINE#         352
  C:90AAH         LINE#         353
  C:90AEH         LINE#         354
  C:90B2H         LINE#         355
  C:90B6H         LINE#         356
  C:90B9H         LINE#         357
  C:90BDH         LINE#         358
  C:90C0H         LINE#         359
  C:90C3H         LINE#         360
  C:90C7H         LINE#         361
  C:90CBH         LINE#         362
  C:90CFH         LINE#         363
  C:90D3H         LINE#         364
  C:90D7H         LINE#         365
  C:90DBH         LINE#         366
  C:90DFH         LINE#         367
  C:90E3H         LINE#         369
  C:90EFH         LINE#         370
  C:90EFH         LINE#         371
  C:9103H         LINE#         372
  C:9106H         LINE#         373
  C:910EH         LINE#         374
  C:9110H         LINE#         375
  C:9115H         LINE#         376
  C:9124H         LINE#         377
  C:912FH         LINE#         378
  C:9135H         LINE#         379
  -------         ENDPROC       DWLOAD_EEPROM
  -------         PROC          LOADVERIFY_EEPROM
  -------         DO            
  D:0003H         SYMBOL        j
BL51 BANKED LINKER/LOCATER V6.22.2.0                                                  10/09/2020  16:27:21  PAGE 122


  X:0011H         SYMBOL        bcc
  X:0012H         SYMBOL        g_scArrTxComSoft
  -------         ENDDO         
  C:9754H         LINE#         385
  C:9754H         LINE#         386
  C:9754H         LINE#         389
  C:9759H         LINE#         390
  C:9762H         LINE#         393
  C:9768H         LINE#         394
  C:976BH         LINE#         395
  C:976DH         LINE#         396
  C:9771H         LINE#         397
  C:9775H         LINE#         398
  C:9779H         LINE#         399
  C:977DH         LINE#         400
  C:9780H         LINE#         401
  C:9784H         LINE#         402
  C:9787H         LINE#         403
  C:978AH         LINE#         404
  C:978EH         LINE#         405
  C:9792H         LINE#         409
  C:979EH         LINE#         410
  C:979EH         LINE#         411
  C:97B2H         LINE#         412
  C:97B5H         LINE#         413
  C:97BDH         LINE#         414
  C:97BFH         LINE#         415
  C:97C4H         LINE#         416
  C:97D3H         LINE#         417
  C:97DEH         LINE#         418
  C:97E4H         LINE#         420
  -------         ENDPROC       LOADVERIFY_EEPROM
  -------         PROC          _RD_MF
  X:0011H         SYMBOL        Sector
  X:0012H         SYMBOL        Bloque
  -------         DO            
  D:0003H         SYMBOL        j
  X:0013H         SYMBOL        bcc
  X:0014H         SYMBOL        g_scArrTxComSoft
  -------         ENDDO         
  C:8A26H         LINE#         426
  C:8A2EH         LINE#         427
  C:8A2EH         LINE#         431
  C:8A31H         LINE#         433
  C:8A3AH         LINE#         434
  C:8A42H         LINE#         436
  C:8A4BH         LINE#         437
  C:8A53H         LINE#         438
  C:8A5CH         LINE#         441
  C:8A62H         LINE#         442
  C:8A65H         LINE#         443
  C:8A67H         LINE#         444
  C:8A6BH         LINE#         445
  C:8A6FH         LINE#         446
  C:8A73H         LINE#         447
  C:8A77H         LINE#         448
  C:8A7AH         LINE#         449
BL51 BANKED LINKER/LOCATER V6.22.2.0                                                  10/09/2020  16:27:21  PAGE 123


  C:8A7EH         LINE#         450
  C:8A86H         LINE#         451
  C:8A8EH         LINE#         452
  C:8A92H         LINE#         453
  C:8A96H         LINE#         455
  C:8AA2H         LINE#         456
  C:8AA2H         LINE#         457
  C:8AB6H         LINE#         458
  C:8AB9H         LINE#         459
  C:8AC1H         LINE#         462
  C:8AC3H         LINE#         463
  C:8AC8H         LINE#         464
  C:8AD7H         LINE#         465
  C:8AE2H         LINE#         466
  C:8AE8H         LINE#         468
  -------         ENDPROC       _RD_MF
  -------         PROC          _WR_MF
  X:0011H         SYMBOL        Sector
  X:0012H         SYMBOL        Bloque
  X:0013H         SYMBOL        buffer
  -------         DO            
  X:0016H         SYMBOL        j
  X:0017H         SYMBOL        bcc
  X:0018H         SYMBOL        g_scArrTxComSoft
  -------         ENDDO         
  C:6227H         LINE#         475
  C:6238H         LINE#         477
  C:6238H         LINE#         480
  C:623DH         LINE#         482
  C:6246H         LINE#         483
  C:624EH         LINE#         485
  C:6257H         LINE#         486
  C:625FH         LINE#         487
  C:6268H         LINE#         489
  C:626EH         LINE#         490
  C:6271H         LINE#         491
  C:6273H         LINE#         492
  C:6277H         LINE#         494
  C:627BH         LINE#         495
  C:627FH         LINE#         496
  C:6283H         LINE#         497
  C:6286H         LINE#         498
  C:628AH         LINE#         499
  C:6293H         LINE#         500
  C:629BH         LINE#         501
  C:629FH         LINE#         503
  C:62A4H         LINE#         504
  C:62A4H         LINE#         509
  C:62A7H         LINE#         510
  C:62A9H         LINE#         511
  C:62ABH         LINE#         512
  C:62ADH         LINE#         513
  C:62AFH         LINE#         518
  C:62B1H         LINE#         519
  C:62B3H         LINE#         520
  C:62B5H         LINE#         525
  C:62CAH         LINE#         526
BL51 BANKED LINKER/LOCATER V6.22.2.0                                                  10/09/2020  16:27:21  PAGE 124


  C:62CAH         LINE#         527
  C:62CBH         LINE#         528
  C:62CDH         LINE#         530
  C:62CDH         LINE#         531
  C:62E2H         LINE#         532
  C:62E2H         LINE#         536
  C:62ECH         LINE#         541
  C:62FFH         LINE#         542
  C:62FFH         LINE#         543
  C:62FFH         LINE#         544
  C:62FFH         LINE#         546
  C:62FFH         LINE#         547
  C:6305H         LINE#         548
  C:6305H         LINE#         553
  C:630AH         LINE#         554
  C:630CH         LINE#         555
  C:630EH         LINE#         556
  C:6310H         LINE#         557
  C:6312H         LINE#         559
  C:6314H         LINE#         561
  C:6314H         LINE#         562
  C:6328H         LINE#         563
  C:6328H         LINE#         564
  C:6334H         LINE#         565
  C:633CH         LINE#         566
  C:633CH         LINE#         571
  C:6342H         LINE#         573
  C:6355H         LINE#         574
  C:6355H         LINE#         575
  C:636AH         LINE#         576
  C:6372H         LINE#         577
  C:637AH         LINE#         580
  C:637CH         LINE#         581
  C:6381H         LINE#         582
  C:6390H         LINE#         583
  C:639BH         LINE#         584
  C:63A1H         LINE#         586
  -------         ENDPROC       _WR_MF
  -------         PROC          UNIQUE_IDENTIFIER_UID
  -------         DO            
  D:0003H         SYMBOL        j
  X:0011H         SYMBOL        bcc
  X:0012H         SYMBOL        g_scArrTxComSoft
  -------         ENDDO         
  C:9BB9H         LINE#         591
  C:9BB9H         LINE#         592
  C:9BB9H         LINE#         595
  C:9BBEH         LINE#         597
  C:9BC7H         LINE#         599
  C:9BCDH         LINE#         600
  C:9BD0H         LINE#         601
  C:9BD2H         LINE#         602
  C:9BD6H         LINE#         603
  C:9BDAH         LINE#         604
  C:9BDEH         LINE#         605
  C:9BE2H         LINE#         606
  C:9BE6H         LINE#         607
BL51 BANKED LINKER/LOCATER V6.22.2.0                                                  10/09/2020  16:27:21  PAGE 125


  C:9BEAH         LINE#         608
  C:9BEEH         LINE#         609
  C:9BFAH         LINE#         610
  C:9BFAH         LINE#         611
  C:9C0EH         LINE#         612
  C:9C11H         LINE#         613
  C:9C19H         LINE#         614
  C:9C1BH         LINE#         615
  C:9C20H         LINE#         616
  C:9C2FH         LINE#         617
  C:9C3AH         LINE#         618
  C:9C40H         LINE#         619
  -------         ENDPROC       UNIQUE_IDENTIFIER_UID
  -------         PROC          POWER_OFF
  -------         DO            
  D:0003H         SYMBOL        j
  X:0011H         SYMBOL        bcc
  X:0012H         SYMBOL        g_scArrTxComSoft
  -------         ENDDO         
  C:9FD2H         LINE#         620
  C:9FD2H         LINE#         621
  C:9FD2H         LINE#         624
  C:9FD7H         LINE#         626
  C:9FE0H         LINE#         628
  C:9FE6H         LINE#         629
  C:9FE9H         LINE#         630
  C:9FEBH         LINE#         631
  C:9FEFH         LINE#         632
  C:9FF3H         LINE#         633
  C:9FF7H         LINE#         634
  C:9FFBH         LINE#         635
  C:9FFFH         LINE#         636
  C:A00BH         LINE#         637
  C:A00BH         LINE#         638
  C:A01FH         LINE#         639
  C:A022H         LINE#         640
  C:A02AH         LINE#         641
  C:A02CH         LINE#         642
  C:A031H         LINE#         643
  C:A040H         LINE#         644
  C:A04BH         LINE#         645
  C:A051H         LINE#         648
  -------         ENDPROC       POWER_OFF
  -------         PROC          CLAVE_SEGURIDAD_S2
  -------         DO            
  D:0003H         SYMBOL        j
  X:027AH         SYMBOL        bcc
  X:027BH         SYMBOL        g_scArrTxComSoft
  -------         ENDDO         
  C:8FE3H         LINE#         649
  C:8FE3H         LINE#         650
  C:8FE3H         LINE#         653
  C:8FE8H         LINE#         654
  C:8FF1H         LINE#         657
  C:8FF7H         LINE#         658
  C:8FFAH         LINE#         659
  C:8FFCH         LINE#         660
BL51 BANKED LINKER/LOCATER V6.22.2.0                                                  10/09/2020  16:27:21  PAGE 126


  C:9000H         LINE#         661
  C:9004H         LINE#         662
  C:9008H         LINE#         663
  C:900CH         LINE#         664
  C:900FH         LINE#         665
  C:9013H         LINE#         666
  C:9016H         LINE#         667
  C:901AH         LINE#         669
  C:901EH         LINE#         671
  C:9022H         LINE#         672
  C:9026H         LINE#         673
  C:902AH         LINE#         674
  C:902EH         LINE#         675
  C:9032H         LINE#         676
  C:9036H         LINE#         679
  C:903AH         LINE#         681
  C:9046H         LINE#         682
  C:9046H         LINE#         683
  C:905AH         LINE#         684
  C:905DH         LINE#         685
  C:9065H         LINE#         686
  C:9067H         LINE#         687
  C:906CH         LINE#         688
  C:907BH         LINE#         689
  C:9086H         LINE#         690
  C:908CH         LINE#         693
  -------         ENDPROC       CLAVE_SEGURIDAD_S2
  -------         ENDMOD        LINTECH

  -------         MODULE        ?C?FPADD
  C:1DCFH         PUBLIC        ?C?FPADD
  C:1DCBH         PUBLIC        ?C?FPSUB
  -------         ENDMOD        ?C?FPADD

  -------         MODULE        ?C?FPMUL
  C:1EC0H         PUBLIC        ?C?FPMUL
  -------         ENDMOD        ?C?FPMUL

  -------         MODULE        ?C?FCAST
  C:1FD0H         PUBLIC        ?C?FCASTC
  C:1FCBH         PUBLIC        ?C?FCASTI
  C:1FC6H         PUBLIC        ?C?FCASTL
  -------         ENDMOD        ?C?FCAST

  -------         MODULE        ?C?CASTF
  C:2004H         PUBLIC        ?C?CASTF
  -------         ENDMOD        ?C?CASTF

  -------         MODULE        PRINTF
  X:00B0H         PUBLIC        ?_PRINTF?BYTE
  X:00B0H         PUBLIC        ?_SPRINTF?BYTE
  C:3634H         PUBLIC        _PRINTF
  C:362EH         PUBLIC        _SPRINTF
  -------         ENDMOD        PRINTF

  -------         MODULE        POW
  X:0046H         PUBLIC        ?_pow?BYTE
BL51 BANKED LINKER/LOCATER V6.22.2.0                                                  10/09/2020  16:27:21  PAGE 127


  C:6800H         PUBLIC        _pow
  -------         ENDMOD        POW

  -------         MODULE        ?C?CHKFLOAT
  C:2085H         PUBLIC        ?C?CHKFLOAT
  -------         ENDMOD        ?C?CHKFLOAT

  -------         MODULE        ?C?FPCMP
  C:20A1H         PUBLIC        ?C?FPCMP
  C:209FH         PUBLIC        ?C?FPCMP3
  -------         ENDMOD        ?C?FPCMP

  -------         MODULE        ?C?FPNEG
  C:2118H         PUBLIC        ?C?FPNEG
  -------         ENDMOD        ?C?FPNEG

  -------         MODULE        ?C?FPROUND
  C:2129H         PUBLIC        ?C?FPROUND
  -------         ENDMOD        ?C?FPROUND

  -------         MODULE        ?C?FPCONVERT
  C:2166H         PUBLIC        ?C?FPCONVERT
  -------         ENDMOD        ?C?FPCONVERT

  -------         MODULE        EXP
  C:953BH         PUBLIC        _EXP
  -------         ENDMOD        EXP

  -------         MODULE        LOG
  C:7135H         PUBLIC        _LOG
  C:7131H         PUBLIC        _LOG10
  -------         ENDMOD        LOG

  -------         MODULE        ?C?FPDIV
  C:226EH         PUBLIC        ?C?FPDIV
  -------         ENDMOD        ?C?FPDIV

  -------         MODULE        ?C?FTNPWR
  C:233BH         PUBLIC        ?C?FTNPWR
  -------         ENDMOD        ?C?FTNPWR

  -------         MODULE        ?C?COPY
  C:2498H         PUBLIC        ?C?COPY
  -------         ENDMOD        ?C?COPY

  -------         MODULE        ?C?CLDPTR
  C:24BEH         PUBLIC        ?C?CLDPTR
  -------         ENDMOD        ?C?CLDPTR

  -------         MODULE        ?C?CLDOPTR
  C:24D7H         PUBLIC        ?C?CLDOPTR
  -------         ENDMOD        ?C?CLDOPTR

  -------         MODULE        ?C?CSTPTR
  C:2504H         PUBLIC        ?C?CSTPTR
  -------         ENDMOD        ?C?CSTPTR

BL51 BANKED LINKER/LOCATER V6.22.2.0                                                  10/09/2020  16:27:21  PAGE 128


  -------         MODULE        ?C?CSTOPTR
  C:2516H         PUBLIC        ?C?CSTOPTR
  -------         ENDMOD        ?C?CSTOPTR

  -------         MODULE        ?C?IMUL
  C:2538H         PUBLIC        ?C?IMUL
  -------         ENDMOD        ?C?IMUL

  -------         MODULE        ?C?UIDIV
  C:254AH         PUBLIC        ?C?UIDIV
  -------         ENDMOD        ?C?UIDIV

  -------         MODULE        ?C?IILDX
  C:259FH         PUBLIC        ?C?IILDX
  -------         ENDMOD        ?C?IILDX

  -------         MODULE        ?C?LNEG
  C:25B5H         PUBLIC        ?C?LNEG
  -------         ENDMOD        ?C?LNEG

  -------         MODULE        ?C?ULCMP
  C:25C3H         PUBLIC        ?C?ULCMP
  -------         ENDMOD        ?C?ULCMP

  -------         MODULE        ?C?LLDCODE
  C:25D4H         PUBLIC        ?C?LLDCODE
  -------         ENDMOD        ?C?LLDCODE

  -------         MODULE        ?C?LLDXDATA0
  C:25E4H         PUBLIC        ?C?LLDXDATA0
  -------         ENDMOD        ?C?LLDXDATA0

  -------         MODULE        ?C?LLDCODE0
  C:25F0H         PUBLIC        ?C?LLDCODE0
  -------         ENDMOD        ?C?LLDCODE0

  -------         MODULE        ?C?LSTXDATA
  C:2600H         PUBLIC        ?C?LSTXDATA
  -------         ENDMOD        ?C?LSTXDATA

  -------         MODULE        ?C?LSTKXDATA
  C:260CH         PUBLIC        ?C?LSTKXDATA
  -------         ENDMOD        ?C?LSTKXDATA

  -------         MODULE        ?C?PLDIXDATA
  C:263DH         PUBLIC        ?C?PLDIXDATA
  -------         ENDMOD        ?C?PLDIXDATA

  -------         MODULE        ?C?PSTXDATA
  C:2654H         PUBLIC        ?C?PSTXDATA
  -------         ENDMOD        ?C?PSTXDATA

  -------         MODULE        ?C?CCASE
  C:265DH         PUBLIC        ?C?CCASE
  -------         ENDMOD        ?C?CCASE

  -------         MODULE        STRCAT
BL51 BANKED LINKER/LOCATER V6.22.2.0                                                  10/09/2020  16:27:21  PAGE 129


  X:005AH         PUBLIC        ?_strcat?BYTE
  C:A372H         PUBLIC        _strcat
  -------         ENDMOD        STRCAT

  -------         MODULE        ?C?STRCMP
  C:2801H         PUBLIC        ?C?STRCMP
  -------         ENDMOD        ?C?STRCMP

  -------         MODULE        ?C?STRCPY
  C:28EAH         PUBLIC        ?C?STRCPY
  -------         ENDMOD        ?C?STRCPY

  -------         MODULE        STRLEN
  C:000EH         PUBLIC        _STRLEN
  -------         ENDMOD        STRLEN

  -------         MODULE        STRTOK
  X:0078H         PUBLIC        ?_strtok?BYTE
  C:8380H         PUBLIC        _strtok
  -------         ENDMOD        STRTOK

  -------         MODULE        ATOI
  C:8542H         PUBLIC        _atoi
  -------         ENDMOD        ATOI

  -------         MODULE        MALLOC
  C:87CAH         PUBLIC        _malloc
  -------         ENDMOD        MALLOC

  -------         MODULE        INIT_MEM
  X:0290H         PUBLIC        __mem_avail__
  C:AB0FH         PUBLIC        _init_mempool
  -------         ENDMOD        INIT_MEM

  -------         MODULE        FREE
  C:6D4DH         PUBLIC        _free
  -------         ENDMOD        FREE

  -------         MODULE        ?C?ILDIX
  C:2907H         PUBLIC        ?C?ILDIX
  -------         ENDMOD        ?C?ILDIX

  -------         MODULE        ISDIGIT
  C:AF25H         PUBLIC        _isdigit
  -------         ENDMOD        ISDIGIT

  -------         MODULE        ISSPACE
  C:AE85H         PUBLIC        _isspace
  -------         ENDMOD        ISSPACE

  -------         MODULE        STRSPN
  X:007EH         PUBLIC        ?_strspn?BYTE
  C:9D4DH         PUBLIC        _strspn
  -------         ENDMOD        STRSPN

  -------         MODULE        STRPBRK
  X:007EH         PUBLIC        ?_strpbrk?BYTE
BL51 BANKED LINKER/LOCATER V6.22.2.0                                                  10/09/2020  16:27:21  PAGE 130


  C:9DD1H         PUBLIC        _strpbrk
  -------         ENDMOD        STRPBRK

*** WARNING L16: UNCALLED SEGMENT, IGNORED FOR OVERLAY PROCESS
    SEGMENT: ?PR?CLAVE_SEGURIDAD_S2?LINTECH

Program Size: data=128.7 xdata=677 code=44966
LINK/LOCATE RUN COMPLETE.  1 WARNING(S),  0 ERROR(S)
