BL51 BANKED LINKER/LOCATER V6.22.2.0                                                    07/27/2021  14:31:11  PAGE 1


BL51 BANKED LINKER/LOCATER V6.22.2.0, INVOKED BY:
C:\KEIL_V5\C51\BIN\BL51.EXE .\Objects\main.obj, .\Objects\Accescan.obj, .\Objects\Clock.obj, .\Objects\delay.obj, .\Obje
>> cts\eeprom.obj, .\Objects\io_sensores.obj, .\Objects\pantallas.obj, .\Objects\prog.obj, .\Objects\pto_paralelo.obj, .
>> \Objects\tibbo.obj, .\Objects\uart.obj, .\Objects\verificador.obj, .\Objects\lintech.obj TO .\Objects\verificador_v_0
>> 1_raspberry PRINT (.\Listings\verificador_v_01_raspberry.m51) RAMSIZE (256)


MEMORY MODEL: LARGE WITH FLOATING POINT ARITHMETIC


INPUT MODULES INCLUDED:
  .\Objects\main.obj (MAIN)
  .\Objects\Accescan.obj (ACCESCAN)
  .\Objects\Clock.obj (CLOCK)
  .\Objects\delay.obj (DELAY)
  .\Objects\eeprom.obj (EEPROM)
  .\Objects\io_sensores.obj (IO_SENSORES)
  .\Objects\pantallas.obj (PANTALLAS)
  .\Objects\prog.obj (PROG)
  .\Objects\pto_paralelo.obj (PTO_PARALELO)
  .\Objects\tibbo.obj (TIBBO)
  .\Objects\uart.obj (UART)
  .\Objects\verificador.obj (VERIFICADOR)
  .\Objects\lintech.obj (LINTECH)
  C:\KEIL_V5\C51\LIB\C51FPL.LIB (?C?FPADD)
  C:\KEIL_V5\C51\LIB\C51FPL.LIB (?C?FPMUL)
  C:\KEIL_V5\C51\LIB\C51FPL.LIB (?C?FCAST)
  C:\KEIL_V5\C51\LIB\C51FPL.LIB (?C?CASTF)
  C:\KEIL_V5\C51\LIB\C51FPL.LIB (PRINTF)
  C:\KEIL_V5\C51\LIB\C51FPL.LIB (POW)
  C:\KEIL_V5\C51\LIB\C51FPL.LIB (?C?FPGETOPN)
  C:\KEIL_V5\C51\LIB\C51FPL.LIB (?C?CHKFLOAT)
  C:\KEIL_V5\C51\LIB\C51FPL.LIB (?C?FPCMP)
  C:\KEIL_V5\C51\LIB\C51FPL.LIB (?C?FPNEG)
  C:\KEIL_V5\C51\LIB\C51FPL.LIB (?C?FPROUND)
  C:\KEIL_V5\C51\LIB\C51FPL.LIB (?C?FPCONVERT)
  C:\KEIL_V5\C51\LIB\C51FPL.LIB (EXP)
  C:\KEIL_V5\C51\LIB\C51FPL.LIB (LOG)
  C:\KEIL_V5\C51\LIB\C51FPL.LIB (?C?FPDIV)
  C:\KEIL_V5\C51\LIB\C51FPL.LIB (?C?FTNPWR)
  C:\KEIL_V5\C51\LIB\C51FPL.LIB (?C?FPSERIES)
  C:\KEIL_V5\C51\LIB\C51L.LIB (?C_STARTUP)
  C:\KEIL_V5\C51\LIB\C51L.LIB (?C?COPY)
  C:\KEIL_V5\C51\LIB\C51L.LIB (?C?CLDPTR)
  C:\KEIL_V5\C51\LIB\C51L.LIB (?C?CLDOPTR)
  C:\KEIL_V5\C51\LIB\C51L.LIB (?C?CSTPTR)
  C:\KEIL_V5\C51\LIB\C51L.LIB (?C?CSTOPTR)
  C:\KEIL_V5\C51\LIB\C51L.LIB (?C?UIDIV)
  C:\KEIL_V5\C51\LIB\C51L.LIB (?C?IILDX)
  C:\KEIL_V5\C51\LIB\C51L.LIB (?C?LNEG)
  C:\KEIL_V5\C51\LIB\C51L.LIB (?C?LLDCODE)
  C:\KEIL_V5\C51\LIB\C51L.LIB (?C?LLDXDATA0)
  C:\KEIL_V5\C51\LIB\C51L.LIB (?C?LLDCODE0)
  C:\KEIL_V5\C51\LIB\C51L.LIB (?C?LSTXDATA)
  C:\KEIL_V5\C51\LIB\C51L.LIB (?C?LSTKXDATA)
  C:\KEIL_V5\C51\LIB\C51L.LIB (?C?PLDIXDATA)
  C:\KEIL_V5\C51\LIB\C51L.LIB (?C?PSTXDATA)
  C:\KEIL_V5\C51\LIB\C51L.LIB (?C?CCASE)
BL51 BANKED LINKER/LOCATER V6.22.2.0                                                  07/27/2021  14:31:11  PAGE 2


  C:\KEIL_V5\C51\LIB\C51L.LIB (STRCAT)
  C:\KEIL_V5\C51\LIB\C51L.LIB (?C?STRCMP)
  C:\KEIL_V5\C51\LIB\C51L.LIB (?C?STRCPY)
  C:\KEIL_V5\C51\LIB\C51L.LIB (STRLEN)
  C:\KEIL_V5\C51\LIB\C51L.LIB (STRTOK)
  C:\KEIL_V5\C51\LIB\C51L.LIB (ATOI)
  C:\KEIL_V5\C51\LIB\C51L.LIB (?C_INIT)
  C:\KEIL_V5\C51\LIB\C51L.LIB (?C?IMUL)
  C:\KEIL_V5\C51\LIB\C51L.LIB (?C?ILDIX)
  C:\KEIL_V5\C51\LIB\C51L.LIB (ISDIGIT)
  C:\KEIL_V5\C51\LIB\C51L.LIB (ISSPACE)
  C:\KEIL_V5\C51\LIB\C51L.LIB (STRSPN)
  C:\KEIL_V5\C51\LIB\C51L.LIB (STRPBRK)


LINK MAP OF MODULE:  .\Objects\verificador_v_01_raspberry (MAIN)


            TYPE    BASE      LENGTH    RELOCATION   SEGMENT NAME
            -----------------------------------------------------

            * * * * * * *   D A T A   M E M O R Y   * * * * * * *
            REG     0000H     0008H     ABSOLUTE     "REG BANK 0"
            DATA    0008H     0005H     UNIT         _DATA_GROUP_
            DATA    000DH     0004H     UNIT         ?DT?UART
                    0011H     000FH                  *** GAP ***
            BIT     0020H.0   0001H.1   UNIT         _BIT_GROUP_
            BIT     0021H.1   0000H.2   UNIT         ?BI?MAIN
            BIT     0021H.3   0000H.2   UNIT         ?BI?UART
            BIT     0021H.5   0000H.1   UNIT         ?BI?EEPROM
                    0021H.6   0000H.2                *** GAP ***
            IDATA   0022H     0064H     UNIT         ?ID?MAIN
            IDATA   0086H     0001H     UNIT         ?STACK

            * * * * * * *  X D A T A   M E M O R Y  * * * * * * *
            XDATA   0000H     00A1H     UNIT         _XDATA_GROUP_
            XDATA   00A1H     0070H     UNIT         ?XD?MAIN
            XDATA   0111H     0042H     UNIT         ?XD?PROG
            XDATA   0153H     0037H     UNIT         ?XD?VERIFICADOR
            XDATA   018AH     001EH     UNIT         ?XD?PTO_PARALELO
            XDATA   01A8H     0003H     UNIT         ?XD?EEPROM
            XDATA   01ABH     0003H     UNIT         ?XD?UART
            XDATA   01AEH     0003H     UNIT         ?XD?STRTOK
            XDATA   01B1H     0002H     UNIT         ?XD?ACCESCAN
            XDATA   01B3H     0001H     UNIT         ?XD?CLOCK
            XDATA   01B4H     0001H     UNIT         ?XD?IO_SENSORES
            XDATA   01B5H     0001H     UNIT         ?XD?PANTALLAS

            * * * * * * *   C O D E   M E M O R Y   * * * * * * *
            CODE    0000H     0003H     ABSOLUTE     
            CODE    0003H     0008H     UNIT         ?PR?P_CK?CLOCK
            CODE    000BH     0003H     ABSOLUTE     
            CODE    000EH     0015H     UNIT         ?PR?_STRLEN?STRLEN
            CODE    0023H     0003H     ABSOLUTE     
            CODE    0026H     0BC5H     UNIT         ?PR?SECUENCIAEXPEDIDOR?VERIFICADOR
            CODE    0BEBH     0B44H     UNIT         ?C?LIB_CODE
            CODE    172FH     07C4H     UNIT         ?CO?PROG
BL51 BANKED LINKER/LOCATER V6.22.2.0                                                  07/27/2021  14:31:11  PAGE 3


            CODE    1EF3H     0537H     UNIT         ?PR?_ANALIZA_TIEMPO?CLOCK
            CODE    242AH     04ACH     UNIT         ?PR?_PANTALLALCD?PANTALLAS
            CODE    28D6H     048BH     UNIT         ?CO?VERIFICADOR
            CODE    2D61H     0483H     UNIT         ?PR?PRINTF?PRINTF
            CODE    31E4H     043CH     UNIT         ?CO?PANTALLAS
            CODE    3620H     0419H     UNIT         ?PR?_VALIDA_TRAMA_PTO?ACCESCAN
            CODE    3A39H     02D0H     UNIT         ?PR?_TWO_BYTEHEX_DECIMAL?CLOCK
            CODE    3D09H     02CDH     UNIT         ?PR?_TRAMA_PTO_PARALELO_NEW?PTO_PARALELO
            CODE    3FD6H     0292H     UNIT         ?PR?_CMD_LPR_SALIDA?ACCESCAN
            CODE    4268H     01D9H     UNIT         ?PR?_BLOCK_READ_CLOCK_ASCII?CLOCK
            CODE    4441H     01CFH     UNIT         ?PR?_BLOCK_READ_CLOCK_ASCII_RASBERRY?CLOCK
            CODE    4610H     01C1H     UNIT         ?PR?_HASH_ID?PROG
            CODE    47D1H     01B9H     UNIT         ?PR?MENU?PROG
            CODE    498AH     01B3H     UNIT         ?PR?COM_ISR?UART
            CODE    4B3DH     0179H     UNIT         ?PR?_CHECK_FECHAOUT?CLOCK
            CODE    4CB6H     0166H     UNIT         ?PR?_POW?POW
            CODE    4E1CH     0165H     UNIT         ?CO?LINTECH
            CODE    4F81H     0162H     UNIT         ?PR?_PANTALLALCD_LINEA_2?PANTALLAS
            CODE    50E3H     0149H     UNIT         ?PR?_WR_MF?LINTECH
            CODE    522CH     0140H     UNIT         ?PR?SECUENCIA_INICIO_EXPEDIDOR?VERIFICADOR
            CODE    536CH     013EH     UNIT         ?PR?PROG_SIN_COBRO?PROG
            CODE    54AAH     0129H     UNIT         ?PR?LOG?LOG
            CODE    55D3H     0115H     UNIT         ?PR?_VALIDAR_CLK?CLOCK
            CODE    56E8H     0110H     UNIT         ?PR?LOAD_AND_SEND_ID_COD?PTO_PARALELO
            CODE    57F8H     00FFH     UNIT         ?PR?_TRAMA_PTO_PARALELO_P?PTO_PARALELO
            CODE    58F7H     00FCH     UNIT         ?PR?PROG_DEBUG?PROG
            CODE    59F3H     00FCH     UNIT         ?PR?PROG_USE_LPR?PROG
            CODE    5AEFH     00FCH     UNIT         ?PR?PROG_COMPARACION_ACTIVA?PROG
            CODE    5BEBH     00FCH     UNIT         ?PR?TIPO_PANTALLA?PROG
            CODE    5CE7H     00FCH     UNIT         ?PR?DCTO_CAJA?PROG
            CODE    5DE3H     00EAH     UNIT         ?PR?_MOV_CARD?LINTECH
            CODE    5ECDH     00E4H     UNIT         ?PR?_STRTOK?STRTOK
            CODE    5FB1H     00DBH     UNIT         ?PR?_ATOI?ATOI
            CODE    608CH     00D6H     UNIT         ?PR?_CMD_LPR_SALIDA_WIEGAND?ACCESCAN
            CODE    6162H     00C5H     UNIT         ?PR?_BLOCK_READ_CLOCK?CLOCK
            CODE    6227H     00C3H     UNIT         ?PR?_RD_MF?LINTECH
            CODE    62EAH     00BDH     UNIT         ?PR?PROG_COD_PARK?PROG
            CODE    63A7H     00BDH     UNIT         ?PR?PROG_TIEMPO_GRACIA?PROG
            CODE    6464H     00B6H     UNIT         ?PR?PROG_ID_CLIENTE?PROG
            CODE    651AH     00B4H     UNIT         ?PR?_SEND_PORT?PTO_PARALELO
            CODE    65CEH     00AFH     UNIT         ?PR?ERROR_RX_PTO?VERIFICADOR
            CODE    667DH     00A9H     UNIT         ?PR?DWLOAD_EEPROM?LINTECH
            CODE    6726H     00A7H     UNIT         ?PR?_BLOCK_READ_CLOCK_HEX?CLOCK
            CODE    67CDH     00A7H     UNIT         ?CO?TIBBO
            CODE    6874H     00A6H     UNIT         ?PR?_DEBUG_FECHA_ACTUAL?TIBBO
            CODE    691AH     00A0H     UNIT         ?CO?IO_SENSORES
            CODE    69BAH     009DH     UNIT         ?PR?_INICIALIZA?LINTECH
            CODE    6A57H     009CH     UNIT         ?PR?_RECIBE_PORT?PTO_PARALELO
            CODE    6AF3H     009BH     UNIT         ?C_INITSEG
            CODE    6B8EH     009AH     UNIT         ?PR?EXP?EXP
            CODE    6C28H     0095H     UNIT         ?PR?_RECIBE_CMD_MONITOR?ACCESCAN
            CODE    6CBDH     0091H     UNIT         ?PR?_CARD_INSERCION?LINTECH
            CODE    6D4EH     0091H     UNIT         ?PR?LOADVERIFY_EEPROM?LINTECH
            CODE    6DDFH     0090H     UNIT         ?PR?_GETOPTION?PROG
            CODE    6E6FH     008FH     UNIT         ?PR?_LEE_CLK?CLOCK
            CODE    6EFEH     008FH     UNIT         ?PR?_BLOCK_WRITE_CLOCK_ASCII?CLOCK
            CODE    6F8DH     008CH     UNIT         ?C_C51STARTUP
BL51 BANKED LINKER/LOCATER V6.22.2.0                                                  07/27/2021  14:31:11  PAGE 4


            CODE    7019H     0088H     UNIT         ?PR?_SEND_PORTERR?PTO_PARALELO
            CODE    70A1H     0088H     UNIT         ?PR?RX_DATA?TIBBO
            CODE    7129H     0085H     UNIT         ?PR?MAIN?MAIN
            CODE    71AEH     0084H     UNIT         ?PR?_STRSPN?STRSPN
            CODE    7232H     0081H     UNIT         ?PR?_STRPBRK?STRPBRK
            CODE    72B3H     0080H     UNIT         ?PR?MSJ_LCD_INFORMATIVO?IO_SENSORES
            CODE    7333H     0080H     UNIT         ?PR?_INGRESADATO?PROG
            CODE    73B3H     0080H     UNIT         ?PR?AUT_CARD_CHECK_STATUS?LINTECH
            CODE    7433H     007DH     UNIT         ?PR?RELOJ_PANTALLA_LCD?PANTALLAS
            CODE    74B0H     007CH     UNIT         ?PR?_CHECK_STATUS?LINTECH
            CODE    752CH     0076H     UNIT         ?PR?_DEBUGBUFFERMF?TIBBO
            CODE    75A2H     0073H     UNIT         ?PR?VALIDASENSORESPASO?IO_SENSORES
            CODE    7615H     006BH     UNIT         ?PR?_STRCAT?STRCAT
            CODE    7680H     0063H     UNIT         ?PR?SHOW?PROG
            CODE    76E3H     0062H     UNIT         ?PR?_LISTACOMANDOS?PROG
            CODE    7745H     005BH     UNIT         ?PR?_RASPBERRY_DATA?PANTALLAS
            CODE    77A0H     0056H     UNIT         ?PR?VARIABLE_INICIO?EEPROM
            CODE    77F6H     0053H     UNIT         ?PR?_BYTEHEX_DECIMAL?CLOCK
            CODE    7849H     004DH     UNIT         ?PR?L_D_M?EEPROM
            CODE    7896H     004BH     UNIT         ?PR?_TX_AUX?TIBBO
            CODE    78E1H     0048H     UNIT         ?PR?_DEBUG_PTO_PARALELO?TIBBO
            CODE    7929H     0047H     UNIT         ?PR?_DEBUG_CHR_TIBBO?TIBBO
            CODE    7970H     0046H     UNIT         ?PR?_ESCRIBIRCADENASOFT_BUFFER?MAIN
            CODE    79B6H     0046H     UNIT         ?PR?_LCD_TXT_NUM_CHAR?PANTALLAS
            CODE    79FCH     0046H     UNIT         ?PR?_DEBUG_HEXDEC?TIBBO
            CODE    7A42H     0045H     UNIT         ?PR?_VALIDARCLAVE?PROG
            CODE    7A87H     0044H     UNIT         ?PR?_LCD_TXT?PANTALLAS
            CODE    7ACBH     0044H     UNIT         ?PR?_DEBUG_TXT_TIBBO?TIBBO
            CODE    7B0FH     0041H     UNIT         ?PR?_MONITOR_CHR?ACCESCAN
            CODE    7B50H     0041H     UNIT         ?PR?_TWO_ONE?CLOCK
            CODE    7B91H     0040H     UNIT         ?PR?_GETCMD?PROG
            CODE    7BD1H     003FH     UNIT         ?PR?_EB_CLK?CLOCK
            CODE    7C10H     003FH     UNIT         ?PR?_WR_EEPROM?EEPROM
            CODE    7C4FH     003EH     UNIT         ?PR?_PUTCHAR?MAIN
            CODE    7C8DH     003DH     UNIT         ?PR?_RD_EEPROM?EEPROM
            CODE    7CCAH     003BH     UNIT         ?CO?ACCESCAN
            CODE    7D05H     003BH     UNIT         ?PR?_COM_PUTCHAR?UART
            CODE    7D40H     003AH     UNIT         ?PR?_DELAY_10MS?DELAY
            CODE    7D7AH     0037H     UNIT         ?PR?TIMER0_INT?MAIN
            CODE    7DB1H     0036H     UNIT         ?PR?FORMATO_EEPROM?EEPROM
            CODE    7DE7H     002CH     UNIT         ?PR?LOAD_AND_SEND_INFO_RELOJ?PTO_PARALELO
            CODE    7E13H     002AH     UNIT         ?PR?COM_INITIALIZE?UART
            CODE    7E3DH     0028H     UNIT         ?PR?_WR_CLK?CLOCK
            CODE    7E65H     0028H     UNIT         ?PR?COM_BAUDRATE?UART
            CODE    7E8DH     0027H     UNIT         ?PR?_TX_CHRLCD?PANTALLAS
            CODE    7EB4H     0026H     UNIT         ?PR?COM_GETCHAR?UART
            CODE    7EDAH     0024H     UNIT         ?PR?TRAMA_VALIDACION_P_N?VERIFICADOR
            CODE    7EFEH     0022H     UNIT         ?PR?_E_D_M?EEPROM
            CODE    7F20H     0021H     UNIT         ?PR?_HEX_BCD?CLOCK
            CODE    7F41H     0020H     UNIT         ?PR?ACKD?EEPROM
            CODE    7F61H     0020H     UNIT         ?PR?ACK_LECT?EEPROM
            CODE    7F81H     001FH     UNIT         ?PR?VALIDASENSOR?IO_SENSORES
            CODE    7FA0H     001FH     UNIT         ?PR?VALIDASENSORES_OUT?IO_SENSORES
            CODE    7FBFH     001FH     UNIT         ?PR?TIME_BIT?TIBBO
            CODE    7FDEH     001EH     UNIT         ?PR?_BCD_HEX?CLOCK
            CODE    7FFCH     001DH     UNIT         ?CO?PTO_PARALELO
            CODE    8019H     001BH     UNIT         ?PR?_DELAY_1MS?DELAY
BL51 BANKED LINKER/LOCATER V6.22.2.0                                                  07/27/2021  14:31:11  PAGE 5


            CODE    8034H     0017H     UNIT         ?PR?DISPLAYCURSOR?PROG
            CODE    804BH     0017H     UNIT         ?PR?TIME_MBIT?TIBBO
            CODE    8062H     0014H     UNIT         ?PR?_ISSPACE?ISSPACE
            CODE    8076H     0012H     UNIT         ?PR?_DELAY_20US?DELAY
            CODE    8088H     0012H     UNIT         ?PR?START?EEPROM
            CODE    809AH     0012H     UNIT         ?PR?DIR_BOARD?IO_SENSORES
            CODE    80ACH     0012H     UNIT         ?PR?PULSO_BUS?PTO_PARALELO
            CODE    80BEH     0012H     UNIT         ?PR?COM_RBUFLEN?UART
            CODE    80D0H     0012H     UNIT         ?PR?COM_TBUFLEN?UART
            CODE    80E2H     0010H     UNIT         ?PR?INI_TIMER?MAIN
            CODE    80F2H     0010H     UNIT         ?PR?INICIA_BOARD?MAIN
            CODE    8102H     000FH     UNIT         ?PR?_ISDIGIT?ISDIGIT
            CODE    8111H     000CH     UNIT         ?PR?_GETKEY?MAIN
            CODE    811DH     000AH     UNIT         ?PR?COND_INI_PTO?PTO_PARALELO
            CODE    8127H     0009H     UNIT         ?PR?STOP?EEPROM
            CODE    8130H     0009H     UNIT         ?PR?DEBUG_DIVIDIR_TEXTO?TIBBO
            CODE    8139H     0007H     UNIT         ?PR?COND_INI_CLOCK?CLOCK
            CODE    8140H     0007H     UNIT         ?PR?SEL_FUNCION?IO_SENSORES
            CODE    8147H     0007H     UNIT         ?PR?SEL_AUTO?IO_SENSORES
            CODE    814EH     0007H     UNIT         ?PR?SEL_SENSOR2?IO_SENSORES
            CODE    8155H     0007H     UNIT         ?PR?SEL_SENSOR1?IO_SENSORES
            CODE    815CH     0007H     UNIT         ?PR?SEL_DIR1?IO_SENSORES
            CODE    8163H     0007H     UNIT         ?PR?SEL_DIR2?IO_SENSORES
            CODE    816AH     0006H     UNIT         ?PR?P_ME?EEPROM
            CODE    8170H     0005H     UNIT         ?PR?ON_TIMER0_INTERRUP?MAIN
            CODE    8175H     0005H     UNIT         ?PR?COND_INI_TIBBO?TIBBO
            CODE    817AH     0003H     UNIT         ?PR?OFF_TIMER0_INTERRUP?MAIN
            CODE    817DH     0001H     UNIT         ?PR?DELAY?DELAY



OVERLAY MAP OF MODULE:   .\Objects\verificador_v_01_raspberry (MAIN)


SEGMENT                                             BIT_GROUP          DATA_GROUP          XDATA_GROUP
  +--> CALLED SEGMENT                            START    LENGTH     START    LENGTH     START    LENGTH
--------------------------------------------------------------------------------------------------------
?C_C51STARTUP                                    -----    -----      -----    -----      -----    -----
  +--> ?PR?MAIN?MAIN
  +--> ?C_INITSEG

?PR?MAIN?MAIN                                    -----    -----      -----    -----      0000H    0001H
  +--> ?PR?INI_TIMER?MAIN
  +--> ?PR?ON_TIMER0_INTERRUP?MAIN
  +--> ?PR?COM_INITIALIZE?UART
  +--> ?PR?COM_BAUDRATE?UART
  +--> ?PR?INICIA_BOARD?MAIN
  +--> ?PR?TIME_BIT?TIBBO
  +--> ?PR?_DELAY_20US?DELAY
  +--> ?PR?TIME_MBIT?TIBBO
  +--> ?PR?_TX_AUX?TIBBO
  +--> ?PR?SEL_FUNCION?IO_SENSORES
  +--> ?PR?MENU?PROG
  +--> ?PR?VARIABLE_INICIO?EEPROM
  +--> ?PR?SECUENCIA_INICIO_EXPEDIDOR?VERIFI...
  +--> ?PR?_RECIBE_CMD_MONITOR?ACCESCAN
  +--> ?PR?SECUENCIAEXPEDIDOR?VERIFICADOR
BL51 BANKED LINKER/LOCATER V6.22.2.0                                                  07/27/2021  14:31:11  PAGE 6


  +--> ?PR?_RECIBE_PORT?PTO_PARALELO
  +--> ?PR?_VALIDA_TRAMA_PTO?ACCESCAN
  +--> ?PR?_DEBUG_PTO_PARALELO?TIBBO
  +--> ?PR?MSJ_LCD_INFORMATIVO?IO_SENSORES

?PR?COM_INITIALIZE?UART                          -----    -----      -----    -----      -----    -----
  +--> ?PR?COM_BAUDRATE?UART

?PR?INICIA_BOARD?MAIN                            -----    -----      -----    -----      -----    -----
  +--> ?PR?COND_INI_TIBBO?TIBBO
  +--> ?PR?COND_INI_CLOCK?CLOCK
  +--> ?PR?COND_INI_PTO?PTO_PARALELO

?PR?_TX_AUX?TIBBO                                -----    -----      -----    -----      -----    -----
  +--> ?PR?TIME_BIT?TIBBO

?PR?MENU?PROG                                    -----    -----      -----    -----      0001H    005CH
  +--> ?CO?PROG
  +--> ?PR?PRINTF?PRINTF
  +--> ?PR?_INGRESADATO?PROG
  +--> ?PR?_GETCMD?PROG
  +--> ?PR?_HASH_ID?PROG
  +--> ?PR?_VALIDARCLAVE?PROG
  +--> ?PR?DISPLAYCURSOR?PROG
  +--> ?PR?_STRLEN?STRLEN
  +--> ?PR?_GETOPTION?PROG
  +--> ?PR?_STRCAT?STRCAT
  +--> ?PR?_LISTACOMANDOS?PROG
  +--> ?PR?PROG_ID_CLIENTE?PROG
  +--> ?PR?PROG_COD_PARK?PROG
  +--> ?PR?PROG_TIEMPO_GRACIA?PROG
  +--> ?PR?PROG_SIN_COBRO?PROG
  +--> ?PR?PROG_DEBUG?PROG
  +--> ?PR?PROG_USE_LPR?PROG
  +--> ?PR?PROG_COMPARACION_ACTIVA?PROG
  +--> ?PR?TIPO_PANTALLA?PROG
  +--> ?PR?DCTO_CAJA?PROG
  +--> ?PR?SHOW?PROG

?PR?PRINTF?PRINTF                                0020H.0  0001H.1    0008H    0005H      006DH    0030H
  +--> ?PR?_PUTCHAR?MAIN

?PR?_PUTCHAR?MAIN                                -----    -----      -----    -----      009DH    0003H
  +--> ?PR?_COM_PUTCHAR?UART

?PR?_COM_PUTCHAR?UART                            -----    -----      -----    -----      00A0H    0001H
  +--> ?PR?COM_TBUFLEN?UART

?PR?_INGRESADATO?PROG                            -----    -----      -----    -----      0069H    0004H
  +--> ?PR?_GETKEY?MAIN
  +--> ?CO?PROG
  +--> ?PR?PRINTF?PRINTF
  +--> ?PR?_PUTCHAR?MAIN

?PR?_GETKEY?MAIN                                 -----    -----      -----    -----      -----    -----
  +--> ?PR?COM_GETCHAR?UART

BL51 BANKED LINKER/LOCATER V6.22.2.0                                                  07/27/2021  14:31:11  PAGE 7


?PR?COM_GETCHAR?UART                             -----    -----      -----    -----      -----    -----
  +--> ?PR?COM_RBUFLEN?UART

?PR?_GETCMD?PROG                                 -----    -----      -----    -----      005DH    0007H
  +--> ?CO?PROG
  +--> ?PR?_STRTOK?STRTOK

?PR?_STRTOK?STRTOK                               -----    -----      -----    -----      0068H    0006H
  +--> ?PR?_STRSPN?STRSPN
  +--> ?PR?_STRPBRK?STRPBRK

?PR?_STRSPN?STRSPN                               -----    -----      -----    -----      006EH    0008H

?PR?_STRPBRK?STRPBRK                             -----    -----      -----    -----      006EH    0009H

?PR?_HASH_ID?PROG                                -----    -----      -----    -----      005DH    0036H
  +--> ?CO?PROG
  +--> ?PR?_STRLEN?STRLEN

?PR?_VALIDARCLAVE?PROG                           -----    -----      -----    -----      005DH    000AH

?PR?DISPLAYCURSOR?PROG                           -----    -----      -----    -----      -----    -----
  +--> ?CO?PROG
  +--> ?PR?PRINTF?PRINTF

?PR?_GETOPTION?PROG                              -----    -----      -----    -----      005DH    000BH
  +--> ?CO?PROG
  +--> ?PR?_STRTOK?STRTOK

?PR?_STRCAT?STRCAT                               -----    -----      -----    -----      005DH    0009H

?PR?_LISTACOMANDOS?PROG                          -----    -----      -----    -----      005DH    0007H

?PR?PROG_ID_CLIENTE?PROG                         -----    -----      -----    -----      005DH    000CH
  +--> ?PR?_RD_EEPROM?EEPROM
  +--> ?CO?PROG
  +--> ?PR?PRINTF?PRINTF
  +--> ?PR?_INGRESADATO?PROG
  +--> ?PR?_ATOI?ATOI
  +--> ?PR?_WR_EEPROM?EEPROM

?PR?_RD_EEPROM?EEPROM                            -----    -----      -----    -----      -----    -----
  +--> ?PR?START?EEPROM
  +--> ?PR?ACK_LECT?EEPROM
  +--> ?PR?_E_D_M?EEPROM
  +--> ?PR?ACKD?EEPROM
  +--> ?PR?L_D_M?EEPROM
  +--> ?PR?STOP?EEPROM

?PR?ACK_LECT?EEPROM                              -----    -----      -----    -----      -----    -----
  +--> ?PR?_E_D_M?EEPROM

?PR?_E_D_M?EEPROM                                -----    -----      -----    -----      -----    -----
  +--> ?PR?P_ME?EEPROM

?PR?ACKD?EEPROM                                  -----    -----      -----    -----      -----    -----
  +--> ?PR?_E_D_M?EEPROM
BL51 BANKED LINKER/LOCATER V6.22.2.0                                                  07/27/2021  14:31:11  PAGE 8



?PR?_ATOI?ATOI                                   0020H.0  0000H.1    -----    -----      0069H    0005H
  +--> ?PR?_ISSPACE?ISSPACE
  +--> ?PR?_ISDIGIT?ISDIGIT

?PR?_WR_EEPROM?EEPROM                            -----    -----      -----    -----      -----    -----
  +--> ?PR?START?EEPROM
  +--> ?PR?ACKD?EEPROM
  +--> ?PR?_E_D_M?EEPROM
  +--> ?PR?STOP?EEPROM
  +--> ?PR?_DELAY_1MS?DELAY
  +--> ?PR?_DELAY_20US?DELAY

?PR?_DELAY_1MS?DELAY                             -----    -----      -----    -----      -----    -----
  +--> ?PR?_DELAY_20US?DELAY

?PR?PROG_COD_PARK?PROG                           -----    -----      -----    -----      005DH    000CH
  +--> ?PR?_RD_EEPROM?EEPROM
  +--> ?CO?PROG
  +--> ?PR?PRINTF?PRINTF
  +--> ?PR?_INGRESADATO?PROG
  +--> ?PR?_ATOI?ATOI
  +--> ?PR?_WR_EEPROM?EEPROM

?PR?PROG_TIEMPO_GRACIA?PROG                      -----    -----      -----    -----      005DH    000CH
  +--> ?PR?_RD_EEPROM?EEPROM
  +--> ?CO?PROG
  +--> ?PR?PRINTF?PRINTF
  +--> ?PR?_INGRESADATO?PROG
  +--> ?PR?_ATOI?ATOI
  +--> ?PR?_WR_EEPROM?EEPROM

?PR?PROG_SIN_COBRO?PROG                          -----    -----      -----    -----      005DH    000CH
  +--> ?PR?_RD_EEPROM?EEPROM
  +--> ?CO?PROG
  +--> ?PR?PRINTF?PRINTF
  +--> ?PR?_INGRESADATO?PROG
  +--> ?PR?_ATOI?ATOI
  +--> ?PR?_WR_EEPROM?EEPROM

?PR?PROG_DEBUG?PROG                              -----    -----      -----    -----      005DH    000CH
  +--> ?PR?_RD_EEPROM?EEPROM
  +--> ?CO?PROG
  +--> ?PR?PRINTF?PRINTF
  +--> ?PR?_INGRESADATO?PROG
  +--> ?PR?_ATOI?ATOI
  +--> ?PR?_WR_EEPROM?EEPROM

?PR?PROG_USE_LPR?PROG                            -----    -----      -----    -----      005DH    000CH
  +--> ?PR?_RD_EEPROM?EEPROM
  +--> ?CO?PROG
  +--> ?PR?PRINTF?PRINTF
  +--> ?PR?_INGRESADATO?PROG
  +--> ?PR?_ATOI?ATOI
  +--> ?PR?_WR_EEPROM?EEPROM

?PR?PROG_COMPARACION_ACTIVA?PROG                 -----    -----      -----    -----      005DH    000CH
BL51 BANKED LINKER/LOCATER V6.22.2.0                                                  07/27/2021  14:31:11  PAGE 9


  +--> ?PR?_RD_EEPROM?EEPROM
  +--> ?CO?PROG
  +--> ?PR?PRINTF?PRINTF
  +--> ?PR?_INGRESADATO?PROG
  +--> ?PR?_ATOI?ATOI
  +--> ?PR?_WR_EEPROM?EEPROM

?PR?TIPO_PANTALLA?PROG                           -----    -----      -----    -----      005DH    000CH
  +--> ?PR?_RD_EEPROM?EEPROM
  +--> ?CO?PROG
  +--> ?PR?PRINTF?PRINTF
  +--> ?PR?_INGRESADATO?PROG
  +--> ?PR?_ATOI?ATOI
  +--> ?PR?_WR_EEPROM?EEPROM

?PR?DCTO_CAJA?PROG                               -----    -----      -----    -----      005DH    000CH
  +--> ?PR?_RD_EEPROM?EEPROM
  +--> ?CO?PROG
  +--> ?PR?PRINTF?PRINTF
  +--> ?PR?_INGRESADATO?PROG
  +--> ?PR?_ATOI?ATOI
  +--> ?PR?_WR_EEPROM?EEPROM

?PR?SHOW?PROG                                    -----    -----      -----    -----      -----    -----
  +--> ?CO?PROG
  +--> ?PR?PRINTF?PRINTF

?PR?VARIABLE_INICIO?EEPROM                       -----    -----      -----    -----      -----    -----
  +--> ?PR?_RD_EEPROM?EEPROM

?PR?SECUENCIA_INICIO_EXPEDIDOR?VERIFI...         -----    -----      -----    -----      0001H    0001H
  +--> ?PR?_INICIALIZA?LINTECH
  +--> ?PR?TRAMA_VALIDACION_P_N?VERIFICADOR
  +--> ?CO?VERIFICADOR
  +--> ?PR?_DEBUG_TXT_TIBBO?TIBBO
  +--> ?PR?_DEBUGBUFFERMF?TIBBO
  +--> ?PR?DWLOAD_EEPROM?LINTECH

?PR?_INICIALIZA?LINTECH                          -----    -----      -----    -----      0002H    000CH
  +--> ?CO?LINTECH
  +--> ?PR?_DEBUG_TXT_TIBBO?TIBBO
  +--> ?PR?_DEBUGBUFFERMF?TIBBO
  +--> ?PR?_ESCRIBIRCADENASOFT_BUFFER?MAIN

?PR?_DEBUG_TXT_TIBBO?TIBBO                       -----    -----      -----    -----      003AH    0004H
  +--> ?CO?TIBBO
  +--> ?PR?_TX_AUX?TIBBO

?PR?_DEBUGBUFFERMF?TIBBO                         -----    -----      -----    -----      0034H    0006H
  +--> ?PR?DEBUG_DIVIDIR_TEXTO?TIBBO
  +--> ?CO?TIBBO
  +--> ?PR?_DEBUG_TXT_TIBBO?TIBBO
  +--> ?PR?_DEBUG_CHR_TIBBO?TIBBO
  +--> ?PR?_TX_AUX?TIBBO

?PR?DEBUG_DIVIDIR_TEXTO?TIBBO                    -----    -----      -----    -----      -----    -----
  +--> ?CO?TIBBO
BL51 BANKED LINKER/LOCATER V6.22.2.0                                                  07/27/2021  14:31:11  PAGE 10


  +--> ?PR?_DEBUG_TXT_TIBBO?TIBBO

?PR?_DEBUG_CHR_TIBBO?TIBBO                       -----    -----      -----    -----      -----    -----
  +--> ?PR?_TX_AUX?TIBBO

?PR?_ESCRIBIRCADENASOFT_BUFFER?MAIN              -----    -----      -----    -----      0034H    0006H
  +--> ?PR?_PUTCHAR?MAIN

?PR?DWLOAD_EEPROM?LINTECH                        -----    -----      -----    -----      0002H    0016H
  +--> ?CO?LINTECH
  +--> ?PR?_DEBUG_TXT_TIBBO?TIBBO
  +--> ?PR?_DEBUGBUFFERMF?TIBBO
  +--> ?PR?_ESCRIBIRCADENASOFT_BUFFER?MAIN

?PR?_RECIBE_CMD_MONITOR?ACCESCAN                 -----    -----      -----    -----      0001H    0006H
  +--> ?PR?RX_DATA?TIBBO

?PR?RX_DATA?TIBBO                                -----    -----      -----    -----      -----    -----
  +--> ?PR?TIME_MBIT?TIBBO
  +--> ?PR?TIME_BIT?TIBBO

?PR?SECUENCIAEXPEDIDOR?VERIFICADOR               -----    -----      -----    -----      0001H    000DH
  +--> ?PR?_CARD_INSERCION?LINTECH
  +--> ?PR?TRAMA_VALIDACION_P_N?VERIFICADOR
  +--> ?CO?VERIFICADOR
  +--> ?PR?ERROR_RX_PTO?VERIFICADOR
  +--> ?PR?_CHECK_STATUS?LINTECH
  +--> ?PR?_DEBUG_TXT_TIBBO?TIBBO
  +--> ?PR?_DEBUGBUFFERMF?TIBBO
  +--> ?PR?VALIDASENSORESPASO?IO_SENSORES
  +--> ?PR?_SEND_PORTERR?PTO_PARALELO
  +--> ?PR?_PANTALLALCD?PANTALLAS
  +--> ?PR?AUT_CARD_CHECK_STATUS?LINTECH
  +--> ?PR?LOADVERIFY_EEPROM?LINTECH
  +--> ?PR?_RD_MF?LINTECH
  +--> ?PR?_DEBUG_HEXDEC?TIBBO
  +--> ?PR?_DEBUG_CHR_TIBBO?TIBBO
  +--> ?PR?_BLOCK_READ_CLOCK_HEX?CLOCK
  +--> ?PR?_RD_EEPROM?EEPROM
  +--> ?PR?DEBUG_DIVIDIR_TEXTO?TIBBO
  +--> ?PR?PRINTF?PRINTF
  +--> ?PR?_ANALIZA_TIEMPO?CLOCK
  +--> ?PR?_CHECK_FECHAOUT?CLOCK
  +--> ?PR?_TRAMA_PTO_PARALELO_NEW?PTO_PARALELO
  +--> ?PR?_CMD_LPR_SALIDA?ACCESCAN
  +--> ?PR?_WR_MF?LINTECH
  +--> ?PR?_MOV_CARD?LINTECH
  +--> ?PR?VALIDASENSORES_OUT?IO_SENSORES
  +--> ?PR?_TRAMA_PTO_PARALELO_P?PTO_PARALELO

?PR?_CARD_INSERCION?LINTECH                      -----    -----      -----    -----      000EH    000AH
  +--> ?CO?LINTECH
  +--> ?PR?_DEBUG_TXT_TIBBO?TIBBO
  +--> ?PR?_DEBUGBUFFERMF?TIBBO
  +--> ?PR?_ESCRIBIRCADENASOFT_BUFFER?MAIN

?PR?ERROR_RX_PTO?VERIFICADOR                     -----    -----      -----    -----      000EH    0001H
BL51 BANKED LINKER/LOCATER V6.22.2.0                                                  07/27/2021  14:31:11  PAGE 11


  +--> ?CO?VERIFICADOR
  +--> ?PR?_DEBUG_TXT_TIBBO?TIBBO
  +--> ?PR?_DEBUG_CHR_TIBBO?TIBBO
  +--> ?PR?_DELAY_10MS?DELAY

?PR?_DELAY_10MS?DELAY                            -----    -----      -----    -----      000FH    0004H
  +--> ?PR?_DELAY_1MS?DELAY

?PR?_CHECK_STATUS?LINTECH                        -----    -----      -----    -----      000EH    000BH
  +--> ?CO?LINTECH
  +--> ?PR?_DEBUG_TXT_TIBBO?TIBBO
  +--> ?PR?_DEBUGBUFFERMF?TIBBO
  +--> ?PR?_ESCRIBIRCADENASOFT_BUFFER?MAIN

?PR?VALIDASENSORESPASO?IO_SENSORES               -----    -----      -----    -----      -----    -----
  +--> ?PR?SEL_SENSOR2?IO_SENSORES
  +--> ?PR?VALIDASENSOR?IO_SENSORES
  +--> ?PR?SEL_SENSOR1?IO_SENSORES
  +--> ?PR?SEL_AUTO?IO_SENSORES
  +--> ?CO?IO_SENSORES
  +--> ?PR?_DEBUG_TXT_TIBBO?TIBBO

?PR?_SEND_PORTERR?PTO_PARALELO                   -----    -----      -----    -----      000EH    0006H
  +--> ?PR?PULSO_BUS?PTO_PARALELO
  +--> ?PR?_DELAY_20US?DELAY

?PR?PULSO_BUS?PTO_PARALELO                       -----    -----      -----    -----      -----    -----
  +--> ?PR?_DELAY_20US?DELAY

?PR?_PANTALLALCD?PANTALLAS                       -----    -----      -----    -----      0011H    000AH
  +--> ?CO?PANTALLAS
  +--> ?PR?_LCD_TXT?PANTALLAS
  +--> ?PR?_STRLEN?STRLEN
  +--> ?PR?_TX_CHRLCD?PANTALLAS
  +--> ?PR?_RASPBERRY_DATA?PANTALLAS

?PR?_LCD_TXT?PANTALLAS                           -----    -----      -----    -----      003BH    0005H
  +--> ?PR?_TX_CHRLCD?PANTALLAS

?PR?_TX_CHRLCD?PANTALLAS                         -----    -----      -----    -----      0040H    0002H
  +--> ?PR?_PUTCHAR?MAIN

?PR?_RASPBERRY_DATA?PANTALLAS                    -----    -----      -----    -----      003BH    0005H
  +--> ?PR?_STRLEN?STRLEN
  +--> ?PR?_PUTCHAR?MAIN

?PR?AUT_CARD_CHECK_STATUS?LINTECH                -----    -----      -----    -----      000EH    000BH
  +--> ?CO?LINTECH
  +--> ?PR?_DEBUG_TXT_TIBBO?TIBBO
  +--> ?PR?_DEBUGBUFFERMF?TIBBO
  +--> ?PR?_ESCRIBIRCADENASOFT_BUFFER?MAIN

?PR?LOADVERIFY_EEPROM?LINTECH                    -----    -----      -----    -----      000EH    0010H
  +--> ?CO?LINTECH
  +--> ?PR?_DEBUG_TXT_TIBBO?TIBBO
  +--> ?PR?_DEBUGBUFFERMF?TIBBO
  +--> ?PR?_ESCRIBIRCADENASOFT_BUFFER?MAIN
BL51 BANKED LINKER/LOCATER V6.22.2.0                                                  07/27/2021  14:31:11  PAGE 12



?PR?_RD_MF?LINTECH                               -----    -----      -----    -----      000EH    0012H
  +--> ?CO?LINTECH
  +--> ?PR?_DEBUG_TXT_TIBBO?TIBBO
  +--> ?PR?_DEBUG_CHR_TIBBO?TIBBO
  +--> ?PR?_DEBUGBUFFERMF?TIBBO
  +--> ?PR?_ESCRIBIRCADENASOFT_BUFFER?MAIN

?PR?_DEBUG_HEXDEC?TIBBO                          -----    -----      -----    -----      000EH    0002H
  +--> ?PR?_TX_AUX?TIBBO

?PR?_BLOCK_READ_CLOCK_HEX?CLOCK                  -----    -----      -----    -----      0034H    0003H
  +--> ?PR?_LEE_CLK?CLOCK
  +--> ?PR?_BCD_HEX?CLOCK

?PR?_LEE_CLK?CLOCK                               -----    -----      -----    -----      0037H    0003H
  +--> ?PR?_DELAY_20US?DELAY
  +--> ?PR?_EB_CLK?CLOCK
  +--> ?PR?P_CK?CLOCK

?PR?_EB_CLK?CLOCK                                -----    -----      -----    -----      003AH    0003H
  +--> ?PR?P_CK?CLOCK

?PR?P_CK?CLOCK                                   -----    -----      -----    -----      -----    -----
  +--> ?PR?DELAY?DELAY

?PR?_ANALIZA_TIEMPO?CLOCK                        0020H.0  0000H.2    -----    -----      000EH    000FH

?PR?_CHECK_FECHAOUT?CLOCK                        -----    -----      -----    -----      000EH    000AH
  +--> ?PR?_BLOCK_READ_CLOCK_HEX?CLOCK
  +--> ?PR?_DEBUG_FECHA_ACTUAL?TIBBO

?PR?_DEBUG_FECHA_ACTUAL?TIBBO                    -----    -----      -----    -----      0018H    0003H
  +--> ?CO?TIBBO
  +--> ?PR?_DEBUG_TXT_TIBBO?TIBBO
  +--> ?PR?_HEX_BCD?CLOCK
  +--> ?PR?_DEBUG_CHR_TIBBO?TIBBO
  +--> ?PR?_TX_AUX?TIBBO

?PR?_TRAMA_PTO_PARALELO_NEW?PTO_PARALELO         -----    -----      -----    -----      000EH    0026H
  +--> ?PR?_BLOCK_READ_CLOCK_HEX?CLOCK
  +--> ?PR?_SEND_PORT?PTO_PARALELO
  +--> ?PR?DEBUG_DIVIDIR_TEXTO?TIBBO
  +--> ?CO?PTO_PARALELO
  +--> ?PR?_DEBUG_TXT_TIBBO?TIBBO
  +--> ?PR?_DEBUGBUFFERMF?TIBBO

?PR?_SEND_PORT?PTO_PARALELO                      -----    -----      -----    -----      0034H    000AH
  +--> ?PR?PULSO_BUS?PTO_PARALELO
  +--> ?PR?_DELAY_20US?DELAY

?PR?_CMD_LPR_SALIDA?ACCESCAN                     -----    -----      -----    -----      000EH    0025H
  +--> ?PR?DIR_BOARD?IO_SENSORES
  +--> ?PR?_HEX_BCD?CLOCK
  +--> ?PR?_MONITOR_CHR?ACCESCAN

?PR?DIR_BOARD?IO_SENSORES                        -----    -----      -----    -----      -----    -----
BL51 BANKED LINKER/LOCATER V6.22.2.0                                                  07/27/2021  14:31:11  PAGE 13


  +--> ?PR?SEL_DIR1?IO_SENSORES
  +--> ?PR?SEL_DIR2?IO_SENSORES

?PR?_MONITOR_CHR?ACCESCAN                        -----    -----      -----    -----      0033H    0005H
  +--> ?PR?_TX_AUX?TIBBO

?PR?_WR_MF?LINTECH                               -----    -----      -----    -----      000EH    0026H
  +--> ?CO?LINTECH
  +--> ?PR?_DEBUG_TXT_TIBBO?TIBBO
  +--> ?PR?_DEBUG_CHR_TIBBO?TIBBO
  +--> ?PR?DIR_BOARD?IO_SENSORES
  +--> ?PR?_DEBUGBUFFERMF?TIBBO
  +--> ?PR?_ESCRIBIRCADENASOFT_BUFFER?MAIN

?PR?_MOV_CARD?LINTECH                            -----    -----      -----    -----      000EH    000CH
  +--> ?CO?LINTECH
  +--> ?PR?_DEBUG_TXT_TIBBO?TIBBO
  +--> ?PR?_DEBUGBUFFERMF?TIBBO
  +--> ?PR?_ESCRIBIRCADENASOFT_BUFFER?MAIN

?PR?VALIDASENSORES_OUT?IO_SENSORES               -----    -----      -----    -----      -----    -----
  +--> ?PR?SEL_SENSOR2?IO_SENSORES
  +--> ?PR?VALIDASENSOR?IO_SENSORES

?PR?_TRAMA_PTO_PARALELO_P?PTO_PARALELO           -----    -----      -----    -----      000EH    0008H
  +--> ?PR?_SEND_PORT?PTO_PARALELO
  +--> ?PR?DEBUG_DIVIDIR_TEXTO?TIBBO
  +--> ?PR?_DEBUGBUFFERMF?TIBBO

?PR?_RECIBE_PORT?PTO_PARALELO                    -----    -----      -----    -----      0001H    0008H
  +--> ?PR?OFF_TIMER0_INTERRUP?MAIN
  +--> ?PR?ON_TIMER0_INTERRUP?MAIN

?PR?_VALIDA_TRAMA_PTO?ACCESCAN                   -----    -----      -----    -----      0001H    0010H
  +--> ?PR?_RD_EEPROM?EEPROM
  +--> ?CO?ACCESCAN
  +--> ?PR?_DEBUG_TXT_TIBBO?TIBBO
  +--> ?PR?_DEBUG_CHR_TIBBO?TIBBO
  +--> ?PR?_VALIDAR_CLK?CLOCK
  +--> ?PR?_BLOCK_WRITE_CLOCK_ASCII?CLOCK
  +--> ?PR?RELOJ_PANTALLA_LCD?PANTALLAS
  +--> ?PR?_SEND_PORT?PTO_PARALELO
  +--> ?PR?_PANTALLALCD?PANTALLAS
  +--> ?PR?FORMATO_EEPROM?EEPROM
  +--> ?PR?_BYTEHEX_DECIMAL?CLOCK
  +--> ?PR?_TWO_BYTEHEX_DECIMAL?CLOCK
  +--> ?PR?VALIDASENSORESPASO?IO_SENSORES
  +--> ?PR?_CMD_LPR_SALIDA_WIEGAND?ACCESCAN
  +--> ?PR?_PANTALLALCD_LINEA_2?PANTALLAS

?PR?_BLOCK_WRITE_CLOCK_ASCII?CLOCK               -----    -----      -----    -----      0011H    0003H
  +--> ?PR?_TWO_ONE?CLOCK
  +--> ?PR?_WR_CLK?CLOCK

?PR?_WR_CLK?CLOCK                                -----    -----      -----    -----      0014H    0002H
  +--> ?PR?_DELAY_20US?DELAY
  +--> ?PR?_EB_CLK?CLOCK
BL51 BANKED LINKER/LOCATER V6.22.2.0                                                  07/27/2021  14:31:11  PAGE 14



?PR?RELOJ_PANTALLA_LCD?PANTALLAS                 -----    -----      -----    -----      0011H    000DH
  +--> ?CO?PANTALLAS
  +--> ?PR?_BLOCK_READ_CLOCK?CLOCK
  +--> ?PR?_LCD_TXT_NUM_CHAR?PANTALLAS
  +--> ?PR?_BLOCK_READ_CLOCK_ASCII_RASBERRY?...
  +--> ?PR?_STRCAT?STRCAT
  +--> ?PR?_RASPBERRY_DATA?PANTALLAS

?PR?_BLOCK_READ_CLOCK?CLOCK                      -----    -----      -----    -----      001EH    0003H
  +--> ?PR?_LEE_CLK?CLOCK

?PR?_LCD_TXT_NUM_CHAR?PANTALLAS                  -----    -----      -----    -----      001EH    0006H
  +--> ?PR?_TX_CHRLCD?PANTALLAS

?PR?_BLOCK_READ_CLOCK_ASCII_RASBERRY?...         -----    -----      -----    -----      001EH    0003H
  +--> ?PR?_LEE_CLK?CLOCK

?PR?FORMATO_EEPROM?EEPROM                        -----    -----      -----    -----      0011H    0003H
  +--> ?PR?_WR_EEPROM?EEPROM

?PR?_BYTEHEX_DECIMAL?CLOCK                       -----    -----      -----    -----      0011H    0001H

?PR?_TWO_BYTEHEX_DECIMAL?CLOCK                   -----    -----      -----    -----      0011H    000CH
  +--> ?PR?_POW?POW

?PR?_POW?POW                                     -----    -----      -----    -----      001DH    000AH
  +--> ?PR?LOG?LOG
  +--> ?PR?EXP?EXP

?PR?LOG?LOG                                      0020H.0  0000H.1    -----    -----      0027H    0004H

?PR?_CMD_LPR_SALIDA_WIEGAND?ACCESCAN             -----    -----      -----    -----      0011H    0022H
  +--> ?PR?DIR_BOARD?IO_SENSORES
  +--> ?PR?_BLOCK_READ_CLOCK_ASCII?CLOCK
  +--> ?PR?_MONITOR_CHR?ACCESCAN

?PR?_BLOCK_READ_CLOCK_ASCII?CLOCK                -----    -----      -----    -----      0033H    0003H
  +--> ?PR?_LEE_CLK?CLOCK

?PR?_PANTALLALCD_LINEA_2?PANTALLAS               -----    -----      -----    -----      0011H    002AH
  +--> ?CO?PANTALLAS
  +--> ?PR?_LCD_TXT?PANTALLAS
  +--> ?PR?_STRLEN?STRLEN
  +--> ?PR?_TX_CHRLCD?PANTALLAS
  +--> ?PR?_STRCAT?STRCAT
  +--> ?PR?_RASPBERRY_DATA?PANTALLAS

?PR?_DEBUG_PTO_PARALELO?TIBBO                    -----    -----      -----    -----      0001H    0004H
  +--> ?CO?TIBBO
  +--> ?PR?_DEBUG_TXT_TIBBO?TIBBO
  +--> ?PR?_DEBUGBUFFERMF?TIBBO
  +--> ?PR?_DEBUG_CHR_TIBBO?TIBBO
  +--> ?PR?DEBUG_DIVIDIR_TEXTO?TIBBO

?PR?MSJ_LCD_INFORMATIVO?IO_SENSORES              -----    -----      -----    -----      0001H    0001H
  +--> ?PR?SEL_FUNCION?IO_SENSORES
BL51 BANKED LINKER/LOCATER V6.22.2.0                                                  07/27/2021  14:31:11  PAGE 15


  +--> ?PR?LOAD_AND_SEND_INFO_RELOJ?PTO_PARA...
  +--> ?PR?LOAD_AND_SEND_ID_COD?PTO_PARALELO
  +--> ?PR?_RD_EEPROM?EEPROM
  +--> ?PR?_SEND_PORTERR?PTO_PARALELO

?PR?LOAD_AND_SEND_INFO_RELOJ?PTO_PARA...         -----    -----      -----    -----      0002H    000BH
  +--> ?PR?_BLOCK_READ_CLOCK?CLOCK
  +--> ?PR?_LEE_CLK?CLOCK
  +--> ?PR?_SEND_PORT?PTO_PARALELO

?PR?LOAD_AND_SEND_ID_COD?PTO_PARALELO            -----    -----      -----    -----      0002H    0011H
  +--> ?CO?PTO_PARALELO
  +--> ?PR?PRINTF?PRINTF
  +--> ?PR?_SEND_PORT?PTO_PARALELO



SYMBOL TABLE OF MODULE:  .\Objects\verificador_v_01_raspberry (MAIN)

  VALUE           TYPE          NAME
  ----------------------------------

  -------         MODULE        MAIN
  C:0000H         SYMBOL        _ICE_DUMMY_
  D:0080H         PUBLIC        P0
  D:0090H         PUBLIC        P1
  C:7D7AH         PUBLIC        timer0_int
  D:00B0H         PUBLIC        P3
  B:00A8H.7       PUBLIC        EA
  C:817AH         PUBLIC        off_Timer0_Interrup
  X:00C9H         PUBLIC        ValTimeOutCom
  X:00CAH         PUBLIC        Buffer_Rta_Lintech
  X:00FCH         PUBLIC        Timer_wait
  X:00FDH         PUBLIC        g_cContByteRx
  B:0080H.0       PUBLIC        rx_ip
  B:0080H.3       PUBLIC        Atascado
  C:7129H         PUBLIC        main
  X:00FEH         PUBLIC        Timer_tivo
  B:0090H.7       PUBLIC        lock
  I:0022H         PUBLIC        rbuf
  C:8170H         PUBLIC        on_Timer0_Interrup
  I:0054H         PUBLIC        tbuf
  B:0090H.1       PUBLIC        DataIn
  D:0089H         PUBLIC        TMOD
  X:0100H         PUBLIC        Debug_Tibbo
  B:0021H.1       PUBLIC        prto_ready
  X:0101H         PUBLIC        Raspberry
  X:0102H         PUBLIC        SIN_COBRO
  X:0104H         PUBLIC        Tipo_Vehiculo
  B:00B0H.3       PUBLIC        busy
  C:80E2H         PUBLIC        ini_timer
  B:00A8H.1       PUBLIC        ET0
  B:0088H.5       PUBLIC        TF0
  X:0105H         PUBLIC        COMPARACION_ACTIVA
  D:008CH         PUBLIC        TH0
  X:0106H         PUBLIC        ACK
  X:0107H         PUBLIC        g_cEstadoComSoft
BL51 BANKED LINKER/LOCATER V6.22.2.0                                                  07/27/2021  14:31:11  PAGE 16


  D:008AH         PUBLIC        TL0
  B:0088H.4       PUBLIC        TR0
  C:80F2H         PUBLIC        inicia_board
  X:0108H         PUBLIC        T_GRACIA
  X:010AH         PUBLIC        COD_PARK
  B:0080H.7       PUBLIC        sel_com
  X:010CH         PUBLIC        STX_LINTECH
  C:8111H         PUBLIC        _getkey
  X:010DH         PUBLIC        g_cEstadoComSeqMF
  X:010EH         PUBLIC        ETX
  X:010FH         PUBLIC        ID_CLIENTE
  C:7970H         PUBLIC        _EscribirCadenaSoft_buffer
  B:0021H.2       PUBLIC        buffer_ready
  C:7C4FH         PUBLIC        _putchar
  -------         PROC          TIMER0_INT
  C:7D7AH         LINE#         13
  C:7D80H         LINE#         15
  C:7D88H         LINE#         16
  C:7D88H         LINE#         17
  C:7D8AH         LINE#         18
  C:7D8CH         LINE#         19
  C:7D8EH         LINE#         21
  C:7D8EH         LINE#         22
  C:7D94H         LINE#         23
  C:7D9AH         LINE#         24
  C:7DA8H         LINE#         25
  C:7DAAH         LINE#         26
  C:7DAAH         LINE#         27
  -------         ENDPROC       TIMER0_INT
  -------         PROC          INI_TIMER
  C:80E2H         LINE#         30
  C:80E2H         LINE#         31
  C:80E2H         LINE#         33
  C:80EAH         LINE#         35
  C:80EDH         LINE#         36
  C:80EFH         LINE#         37
  C:80F1H         LINE#         39
  -------         ENDPROC       INI_TIMER
  -------         PROC          ON_TIMER0_INTERRUP
  C:8170H         LINE#         42
  C:8170H         LINE#         43
  C:8170H         LINE#         44
  C:8172H         LINE#         45
  C:8174H         LINE#         47
  -------         ENDPROC       ON_TIMER0_INTERRUP
  -------         PROC          OFF_TIMER0_INTERRUP
  C:817AH         LINE#         50
  C:817AH         LINE#         51
  C:817AH         LINE#         52
  C:817CH         LINE#         54
  -------         ENDPROC       OFF_TIMER0_INTERRUP
  -------         PROC          _GETKEY
  -------         DO            
  D:0006H         SYMBOL        k
  -------         ENDDO         
  C:8111H         LINE#         62
  C:8111H         LINE#         63
BL51 BANKED LINKER/LOCATER V6.22.2.0                                                  07/27/2021  14:31:11  PAGE 17


  C:8111H         LINE#         67
  C:8111H         LINE#         68
  C:8114H         LINE#         69
  C:8114H         LINE#         70
  C:811CH         LINE#         72
  C:811CH         LINE#         73
  -------         ENDPROC       _GETKEY
  -------         PROC          _PUTCHAR
  X:009DH         SYMBOL        c
  -------         DO            
  X:009EH         SYMBOL        i
  -------         ENDDO         
  C:7C4FH         LINE#         77
  C:7C54H         LINE#         78
  C:7C54H         LINE#         81
  C:7C63H         LINE#         82
  C:7C63H         LINE#         83
  C:7C79H         LINE#         84
  C:7C79H         LINE#         86
  C:7C87H         LINE#         87
  C:7C87H         LINE#         89
  C:7C8CH         LINE#         90
  -------         ENDPROC       _PUTCHAR
  -------         PROC          _ESCRIBIRCADENASOFT_BUFFER
  X:0034H         SYMBOL        buffer
  X:0037H         SYMBOL        tamano_cadena
  -------         DO            
  X:0038H         SYMBOL        i
  X:0039H         SYMBOL        d
  -------         ENDDO         
  C:7970H         LINE#         94
  C:797EH         LINE#         95
  C:797EH         LINE#         97
  C:798CH         LINE#         98
  C:798CH         LINE#         99
  C:79A3H         LINE#         100
  C:79ADH         LINE#         101
  C:79B5H         LINE#         102
  -------         ENDPROC       _ESCRIBIRCADENASOFT_BUFFER
  -------         PROC          INICIA_BOARD
  C:80F2H         LINE#         139
  C:80F2H         LINE#         140
  C:80F2H         LINE#         141
  C:80F5H         LINE#         142
  C:80F8H         LINE#         143
  C:80FBH         LINE#         144
  C:80FDH         LINE#         145
  C:80FFH         LINE#         146
  C:8101H         LINE#         148
  -------         ENDPROC       INICIA_BOARD
  -------         PROC          MAIN
  -------         DO            
  X:00A1H         SYMBOL        buffer
  X:0000H         SYMBOL        Length_trama
  -------         ENDDO         
  C:7129H         LINE#         158
  C:7129H         LINE#         159
BL51 BANKED LINKER/LOCATER V6.22.2.0                                                  07/27/2021  14:31:11  PAGE 18


  C:7129H         LINE#         167
  C:712CH         LINE#         168
  C:712FH         LINE#         169
  C:7132H         LINE#         170
  C:7135H         LINE#         171
  C:7138H         LINE#         172
  C:713AH         LINE#         174
  C:713DH         LINE#         175
  C:7144H         LINE#         176
  C:7147H         LINE#         177
  C:714CH         LINE#         179
  C:714FH         LINE#         181
  C:7152H         LINE#         182
  C:7152H         LINE#         183
  C:7155H         LINE#         184
  C:7155H         LINE#         185
  C:7158H         LINE#         186
  C:715EH         LINE#         187
  C:7164H         LINE#         189
  C:7164H         LINE#         190
  C:7164H         LINE#         192
  C:7167H         LINE#         194
  C:7167H         LINE#         195
  C:716AH         LINE#         196
  C:716AH         LINE#         198
  C:7178H         LINE#         201
  C:7178H         LINE#         203
  C:717BH         LINE#         205
  C:717EH         LINE#         206
  C:717EH         LINE#         209
  C:718DH         LINE#         212
  C:7196H         LINE#         215
  C:71A4H         LINE#         218
  C:71A4H         LINE#         220
  C:71A6H         LINE#         222
  C:71A6H         LINE#         223
  C:71A9H         LINE#         224
  C:71A9H         LINE#         225
  C:71ACH         LINE#         229
  -------         ENDPROC       MAIN
  -------         ENDMOD        MAIN

  -------         MODULE        ACCESCAN
  C:0000H         SYMBOL        _ICE_DUMMY_
  D:0080H         PUBLIC        P0
  D:0090H         PUBLIC        P1
  B:0080H.2       PUBLIC        led_err_imp
  C:7B0FH         PUBLIC        _Monitor_chr
  C:3FD6H         PUBLIC        _Cmd_LPR_Salida
  B:0080H.3       PUBLIC        Atascado
  B:0080H.0       PUBLIC        rx_ip
  B:0090H.7       PUBLIC        lock
  X:01B2H         PUBLIC        USE_LPR
  C:3620H         PUBLIC        _Valida_Trama_Pto
  C:6C28H         PUBLIC        _recibe_cmd_Monitor
  C:608CH         PUBLIC        _Cmd_LPR_Salida_wiegand
  -------         PROC          _VALIDA_TRAMA_PTO
BL51 BANKED LINKER/LOCATER V6.22.2.0                                                  07/27/2021  14:31:11  PAGE 19


  X:0001H         SYMBOL        buffer
  X:0004H         SYMBOL        length_trama
  -------         DO            
  X:01B1H         SYMBOL        cont
  X:0005H         SYMBOL        bcc
  D:0004H         SYMBOL        j
  X:0006H         SYMBOL        buff
  -------         ENDDO         
  C:3620H         LINE#         85
  C:362EH         LINE#         86
  C:362EH         LINE#         89
  C:3631H         LINE#         92
  C:363EH         LINE#         94
  C:3681H         LINE#         95
  C:3681H         LINE#         96
  C:368AH         LINE#         97
  C:369FH         LINE#         98
  C:36A8H         LINE#         99
  C:36B5H         LINE#         100
  C:36B5H         LINE#         101
  C:36D1H         LINE#         102
  C:36D4H         LINE#         103
  C:36DDH         LINE#         104
  C:36E5H         LINE#         105
  C:36EEH         LINE#         106
  C:3707H         LINE#         107
  C:3707H         LINE#         108
  C:3717H         LINE#         109
  C:3717H         LINE#         110
  C:372AH         LINE#         112
  C:372DH         LINE#         113
  C:372DH         LINE#         114
  C:372DH         LINE#         116
  C:372DH         LINE#         117
  C:3733H         LINE#         118
  C:3737H         LINE#         119
  C:373BH         LINE#         120
  C:373EH         LINE#         121
  C:3749H         LINE#         123
  C:3752H         LINE#         124
  C:375AH         LINE#         125
  C:3762H         LINE#         126
  C:376AH         LINE#         127
  C:3773H         LINE#         128
  C:3773H         LINE#         130
  C:3773H         LINE#         132
  C:3785H         LINE#         133
  C:3785H         LINE#         134
  C:378BH         LINE#         135
  C:3798H         LINE#         136
  C:3798H         LINE#         137
  C:379DH         LINE#         138
  C:379FH         LINE#         139
  C:37A4H         LINE#         140
  C:37A6H         LINE#         141
  C:37A8H         LINE#         142
  C:37ACH         LINE#         143
BL51 BANKED LINKER/LOCATER V6.22.2.0                                                  07/27/2021  14:31:11  PAGE 20


  C:37ACH         LINE#         144
  C:37ADH         LINE#         146
  C:37C5H         LINE#         147
  C:37C5H         LINE#         149
  C:37D2H         LINE#         150
  C:37D2H         LINE#         151
  C:37D4H         LINE#         152
  C:37D6H         LINE#         153
  C:37D8H         LINE#         154
  C:37DAH         LINE#         155
  C:37DAH         LINE#         157
  C:3800H         LINE#         158
  C:3800H         LINE#         159
  C:3804H         LINE#         160
  C:3809H         LINE#         161
  C:3812H         LINE#         162
  C:3817H         LINE#         163
  C:3817H         LINE#         166
  C:3818H         LINE#         169
  C:382AH         LINE#         170
  C:382AH         LINE#         171
  C:382CH         LINE#         172
  C:382FH         LINE#         174
  C:3841H         LINE#         175
  C:3841H         LINE#         176
  C:3843H         LINE#         177
  C:3846H         LINE#         179
  C:3876H         LINE#         180
  C:3876H         LINE#         181
  C:3879H         LINE#         182
  C:3879H         LINE#         184
  C:3893H         LINE#         185
  C:3893H         LINE#         186
  C:3895H         LINE#         187
  C:3898H         LINE#         190
  C:38B2H         LINE#         191
  C:38B2H         LINE#         192
  C:38B4H         LINE#         193
  C:38B6H         LINE#         196
  C:38D0H         LINE#         197
  C:38D0H         LINE#         198
  C:38D2H         LINE#         199
  C:38D4H         LINE#         203
  C:38EEH         LINE#         204
  C:38EEH         LINE#         205
  C:38F0H         LINE#         206
  C:38F2H         LINE#         209
  C:390CH         LINE#         210
  C:390CH         LINE#         211
  C:390EH         LINE#         212
  C:3910H         LINE#         214
  C:392AH         LINE#         215
  C:392AH         LINE#         216
  C:392FH         LINE#         217
  C:392FH         LINE#         219
  C:395FH         LINE#         220
  C:395FH         LINE#         221
BL51 BANKED LINKER/LOCATER V6.22.2.0                                                  07/27/2021  14:31:11  PAGE 21


  C:396DH         LINE#         222
  C:3970H         LINE#         225
  C:39B3H         LINE#         226
  C:39B3H         LINE#         228
  C:39C8H         LINE#         229
  C:39CEH         LINE#         230
  C:39F8H         LINE#         233
  C:3A00H         LINE#         234
  C:3A00H         LINE#         237
  C:3A07H         LINE#         238
  C:3A07H         LINE#         239
  C:3A0CH         LINE#         240
  C:3A0CH         LINE#         241
  C:3A0EH         LINE#         243
  C:3A0EH         LINE#         244
  C:3A17H         LINE#         245
  C:3A1FH         LINE#         246
  C:3A1FH         LINE#         251
  C:3A21H         LINE#         254
  C:3A21H         LINE#         257
  C:3A28H         LINE#         258
  C:3A28H         LINE#         259
  C:3A2DH         LINE#         260
  C:3A2DH         LINE#         261
  C:3A38H         LINE#         265
  C:3A38H         LINE#         266
  C:3A38H         LINE#         268
  -------         ENDPROC       _VALIDA_TRAMA_PTO
  -------         PROC          _RECIBE_CMD_MONITOR
  X:0001H         SYMBOL        buffer_cmd
  -------         DO            
  X:0004H         SYMBOL        j
  X:0005H         SYMBOL        NumDatos
  D:0005H         SYMBOL        time_out
  X:0006H         SYMBOL        MaxChrRx
  D:0006H         SYMBOL        contador
  -------         ENDDO         
  C:6C28H         LINE#         274
  C:6C33H         LINE#         275
  C:6C33H         LINE#         279
  C:6C38H         LINE#         280
  C:6C3CH         LINE#         282
  C:6C44H         LINE#         283
  C:6C44H         LINE#         284
  C:6C55H         LINE#         285
  C:6C55H         LINE#         286
  C:6C58H         LINE#         287
  C:6C59H         LINE#         288
  C:6C5FH         LINE#         289
  C:6C5FH         LINE#         290
  C:6C64H         LINE#         291
  C:6C6DH         LINE#         292
  C:6C6DH         LINE#         293
  C:6C6FH         LINE#         294
  C:6C77H         LINE#         295
  C:6C77H         LINE#         296
  C:6C79H         LINE#         297
BL51 BANKED LINKER/LOCATER V6.22.2.0                                                  07/27/2021  14:31:11  PAGE 22


  C:6C7EH         LINE#         298
  C:6C84H         LINE#         299
  C:6C96H         LINE#         300
  C:6CA0H         LINE#         301
  C:6CA8H         LINE#         303
  C:6CB7H         LINE#         306
  C:6CB7H         LINE#         307
  C:6CBCH         LINE#         308
  -------         ENDPROC       _RECIBE_CMD_MONITOR
  -------         PROC          _MONITOR_CHR
  X:0033H         SYMBOL        str
  X:0036H         SYMBOL        num_char
  -------         DO            
  X:0037H         SYMBOL        j
  -------         ENDDO         
  C:7B0FH         LINE#         338
  C:7B1DH         LINE#         339
  C:7B1DH         LINE#         341
  C:7B2BH         LINE#         342
  C:7B2BH         LINE#         343
  C:7B3DH         LINE#         344
  C:7B47H         LINE#         345
  C:7B4FH         LINE#         346
  -------         ENDPROC       _MONITOR_CHR
  -------         PROC          _CMD_LPR_SALIDA_WIEGAND
  X:0011H         SYMBOL        buffer
  -------         DO            
  X:0014H         SYMBOL        Buffer_Lpr
  X:0032H         SYMBOL        j
  -------         ENDDO         
  C:608CH         LINE#         351
  C:6097H         LINE#         352
  C:6097H         LINE#         354
  C:609DH         LINE#         355
  C:60A2H         LINE#         356
  C:60AAH         LINE#         357
  C:60AEH         LINE#         358
  C:60B7H         LINE#         359
  C:60B7H         LINE#         360
  C:60C8H         LINE#         361
  C:60CAH         LINE#         363
  C:60CAH         LINE#         364
  C:60DBH         LINE#         365
  C:60DBH         LINE#         369
  C:60F2H         LINE#         370
  C:60F2H         LINE#         371
  C:6101H         LINE#         372
  C:610BH         LINE#         374
  C:6113H         LINE#         375
  C:6127H         LINE#         377
  C:6137H         LINE#         378
  C:6148H         LINE#         379
  C:6155H         LINE#         383
  -------         ENDPROC       _CMD_LPR_SALIDA_WIEGAND
  -------         PROC          _CMD_LPR_SALIDA
  X:000EH         SYMBOL        buffer_S1_B0
  X:0011H         SYMBOL        buffer_S1_B2
BL51 BANKED LINKER/LOCATER V6.22.2.0                                                  07/27/2021  14:31:11  PAGE 23


  -------         DO            
  X:0014H         SYMBOL        Buffer_Lpr
  D:0004H         SYMBOL        temp
  X:0032H         SYMBOL        j
  -------         ENDDO         
  C:3FD6H         LINE#         388
  C:3FE1H         LINE#         389
  C:3FE1H         LINE#         394
  C:3FE7H         LINE#         395
  C:3FECH         LINE#         396
  C:3FF4H         LINE#         397
  C:3FF8H         LINE#         399
  C:400EH         LINE#         400
  C:400EH         LINE#         401
  C:401FH         LINE#         402
  C:4021H         LINE#         404
  C:4021H         LINE#         405
  C:4032H         LINE#         406
  C:4032H         LINE#         410
  C:4032H         LINE#         411
  C:4054H         LINE#         412
  C:405EH         LINE#         413
  C:406EH         LINE#         419
  C:4082H         LINE#         421
  C:4098H         LINE#         422
  C:40BDH         LINE#         423
  C:40D6H         LINE#         425
  C:40EFH         LINE#         426
  C:4114H         LINE#         427
  C:412DH         LINE#         429
  C:4146H         LINE#         430
  C:416BH         LINE#         431
  C:4184H         LINE#         433
  C:419DH         LINE#         434
  C:41C2H         LINE#         435
  C:41DBH         LINE#         437
  C:41F4H         LINE#         438
  C:4219H         LINE#         439
  C:4232H         LINE#         443
  C:4246H         LINE#         446
  C:425AH         LINE#         448
  -------         ENDPROC       _CMD_LPR_SALIDA
  -------         ENDMOD        ACCESCAN

  -------         MODULE        CLOCK
  C:0000H         SYMBOL        _ICE_DUMMY_
  C:7B84H         PUBLIC        _two_one
  D:0090H         PUBLIC        P1
  C:55D3H         PUBLIC        _validar_clk
  C:7E3DH         PUBLIC        _wr_clk
  C:4B3DH         PUBLIC        _check_fechaOut
  C:4441H         PUBLIC        _Block_read_clock_ascii_rasberry
  B:00D0H.7       PUBLIC        CY
  C:0003H         PUBLIC        p_ck
  X:01B3H         PUBLIC        data_clk
  C:8139H         PUBLIC        cond_ini_clock
  C:6162H         PUBLIC        _Block_read_Clock
BL51 BANKED LINKER/LOCATER V6.22.2.0                                                  07/27/2021  14:31:11  PAGE 24


  B:0090H.4       PUBLIC        sck
  C:6726H         PUBLIC        _Block_read_Clock_Hex
  C:4268H         PUBLIC        _Block_read_clock_ascii
  C:7F20H         PUBLIC        _hex_bcd
  C:7FDEH         PUBLIC        _bcd_hex
  C:77F6H         PUBLIC        _ByteHex_Decimal
  C:6E78H         PUBLIC        _lee_clk
  C:1EF3H         PUBLIC        _analiza_tiempo
  B:0090H.5       PUBLIC        io
  C:6EFEH         PUBLIC        _Block_write_clock_ascii
  B:0090H.6       PUBLIC        rst
  C:7BD1H         PUBLIC        _eb_clk
  C:3A39H         PUBLIC        _Two_ByteHex_Decimal
  -------         PROC          P_CK
  C:0003H         LINE#         37
  C:0003H         LINE#         38
  C:0003H         LINE#         39
  C:0005H         LINE#         40
  C:0008H         LINE#         41
  C:000AH         LINE#         42
  -------         ENDPROC       P_CK
  -------         PROC          _EB_CLK
  X:003AH         SYMBOL        dir_clk
  -------         DO            
  X:003BH         SYMBOL        nbits
  -------         ENDDO         
  C:7BD1H         LINE#         44
  C:7BD6H         LINE#         46
  C:7BDBH         LINE#         47
  C:7BDBH         LINE#         48
  C:7BE4H         LINE#         49
  C:7BE7H         LINE#         50
  C:7BE7H         LINE#         51
  C:7BE9H         LINE#         52
  C:7BEBH         LINE#         54
  C:7BEBH         LINE#         55
  C:7BEDH         LINE#         56
  C:7BEDH         LINE#         57
  C:7BF0H         LINE#         58
  C:7C0FH         LINE#         59
  -------         ENDPROC       _EB_CLK
  C:6E6FH         SYMBOL        L?0174
  -------         PROC          L?0173
  -------         ENDPROC       L?0173
  C:6E6FH         SYMBOL        L?0174
  -------         PROC          _LEE_CLK
  X:0037H         SYMBOL        dir_clk
  -------         DO            
  X:0038H         SYMBOL        nbits
  -------         ENDDO         
  C:6E78H         LINE#         61
  C:6E7DH         LINE#         63
  C:6E7FH         LINE#         64
  C:6E86H         LINE#         65
  C:6E8EH         LINE#         66
  C:6EA7H         LINE#         67
  C:6EA7H         LINE#         68
BL51 BANKED LINKER/LOCATER V6.22.2.0                                                  07/27/2021  14:31:11  PAGE 25


  C:6EAAH         LINE#         69
  C:6EAAH         LINE#         70
  C:6EB1H         LINE#         71
  C:6EBBH         LINE#         72
  C:6EC0H         LINE#         73
  C:6EC0H         LINE#         74
  C:6EC0H         LINE#         75
  C:6EC3H         LINE#         76
  C:6EC3H         LINE#         77
  C:6ECAH         LINE#         78
  C:6EDBH         LINE#         79
  C:6EDBH         LINE#         80
  C:6EE3H         LINE#         81
  C:6EE3H         LINE#         82
  C:6EE3H         LINE#         83
  C:6EE6H         LINE#         84
  C:6EF6H         LINE#         85
  C:6EF8H         LINE#         86
  C:6EFDH         LINE#         87
  -------         ENDPROC       _LEE_CLK
  -------         PROC          _WR_CLK
  X:0014H         SYMBOL        dir_clk
  X:0015H         SYMBOL        byte
  C:7E3DH         LINE#         89
  C:7E45H         LINE#         90
  C:7E47H         LINE#         91
  C:7E4EH         LINE#         92
  C:7E56H         LINE#         93
  C:7E5FH         LINE#         94
  C:7E62H         LINE#         95
  C:7E64H         LINE#         97
  -------         ENDPROC       _WR_CLK
  C:7B50H         SYMBOL        L?0171
  C:7B6EH         SYMBOL        L?0172
  -------         PROC          L?0170
  -------         ENDPROC       L?0170
  C:7B50H         SYMBOL        L?0171
  C:7B6EH         SYMBOL        L?0172
  -------         PROC          _TWO_ONE
  D:0007H         SYMBOL        byte_h
  D:0005H         SYMBOL        byte_l
  -------         DO            
  D:0007H         SYMBOL        byte_out
  -------         ENDDO         
  C:7B84H         LINE#         99
  C:7B84H         LINE#         100
  C:7B84H         LINE#         102
  C:7B87H         LINE#         103
  C:7B8BH         LINE#         104
  C:7B8EH         LINE#         105
  C:7B90H         LINE#         106
  C:7B90H         LINE#         107
  -------         ENDPROC       _TWO_ONE
  -------         PROC          _VALIDAR_CLK
  D:0001H         SYMBOL        datos_clock
  -------         DO            
  D:0007H         SYMBOL        validador
BL51 BANKED LINKER/LOCATER V6.22.2.0                                                  07/27/2021  14:31:11  PAGE 26


  -------         ENDDO         
  C:55D3H         LINE#         111
  C:55D3H         LINE#         112
  C:55D3H         LINE#         113
  C:55D5H         LINE#         116
  C:55EAH         LINE#         117
  C:55EAH         LINE#         119
  C:5602H         LINE#         120
  C:5602H         LINE#         122
  C:561AH         LINE#         123
  C:561AH         LINE#         124
  C:5632H         LINE#         125
  C:5632H         LINE#         126
  C:564AH         LINE#         127
  C:564AH         LINE#         128
  C:565FH         LINE#         129
  C:565FH         LINE#         130
  C:5671H         LINE#         131
  C:5671H         LINE#         132
  C:5683H         LINE#         133
  C:5683H         LINE#         134
  C:5695H         LINE#         135
  C:5695H         LINE#         136
  C:56A7H         LINE#         137
  C:56A7H         LINE#         138
  C:56B9H         LINE#         139
  C:56B9H         LINE#         140
  C:56C9H         LINE#         141
  C:56C9H         LINE#         142
  C:56C9H         LINE#         143
  C:56C9H         LINE#         144
  C:56CAH         LINE#         146
  C:56CAH         LINE#         147
  C:56CCH         LINE#         148
  C:56CCH         LINE#         149
  C:56CDH         LINE#         151
  C:56CDH         LINE#         152
  C:56CFH         LINE#         154
  C:56CFH         LINE#         155
  C:56D0H         LINE#         157
  C:56D0H         LINE#         158
  C:56D2H         LINE#         160
  C:56D2H         LINE#         162
  C:56D3H         LINE#         164
  C:56D3H         LINE#         165
  C:56D5H         LINE#         167
  C:56D5H         LINE#         168
  C:56D6H         LINE#         170
  C:56D6H         LINE#         171
  C:56D8H         LINE#         173
  C:56D8H         LINE#         174
  C:56D9H         LINE#         176
  C:56D9H         LINE#         177
  C:56DBH         LINE#         179
  C:56DBH         LINE#         180
  C:56DCH         LINE#         182
  C:56DCH         LINE#         183
BL51 BANKED LINKER/LOCATER V6.22.2.0                                                  07/27/2021  14:31:11  PAGE 27


  C:56DEH         LINE#         185
  C:56DEH         LINE#         186
  C:56DEH         LINE#         188
  C:56DFH         LINE#         190
  C:56DFH         LINE#         191
  C:56E1H         LINE#         193
  C:56E1H         LINE#         195
  C:56E2H         LINE#         198
  C:56E2H         LINE#         199
  C:56E4H         LINE#         201
  C:56E4H         LINE#         203
  C:56E5H         LINE#         206
  C:56E5H         LINE#         207
  C:56E7H         LINE#         209
  C:56E7H         LINE#         211
  C:56E7H         LINE#         213
  -------         ENDPROC       _VALIDAR_CLK
  -------         PROC          _BLOCK_WRITE_CLOCK_ASCII
  X:0011H         SYMBOL        datos_clock
  C:6EFEH         LINE#         219
  C:6F09H         LINE#         221
  C:6F09H         LINE#         225
  C:6F13H         LINE#         226
  C:6F13H         LINE#         227
  C:6F13H         LINE#         228
  C:6F13H         LINE#         230
  C:6F1DH         LINE#         231
  C:6F27H         LINE#         232
  C:6F31H         LINE#         233
  C:6F31H         LINE#         234
  C:6F31H         LINE#         235
  C:6F31H         LINE#         237
  C:6F3BH         LINE#         238
  C:6F3BH         LINE#         239
  C:6F3BH         LINE#         240
  C:6F3BH         LINE#         242
  C:6F45H         LINE#         243
  C:6F45H         LINE#         244
  C:6F45H         LINE#         245
  C:6F45H         LINE#         247
  C:6F4FH         LINE#         248
  C:6F4FH         LINE#         249
  C:6F4FH         LINE#         250
  C:6F4FH         LINE#         252
  C:6F59H         LINE#         253
  C:6F63H         LINE#         254
  C:6F6DH         LINE#         255
  C:6F77H         LINE#         257
  -------         ENDPROC       _BLOCK_WRITE_CLOCK_ASCII
  -------         PROC          _BCD_HEX
  D:0007H         SYMBOL        l_data
  -------         DO            
  D:0006H         SYMBOL        temp
  D:0005H         SYMBOL        j
  -------         ENDDO         
  C:7FDEH         LINE#         263
  C:7FDEH         LINE#         264
BL51 BANKED LINKER/LOCATER V6.22.2.0                                                  07/27/2021  14:31:11  PAGE 28


  C:7FDEH         LINE#         266
  C:7FE0H         LINE#         267
  C:7FE4H         LINE#         268
  C:7FE7H         LINE#         269
  C:7FE9H         LINE#         270
  C:7FE9H         LINE#         271
  C:7FEDH         LINE#         272
  C:7FF4H         LINE#         273
  C:7FF4H         LINE#         274
  C:7FF8H         LINE#         275
  C:7FFBH         LINE#         276
  C:7FFBH         LINE#         277
  C:7FFBH         LINE#         278
  -------         ENDPROC       _BCD_HEX
  -------         PROC          _HEX_BCD
  D:0007H         SYMBOL        byte
  -------         DO            
  D:0006H         SYMBOL        nibble_h
  D:0005H         SYMBOL        nibble_l
  D:0004H         SYMBOL        k
  D:0007H         SYMBOL        byte_out
  -------         ENDDO         
  C:7F20H         LINE#         282
  C:7F20H         LINE#         283
  C:7F20H         LINE#         288
  C:7F22H         LINE#         289
  C:7F23H         LINE#         291
  C:7F29H         LINE#         292
  C:7F29H         LINE#         293
  C:7F2AH         LINE#         294
  C:7F2FH         LINE#         295
  C:7F2FH         LINE#         296
  C:7F30H         LINE#         297
  C:7F31H         LINE#         298
  C:7F31H         LINE#         299
  C:7F34H         LINE#         300
  C:7F38H         LINE#         301
  C:7F3BH         LINE#         302
  C:7F3EH         LINE#         303
  C:7F40H         LINE#         304
  C:7F40H         LINE#         306
  -------         ENDPROC       _HEX_BCD
  -------         PROC          _BYTEHEX_DECIMAL
  D:0001H         SYMBOL        buffer
  D:0005H         SYMBOL        valorhex
  -------         DO            
  X:0011H         SYMBOL        numero
  D:0007H         SYMBOL        centena
  D:0006H         SYMBOL        decena
  -------         ENDDO         
  C:77F6H         LINE#         312
  C:77F6H         LINE#         313
  C:77F6H         LINE#         316
  C:77F8H         LINE#         317
  C:77F9H         LINE#         318
  C:77FEH         LINE#         320
  C:780BH         LINE#         321
BL51 BANKED LINKER/LOCATER V6.22.2.0                                                  07/27/2021  14:31:11  PAGE 29


  C:780BH         LINE#         322
  C:780FH         LINE#         323
  C:7810H         LINE#         324
  C:7812H         LINE#         325
  C:7818H         LINE#         326
  C:781FH         LINE#         327
  C:782CH         LINE#         328
  C:782CH         LINE#         329
  C:7830H         LINE#         330
  C:7831H         LINE#         331
  C:7833H         LINE#         332
  C:7839H         LINE#         333
  C:7840H         LINE#         334
  -------         ENDPROC       _BYTEHEX_DECIMAL
  -------         PROC          _TWO_BYTEHEX_DECIMAL
  X:0011H         SYMBOL        buffer
  X:0014H         SYMBOL        id_h
  X:0015H         SYMBOL        id_l
  -------         DO            
  X:0016H         SYMBOL        valor
  D:0006H         SYMBOL        numero
  X:0018H         SYMBOL        temp
  X:0019H         SYMBOL        dmil
  X:001AH         SYMBOL        mil
  X:001BH         SYMBOL        centena
  X:001CH         SYMBOL        decena
  -------         ENDDO         
  C:3A39H         LINE#         342
  C:3A47H         LINE#         343
  C:3A47H         LINE#         347
  C:3A4EH         LINE#         348
  C:3A52H         LINE#         349
  C:3A54H         LINE#         350
  C:3A56H         LINE#         351
  C:3A58H         LINE#         354
  C:3A5DH         LINE#         355
  C:3A60H         LINE#         356
  C:3A66H         LINE#         358
  C:3AC1H         LINE#         359
  C:3AC9H         LINE#         360
  C:3ACCH         LINE#         361
  C:3B27H         LINE#         363
  C:3B2FH         LINE#         364
  C:3B32H         LINE#         365
  C:3B38H         LINE#         366
  C:3B93H         LINE#         367
  C:3B9BH         LINE#         368
  C:3B9EH         LINE#         369
  C:3BF9H         LINE#         370
  C:3BF9H         LINE#         372
  C:3C02H         LINE#         373
  C:3C02H         LINE#         374
  C:3C0AH         LINE#         375
  C:3C10H         LINE#         376
  C:3C12H         LINE#         377
  C:3C28H         LINE#         378
  C:3C32H         LINE#         379
BL51 BANKED LINKER/LOCATER V6.22.2.0                                                  07/27/2021  14:31:11  PAGE 30


  C:3C3BH         LINE#         380
  C:3C3BH         LINE#         381
  C:3C43H         LINE#         382
  C:3C49H         LINE#         383
  C:3C4BH         LINE#         384
  C:3C61H         LINE#         385
  C:3C6BH         LINE#         386
  C:3C74H         LINE#         387
  C:3C74H         LINE#         388
  C:3C7CH         LINE#         389
  C:3C82H         LINE#         390
  C:3C84H         LINE#         391
  C:3C9AH         LINE#         392
  C:3CA4H         LINE#         393
  C:3CADH         LINE#         394
  C:3CADH         LINE#         395
  C:3CB5H         LINE#         396
  C:3CBBH         LINE#         397
  C:3CBDH         LINE#         398
  C:3CD3H         LINE#         399
  C:3CDDH         LINE#         400
  C:3CF0H         LINE#         401
  C:3CFAH         LINE#         402
  -------         ENDPROC       _TWO_BYTEHEX_DECIMAL
  -------         PROC          _BLOCK_READ_CLOCK_ASCII
  X:0033H         SYMBOL        datos_clock
  -------         DO            
  D:0007H         SYMBOL        dato
  -------         ENDDO         
  C:4268H         LINE#         408
  C:4273H         LINE#         409
  C:4273H         LINE#         415
  C:4278H         LINE#         416
  C:4290H         LINE#         417
  C:429AH         LINE#         418
  C:42AFH         LINE#         419
  C:42B9H         LINE#         422
  C:42BEH         LINE#         423
  C:42D6H         LINE#         424
  C:42E0H         LINE#         425
  C:42F5H         LINE#         426
  C:42F8H         LINE#         429
  C:42FBH         LINE#         430
  C:4313H         LINE#         431
  C:431DH         LINE#         432
  C:4332H         LINE#         433
  C:433CH         LINE#         437
  C:4341H         LINE#         438
  C:4359H         LINE#         439
  C:4363H         LINE#         440
  C:4378H         LINE#         441
  C:4382H         LINE#         444
  C:4387H         LINE#         445
  C:439FH         LINE#         446
  C:43A9H         LINE#         447
  C:43BEH         LINE#         448
  C:43C8H         LINE#         451
BL51 BANKED LINKER/LOCATER V6.22.2.0                                                  07/27/2021  14:31:11  PAGE 31


  C:43CDH         LINE#         452
  C:43E5H         LINE#         453
  C:43EFH         LINE#         454
  C:4404H         LINE#         455
  C:440EH         LINE#         458
  C:4413H         LINE#         459
  C:4428H         LINE#         460
  C:4432H         LINE#         461
  -------         ENDPROC       _BLOCK_READ_CLOCK_ASCII
  -------         PROC          _BLOCK_READ_CLOCK_ASCII_RASBERRY
  X:001EH         SYMBOL        datos_clock
  -------         DO            
  D:0007H         SYMBOL        dato
  -------         ENDDO         
  C:4441H         LINE#         464
  C:444CH         LINE#         465
  C:444CH         LINE#         470
  C:4451H         LINE#         471
  C:4469H         LINE#         472
  C:4473H         LINE#         473
  C:4488H         LINE#         474
  C:448BH         LINE#         477
  C:448EH         LINE#         478
  C:44A6H         LINE#         479
  C:44B0H         LINE#         480
  C:44C5H         LINE#         481
  C:44CFH         LINE#         485
  C:44D4H         LINE#         486
  C:44ECH         LINE#         487
  C:44F6H         LINE#         488
  C:450BH         LINE#         489
  C:4515H         LINE#         494
  C:451AH         LINE#         495
  C:4532H         LINE#         496
  C:453CH         LINE#         497
  C:4551H         LINE#         498
  C:455BH         LINE#         501
  C:4560H         LINE#         502
  C:4578H         LINE#         503
  C:4582H         LINE#         504
  C:4597H         LINE#         505
  C:45A1H         LINE#         506
  C:45B1H         LINE#         507
  C:45BBH         LINE#         510
  C:45C0H         LINE#         511
  C:45D8H         LINE#         512
  C:45E2H         LINE#         513
  C:45F7H         LINE#         515
  C:4601H         LINE#         516
  -------         ENDPROC       _BLOCK_READ_CLOCK_ASCII_RASBERRY
  -------         PROC          _BLOCK_READ_CLOCK_HEX
  X:0034H         SYMBOL        datos_clock
  C:6726H         LINE#         519
  C:6731H         LINE#         520
  C:6731H         LINE#         523
  C:6748H         LINE#         524
  C:6752H         LINE#         526
BL51 BANKED LINKER/LOCATER V6.22.2.0                                                  07/27/2021  14:31:11  PAGE 32


  C:6769H         LINE#         527
  C:676CH         LINE#         529
  C:6781H         LINE#         530
  C:678BH         LINE#         532
  C:67A2H         LINE#         533
  C:67ACH         LINE#         535
  C:67C3H         LINE#         536
  -------         ENDPROC       _BLOCK_READ_CLOCK_HEX
  -------         PROC          _BLOCK_READ_CLOCK
  X:001EH         SYMBOL        datos_clock
  C:6162H         LINE#         563
  C:616DH         LINE#         564
  C:616DH         LINE#         566
  C:6181H         LINE#         567
  C:618BH         LINE#         569
  C:619FH         LINE#         570
  C:61A2H         LINE#         572
  C:61B4H         LINE#         573
  C:61BEH         LINE#         575
  C:61D2H         LINE#         576
  C:61DCH         LINE#         578
  C:61F0H         LINE#         579
  C:61FAH         LINE#         581
  C:620EH         LINE#         582
  C:6218H         LINE#         583
  -------         ENDPROC       _BLOCK_READ_CLOCK
  -------         PROC          COND_INI_CLOCK
  C:8139H         LINE#         586
  C:8139H         LINE#         587
  C:8139H         LINE#         588
  C:813BH         LINE#         589
  C:813DH         LINE#         590
  C:813FH         LINE#         591
  -------         ENDPROC       COND_INI_CLOCK
  -------         PROC          _CHECK_FECHAOUT
  X:000EH         SYMBOL        buffer
  -------         DO            
  X:0011H         SYMBOL        temp
  X:0012H         SYMBOL        datos_clk
  -------         ENDDO         
  C:4B3DH         LINE#         601
  C:4B48H         LINE#         602
  C:4B48H         LINE#         603
  C:4B4CH         LINE#         609
  C:4B95H         LINE#         610
  C:4B95H         LINE#         612
  C:4B9AH         LINE#         614
  C:4B9DH         LINE#         616
  C:4B9DH         LINE#         618
  C:4BA6H         LINE#         620
  C:4BAEH         LINE#         621
  C:4BAEH         LINE#         622
  C:4BB7H         LINE#         624
  C:4BB7H         LINE#         627
  C:4BDAH         LINE#         628
  C:4BDAH         LINE#         629
  C:4BDAH         LINE#         630
BL51 BANKED LINKER/LOCATER V6.22.2.0                                                  07/27/2021  14:31:11  PAGE 33


  C:4BDDH         LINE#         631
  C:4BE7H         LINE#         632
  C:4BE7H         LINE#         633
  C:4C0DH         LINE#         634
  C:4C0DH         LINE#         635
  C:4C0DH         LINE#         636
  C:4C10H         LINE#         637
  C:4C1AH         LINE#         638
  C:4C1AH         LINE#         639
  C:4C40H         LINE#         640
  C:4C40H         LINE#         641
  C:4C40H         LINE#         642
  C:4C42H         LINE#         643
  C:4C49H         LINE#         644
  C:4C49H         LINE#         645
  C:4C6FH         LINE#         646
  C:4C6FH         LINE#         647
  C:4C6FH         LINE#         648
  C:4C71H         LINE#         649
  C:4C78H         LINE#         650
  C:4C78H         LINE#         651
  C:4C9DH         LINE#         652
  C:4C9DH         LINE#         653
  C:4CA2H         LINE#         654
  C:4CA4H         LINE#         662
  C:4CA4H         LINE#         663
  C:4CA4H         LINE#         664
  C:4CA4H         LINE#         665
  C:4CA6H         LINE#         667
  C:4CA6H         LINE#         668
  C:4CA6H         LINE#         669
  C:4CA6H         LINE#         670
  C:4CA8H         LINE#         672
  C:4CA8H         LINE#         673
  C:4CA8H         LINE#         674
  C:4CA8H         LINE#         675
  C:4CAAH         LINE#         677
  C:4CAAH         LINE#         678
  C:4CB0H         LINE#         680
  C:4CB0H         LINE#         682
  C:4CB0H         LINE#         683
  C:4CB5H         LINE#         684
  -------         ENDPROC       _CHECK_FECHAOUT
  -------         PROC          _ANALIZA_TIEMPO
  X:000EH         SYMBOL        buffer
  X:0011H         SYMBOL        Val_DctoMinutos
  -------         DO            
  X:0013H         SYMBOL        ano_inT
  B:0020H.0       SYMBOL        bisiesto
  X:0015H         SYMBOL        ano_out
  X:0016H         SYMBOL        mes_out
  X:0017H         SYMBOL        dia_out
  X:0018H         SYMBOL        hora_out
  X:0019H         SYMBOL        min_out
  X:001AH         SYMBOL        Horas_Dcto
  X:001BH         SYMBOL        Minutos_Dcto
  X:001CH         SYMBOL        Xtemp
BL51 BANKED LINKER/LOCATER V6.22.2.0                                                  07/27/2021  14:31:11  PAGE 34


  B:0020H.1       SYMBOL        Tiempo_Dcto
  -------         ENDDO         
  C:1EF3H         LINE#         687
  C:1F06H         LINE#         688
  C:1F06H         LINE#         692
  C:1F08H         LINE#         697
  C:1F0AH         LINE#         699
  C:1F65H         LINE#         700
  C:1F65H         LINE#         705
  C:1F77H         LINE#         706
  C:1F77H         LINE#         707
  C:1F87H         LINE#         708
  C:1F91H         LINE#         710
  C:1F93H         LINE#         712
  C:1F93H         LINE#         713
  C:1F99H         LINE#         714
  C:1F9EH         LINE#         715
  C:1F9EH         LINE#         719
  C:1FA8H         LINE#         720
  C:1FA8H         LINE#         721
  C:1FC0H         LINE#         722
  C:1FCCH         LINE#         723
  C:1FCCH         LINE#         725
  C:1FD6H         LINE#         726
  C:1FE4H         LINE#         728
  C:1FF1H         LINE#         729
  C:1FFDH         LINE#         730
  C:1FFDH         LINE#         731
  C:2007H         LINE#         732
  C:2015H         LINE#         734
  C:2022H         LINE#         735
  C:2057H         LINE#         736
  C:2057H         LINE#         737
  C:2064H         LINE#         738
  C:2064H         LINE#         739
  C:2068H         LINE#         740
  C:207EH         LINE#         741
  C:2087H         LINE#         742
  C:2087H         LINE#         743
  C:208FH         LINE#         744
  C:2093H         LINE#         745
  C:2096H         LINE#         752
  C:2096H         LINE#         753
  C:20ABH         LINE#         754
  C:20ABH         LINE#         755
  C:20ABH         LINE#         756
  C:20AEH         LINE#         757
  C:20DCH         LINE#         758
  C:20DCH         LINE#         759
  C:20E9H         LINE#         760
  C:20E9H         LINE#         761
  C:20EDH         LINE#         762
  C:20F4H         LINE#         763
  C:20F4H         LINE#         764
  C:20F6H         LINE#         766
  C:20F6H         LINE#         767
  C:2100H         LINE#         768
BL51 BANKED LINKER/LOCATER V6.22.2.0                                                  07/27/2021  14:31:11  PAGE 35


  C:2100H         LINE#         769
  C:2100H         LINE#         771
  C:2103H         LINE#         772
  C:2122H         LINE#         773
  C:2122H         LINE#         775
  C:2139H         LINE#         776
  C:213BH         LINE#         816
  C:2164H         LINE#         817
  C:2164H         LINE#         818
  C:2166H         LINE#         819
  C:2166H         LINE#         821
  C:2169H         LINE#         822
  C:2169H         LINE#         823
  C:2182H         LINE#         824
  C:2182H         LINE#         825
  C:2189H         LINE#         826
  C:2190H         LINE#         827
  C:2197H         LINE#         829
  C:2199H         LINE#         831
  C:2199H         LINE#         832
  C:21A0H         LINE#         833
  C:21A5H         LINE#         834
  C:21AFH         LINE#         835
  C:21AFH         LINE#         836
  C:21B2H         LINE#         838
  C:21B2H         LINE#         839
  C:21C0H         LINE#         840
  C:21C0H         LINE#         841
  C:21C4H         LINE#         842
  C:21D6H         LINE#         843
  C:21D6H         LINE#         844
  C:21D8H         LINE#         846
  C:21D8H         LINE#         847
  C:21DDH         LINE#         848
  C:21F2H         LINE#         849
  C:21F2H         LINE#         850
  C:21F2H         LINE#         851
  C:21F2H         LINE#         853
  C:21F5H         LINE#         855
  C:21F5H         LINE#         856
  C:21FAH         LINE#         857
  C:220FH         LINE#         858
  C:220FH         LINE#         859
  C:220FH         LINE#         860
  C:2212H         LINE#         862
  C:2212H         LINE#         863
  C:2227H         LINE#         864
  C:2231H         LINE#         865
  C:2231H         LINE#         866
  C:2231H         LINE#         867
  C:2233H         LINE#         869
  C:2233H         LINE#         870
  C:2248H         LINE#         871
  C:2252H         LINE#         872
  C:225CH         LINE#         873
  C:225CH         LINE#         874
  C:225CH         LINE#         875
BL51 BANKED LINKER/LOCATER V6.22.2.0                                                  07/27/2021  14:31:11  PAGE 36


  C:225EH         LINE#         877
  C:225EH         LINE#         878
  C:2273H         LINE#         879
  C:227DH         LINE#         880
  C:2287H         LINE#         881
  C:2291H         LINE#         882
  C:2298H         LINE#         883
  C:2298H         LINE#         887
  C:22A2H         LINE#         888
  C:22A2H         LINE#         889
  C:22A8H         LINE#         890
  C:22B6H         LINE#         891
  C:22B6H         LINE#         892
  C:22BFH         LINE#         893
  C:22CDH         LINE#         895
  C:22D3H         LINE#         896
  C:22FAH         LINE#         897
  C:22FAH         LINE#         898
  C:230AH         LINE#         899
  C:230AH         LINE#         900
  C:230EH         LINE#         901
  C:2314H         LINE#         902
  C:2322H         LINE#         903
  C:2322H         LINE#         904
  C:2324H         LINE#         905
  C:2328H         LINE#         906
  C:232BH         LINE#         908
  C:232BH         LINE#         909
  C:232CH         LINE#         910
  C:232CH         LINE#         911
  C:232CH         LINE#         912
  C:232FH         LINE#         913
  C:2347H         LINE#         914
  C:2347H         LINE#         915
  C:2354H         LINE#         916
  C:2354H         LINE#         917
  C:2358H         LINE#         918
  C:235DH         LINE#         919
  C:235DH         LINE#         920
  C:2360H         LINE#         922
  C:2360H         LINE#         923
  C:2364H         LINE#         924
  C:2364H         LINE#         925
  C:2364H         LINE#         926
  C:2366H         LINE#         927
  C:236FH         LINE#         928
  C:236FH         LINE#         930
  C:2384H         LINE#         931
  C:2386H         LINE#         964
  C:23A5H         LINE#         965
  C:23A5H         LINE#         966
  C:23A7H         LINE#         967
  C:23A7H         LINE#         970
  C:23AAH         LINE#         971
  C:23AAH         LINE#         972
  C:23B8H         LINE#         973
  C:23B8H         LINE#         974
BL51 BANKED LINKER/LOCATER V6.22.2.0                                                  07/27/2021  14:31:11  PAGE 37


  C:23BCH         LINE#         975
  C:23C1H         LINE#         976
  C:23C1H         LINE#         977
  C:23C3H         LINE#         979
  C:23C3H         LINE#         980
  C:23C8H         LINE#         981
  C:23CCH         LINE#         982
  C:23CCH         LINE#         983
  C:23CCH         LINE#         984
  C:23CEH         LINE#         986
  C:23CEH         LINE#         987
  C:23DBH         LINE#         988
  C:23DBH         LINE#         989
  C:23DFH         LINE#         990
  C:23E5H         LINE#         991
  C:23EAH         LINE#         992
  C:23EAH         LINE#         993
  C:23EAH         LINE#         995
  C:23EAH         LINE#         997
  C:23EAH         LINE#         998
  C:23EAH         LINE#         1001
  C:2401H         LINE#         1002
  C:240BH         LINE#         1003
  C:2415H         LINE#         1004
  C:241FH         LINE#         1005
  C:2429H         LINE#         1007
  C:2429H         LINE#         1010
  -------         ENDPROC       _ANALIZA_TIEMPO
  -------         ENDMOD        CLOCK

  -------         MODULE        DELAY
  C:0000H         SYMBOL        _ICE_DUMMY_
  C:7D40H         PUBLIC        _Delay_10ms
  C:8076H         PUBLIC        _Delay_20us
  C:8019H         PUBLIC        _Delay_1ms
  C:817DH         PUBLIC        Delay
  -------         PROC          _DELAY_20US
  D:0006H         SYMBOL        cnt
  -------         DO            
  D:0004H         SYMBOL        i
  -------         ENDDO         
  C:8076H         LINE#         20
  C:8076H         LINE#         21
  C:8076H         LINE#         24
  C:8080H         LINE#         26
  C:8087H         LINE#         27
  -------         ENDPROC       _DELAY_20US
  -------         PROC          _DELAY_1MS
  D:0002H         SYMBOL        cnt
  -------         DO            
  D:0082H         SYMBOL        i
  -------         ENDDO         
  C:8019H         LINE#         38
  C:801DH         LINE#         39
  C:801DH         LINE#         41
  C:8033H         LINE#         42
  -------         ENDPROC       _DELAY_1MS
BL51 BANKED LINKER/LOCATER V6.22.2.0                                                  07/27/2021  14:31:11  PAGE 38


  -------         PROC          _DELAY_10MS
  X:000FH         SYMBOL        cnt
  -------         DO            
  X:0011H         SYMBOL        i
  -------         ENDDO         
  C:7D40H         LINE#         54
  C:7D48H         LINE#         55
  C:7D48H         LINE#         57
  C:7D79H         LINE#         58
  -------         ENDPROC       _DELAY_10MS
  -------         PROC          DELAY
  C:817DH         LINE#         60
  C:817DH         LINE#         62
  -------         ENDPROC       DELAY
  -------         ENDMOD        DELAY

  -------         MODULE        EEPROM
  C:0000H         SYMBOL        _ICE_DUMMY_
  D:0090H         PUBLIC        P1
  X:01A8H         PUBLIC        l_chr
  C:7F44H         PUBLIC        ackd
  B:0021H.5       PUBLIC        memory_flag
  B:00D0H.7       PUBLIC        CY
  C:816AH         PUBLIC        p_me
  C:77A0H         PUBLIC        variable_inicio
  C:8090H         PUBLIC        start
  B:0090H.2       PUBLIC        sda
  C:7F64H         PUBLIC        ack_lect
  B:0090H.3       PUBLIC        scl
  C:7C91H         PUBLIC        _rd_eeprom
  C:8127H         PUBLIC        stop
  C:7DB1H         PUBLIC        Formato_eeprom
  X:01A9H         PUBLIC        l_data_eeprom
  C:7C10H         PUBLIC        _wr_eeprom
  X:01AAH         PUBLIC        byte_rd
  C:7EFEH         PUBLIC        _e_d_m
  C:7849H         PUBLIC        l_d_m
  -------         PROC          L?0041
  -------         ENDPROC       L?0041
  -------         PROC          ACKD
  -------         DO            
  D:0006H         SYMBOL        i
  -------         ENDDO         
  C:7F44H         LINE#         46
  C:7F44H         LINE#         47
  C:7F44H         LINE#         49
  C:7F46H         LINE#         50
  C:7F48H         LINE#         51
  C:7F4AH         LINE#         52
  C:7F4DH         LINE#         53
  C:7F4DH         LINE#         54
  C:7F50H         LINE#         55
  C:7F50H         LINE#         56
  C:7F52H         LINE#         57
  C:7F54H         LINE#         59
  C:7F55H         LINE#         60
  C:7F55H         LINE#         61
BL51 BANKED LINKER/LOCATER V6.22.2.0                                                  07/27/2021  14:31:11  PAGE 39


  C:7F60H         LINE#         63
  C:7F60H         LINE#         64
  C:7F60H         LINE#         66
  C:7F60H         LINE#         67
  -------         ENDPROC       ACKD
  -------         PROC          L?0043
  -------         ENDPROC       L?0043
  -------         PROC          ACK_LECT
  -------         DO            
  D:0006H         SYMBOL        i
  -------         ENDDO         
  C:7F64H         LINE#         70
  C:7F64H         LINE#         71
  C:7F64H         LINE#         73
  C:7F66H         LINE#         74
  C:7F68H         LINE#         75
  C:7F6AH         LINE#         76
  C:7F6DH         LINE#         77
  C:7F6DH         LINE#         78
  C:7F70H         LINE#         79
  C:7F70H         LINE#         80
  C:7F72H         LINE#         81
  C:7F74H         LINE#         82
  C:7F75H         LINE#         83
  C:7F75H         LINE#         84
  C:7F80H         LINE#         85
  -------         ENDPROC       ACK_LECT
  -------         PROC          P_ME
  C:816AH         LINE#         87
  C:816AH         LINE#         88
  C:816AH         LINE#         89
  C:816CH         LINE#         90
  C:816DH         LINE#         91
  C:816FH         LINE#         92
  -------         ENDPROC       P_ME
  -------         PROC          _E_D_M
  D:0007H         SYMBOL        a_serial_eeprom
  -------         DO            
  D:0006H         SYMBOL        nbits
  -------         ENDDO         
  C:7EFEH         LINE#         94
  C:7EFEH         LINE#         95
  C:7EFEH         LINE#         97
  C:7F0AH         LINE#         98
  C:7F0AH         LINE#         99
  C:7F0EH         LINE#         100
  C:7F11H         LINE#         101
  C:7F11H         LINE#         102
  C:7F13H         LINE#         103
  C:7F15H         LINE#         105
  C:7F15H         LINE#         106
  C:7F17H         LINE#         107
  C:7F17H         LINE#         108
  C:7F19H         LINE#         109
  C:7F1CH         LINE#         110
  C:7F1FH         LINE#         112
  -------         ENDPROC       _E_D_M
BL51 BANKED LINKER/LOCATER V6.22.2.0                                                  07/27/2021  14:31:11  PAGE 40


  -------         PROC          L?0042
  -------         ENDPROC       L?0042
  -------         PROC          START
  C:8090H         LINE#         114
  C:8090H         LINE#         115
  C:8090H         LINE#         116
  C:8092H         LINE#         117
  C:8094H         LINE#         118
  C:8095H         LINE#         119
  C:8097H         LINE#         120
  C:8099H         LINE#         122
  -------         ENDPROC       START
  -------         PROC          STOP
  C:8127H         LINE#         124
  C:8127H         LINE#         125
  C:8127H         LINE#         126
  C:8129H         LINE#         127
  C:812BH         LINE#         128
  C:812DH         LINE#         129
  C:812FH         LINE#         131
  -------         ENDPROC       STOP
  -------         PROC          L_D_M
  -------         DO            
  D:0003H         SYMBOL        nbits
  -------         ENDDO         
  C:7849H         LINE#         133
  C:7849H         LINE#         134
  C:7849H         LINE#         136
  C:7856H         LINE#         137
  C:7856H         LINE#         138
  C:7858H         LINE#         139
  C:785BH         LINE#         140
  C:785BH         LINE#         141
  C:7862H         LINE#         142
  C:786BH         LINE#         143
  C:786BH         LINE#         144
  C:786FH         LINE#         145
  C:7871H         LINE#         146
  C:7871H         LINE#         147
  C:7871H         LINE#         148
  C:7874H         LINE#         149
  C:7874H         LINE#         150
  C:787BH         LINE#         151
  C:7885H         LINE#         152
  C:7885H         LINE#         153
  C:7889H         LINE#         154
  C:788BH         LINE#         155
  C:788BH         LINE#         156
  C:788BH         LINE#         157
  C:788EH         LINE#         158
  C:7890H         LINE#         159
  C:7895H         LINE#         160
  -------         ENDPROC       L_D_M
  -------         PROC          _WR_EEPROM
  D:0002H         SYMBOL        control
  D:0004H         SYMBOL        Dir
  D:0003H         SYMBOL        data_eeprom
BL51 BANKED LINKER/LOCATER V6.22.2.0                                                  07/27/2021  14:31:11  PAGE 41


  -------         DO            
  D:0005H         SYMBOL        dir_h
  D:0001H         SYMBOL        dir_l
  -------         ENDDO         
  C:7C10H         LINE#         166
  C:7C12H         LINE#         167
  C:7C12H         LINE#         169
  C:7C16H         LINE#         170
  C:7C16H         LINE#         171
  C:7C16H         LINE#         174
  C:7C16H         LINE#         175
  C:7C16H         LINE#         177
  C:7C19H         LINE#         178
  C:7C1BH         LINE#         179
  C:7C1EH         LINE#         180
  C:7C20H         LINE#         181
  C:7C23H         LINE#         182
  C:7C28H         LINE#         183
  C:7C2BH         LINE#         184
  C:7C30H         LINE#         185
  C:7C33H         LINE#         186
  C:7C36H         LINE#         187
  C:7C3DH         LINE#         189
  C:7C3FH         LINE#         190
  C:7C41H         LINE#         191
  C:7C48H         LINE#         192
  -------         ENDPROC       _WR_EEPROM
  C:7C8DH         SYMBOL        L?0040
  -------         PROC          L?0039
  -------         ENDPROC       L?0039
  C:7C8DH         SYMBOL        L?0040
  -------         PROC          _RD_EEPROM
  D:0003H         SYMBOL        control
  D:0004H         SYMBOL        Dir
  -------         DO            
  D:0005H         SYMBOL        dir_h
  D:0002H         SYMBOL        dir_l
  -------         ENDDO         
  C:7C91H         LINE#         230
  C:7C93H         LINE#         231
  C:7C93H         LINE#         234
  C:7C97H         LINE#         235
  C:7C97H         LINE#         236
  C:7C97H         LINE#         238
  C:7C97H         LINE#         239
  C:7C97H         LINE#         241
  C:7C9AH         LINE#         242
  C:7C9CH         LINE#         243
  C:7C9FH         LINE#         244
  C:7CA1H         LINE#         245
  C:7CA4H         LINE#         246
  C:7CA9H         LINE#         247
  C:7CACH         LINE#         248
  C:7CAFH         LINE#         249
  C:7CB5H         LINE#         250
  C:7CB8H         LINE#         251
  C:7CBAH         LINE#         252
BL51 BANKED LINKER/LOCATER V6.22.2.0                                                  07/27/2021  14:31:11  PAGE 42


  C:7CBDH         LINE#         253
  C:7CC0H         LINE#         254
  C:7CC2H         LINE#         255
  C:7CC4H         LINE#         256
  C:7CC9H         LINE#         257
  -------         ENDPROC       _RD_EEPROM
  -------         PROC          VARIABLE_INICIO
  C:77A0H         LINE#         261
  C:77A0H         LINE#         262
  C:77A0H         LINE#         264
  C:77B0H         LINE#         265
  C:77BDH         LINE#         266
  C:77CAH         LINE#         267
  C:77D7H         LINE#         268
  C:77E1H         LINE#         270
  C:77EBH         LINE#         271
  C:77F5H         LINE#         272
  -------         ENDPROC       VARIABLE_INICIO
  -------         PROC          FORMATO_EEPROM
  -------         DO            
  X:0011H         SYMBOL        dato
  X:0012H         SYMBOL        i
  -------         ENDDO         
  C:7DB1H         LINE#         273
  C:7DB1H         LINE#         274
  C:7DB1H         LINE#         275
  C:7DB7H         LINE#         277
  C:7DCCH         LINE#         278
  C:7DCCH         LINE#         279
  C:7DD6H         LINE#         280
  C:7DE6H         LINE#         281
  -------         ENDPROC       FORMATO_EEPROM
  -------         ENDMOD        EEPROM

  -------         MODULE        IO_SENSORES
  C:0000H         SYMBOL        _ICE_DUMMY_
  D:0090H         PUBLIC        P1
  D:00B0H         PUBLIC        P3
  C:809AH         PUBLIC        Dir_board
  B:0090H.1       PUBLIC        DataIn
  C:8147H         PUBLIC        sel_Auto
  C:75A2H         PUBLIC        ValidaSensoresPaso
  B:00B0H.3       PUBLIC        busy
  C:7FA0H         PUBLIC        ValidaSensores_Out
  C:7F81H         PUBLIC        ValidaSensor
  C:8155H         PUBLIC        sel_Sensor1
  C:814EH         PUBLIC        sel_Sensor2
  B:00B0H.5       PUBLIC        sel_A
  B:00B0H.6       PUBLIC        sel_B
  B:00B0H.7       PUBLIC        sel_C
  C:72B3H         PUBLIC        msj_lcd_informativo
  C:815CH         PUBLIC        sel_Dir1
  C:8163H         PUBLIC        sel_Dir2
  C:8140H         PUBLIC        sel_Funcion
  -------         PROC          SEL_FUNCION
  C:8140H         LINE#         29
  C:8140H         LINE#         30
BL51 BANKED LINKER/LOCATER V6.22.2.0                                                  07/27/2021  14:31:11  PAGE 43


  C:8140H         LINE#         31
  C:8142H         LINE#         32
  C:8144H         LINE#         33
  C:8146H         LINE#         34
  -------         ENDPROC       SEL_FUNCION
  -------         PROC          SEL_AUTO
  C:8147H         LINE#         36
  C:8147H         LINE#         37
  C:8147H         LINE#         38
  C:8149H         LINE#         39
  C:814BH         LINE#         40
  C:814DH         LINE#         41
  -------         ENDPROC       SEL_AUTO
  -------         PROC          SEL_SENSOR2
  C:814EH         LINE#         52
  C:814EH         LINE#         53
  C:814EH         LINE#         54
  C:8150H         LINE#         55
  C:8152H         LINE#         56
  C:8154H         LINE#         57
  -------         ENDPROC       SEL_SENSOR2
  -------         PROC          SEL_SENSOR1
  C:8155H         LINE#         59
  C:8155H         LINE#         60
  C:8155H         LINE#         61
  C:8157H         LINE#         62
  C:8159H         LINE#         63
  C:815BH         LINE#         64
  -------         ENDPROC       SEL_SENSOR1
  -------         PROC          SEL_DIR1
  C:815CH         LINE#         66
  C:815CH         LINE#         67
  C:815CH         LINE#         68
  C:815EH         LINE#         69
  C:8160H         LINE#         70
  C:8162H         LINE#         71
  -------         ENDPROC       SEL_DIR1
  -------         PROC          SEL_DIR2
  C:8163H         LINE#         73
  C:8163H         LINE#         74
  C:8163H         LINE#         75
  C:8165H         LINE#         76
  C:8167H         LINE#         77
  C:8169H         LINE#         78
  -------         ENDPROC       SEL_DIR2
  -------         PROC          VALIDASENSOR
  -------         DO            
  D:0007H         SYMBOL        Valido
  D:0004H         SYMBOL        Tmin
  -------         ENDDO         
  C:7F81H         LINE#         80
  C:7F81H         LINE#         81
  C:7F81H         LINE#         83
  C:7F83H         LINE#         84
  C:7F87H         LINE#         85
  C:7F92H         LINE#         86
  C:7F92H         LINE#         87
BL51 BANKED LINKER/LOCATER V6.22.2.0                                                  07/27/2021  14:31:11  PAGE 44


  C:7F97H         LINE#         88
  C:7F9BH         LINE#         89
  C:7F9BH         LINE#         90
  C:7F9DH         LINE#         91
  C:7F9DH         LINE#         92
  C:7F9FH         LINE#         93
  C:7F9FH         LINE#         94
  -------         ENDPROC       VALIDASENSOR
  -------         PROC          DIR_BOARD
  -------         DO            
  D:0007H         SYMBOL        Board
  -------         ENDDO         
  C:809AH         LINE#         98
  C:809AH         LINE#         99
  C:809AH         LINE#         100
  C:809CH         LINE#         102
  C:809FH         LINE#         103
  C:80A2H         LINE#         104
  C:80A2H         LINE#         105
  C:80A3H         LINE#         106
  C:80A3H         LINE#         107
  C:80A6H         LINE#         108
  C:80A9H         LINE#         109
  C:80A9H         LINE#         110
  C:80ABH         LINE#         111
  C:80ABH         LINE#         112
  C:80ABH         LINE#         113
  -------         ENDPROC       DIR_BOARD
  -------         PROC          VALIDASENSORESPASO
  C:75A2H         LINE#         121
  C:75A2H         LINE#         122
  C:75A2H         LINE#         124
  C:75A5H         LINE#         125
  C:75A8H         LINE#         126
  C:75A8H         LINE#         127
  C:75B6H         LINE#         128
  C:75B6H         LINE#         129
  C:75B9H         LINE#         130
  C:75BCH         LINE#         131
  C:75BFH         LINE#         132
  C:75C4H         LINE#         133
  C:75C4H         LINE#         134
  C:75CBH         LINE#         135
  C:75CFH         LINE#         136
  C:75D1H         LINE#         138
  C:75D1H         LINE#         140
  C:75D1H         LINE#         141
  C:75D8H         LINE#         142
  C:75DDH         LINE#         143
  C:75DFH         LINE#         144
  C:75DFH         LINE#         147
  C:75DFH         LINE#         149
  C:75E2H         LINE#         150
  C:75E7H         LINE#         151
  C:75E7H         LINE#         153
  C:75EEH         LINE#         154
  C:75F4H         LINE#         155
BL51 BANKED LINKER/LOCATER V6.22.2.0                                                  07/27/2021  14:31:11  PAGE 45


  C:75F7H         LINE#         156
  C:75F7H         LINE#         158
  C:75F7H         LINE#         159
  C:75FBH         LINE#         160
  C:75FDH         LINE#         161
  C:75FDH         LINE#         164
  C:75FDH         LINE#         165
  C:75FDH         LINE#         167
  C:75FDH         LINE#         168
  C:7606H         LINE#         169
  C:7609H         LINE#         170
  C:7609H         LINE#         171
  C:7609H         LINE#         172
  C:7609H         LINE#         173
  C:7612H         LINE#         174
  C:7614H         LINE#         175
  C:7614H         LINE#         177
  -------         ENDPROC       VALIDASENSORESPASO
  -------         PROC          VALIDASENSORES_OUT
  -------         DO            
  D:0006H         SYMBOL        valido
  -------         ENDDO         
  C:7FA0H         LINE#         179
  C:7FA0H         LINE#         180
  C:7FA0H         LINE#         181
  C:7FA2H         LINE#         183
  C:7FA5H         LINE#         184
  C:7FA8H         LINE#         185
  C:7FA8H         LINE#         186
  C:7FB7H         LINE#         187
  C:7FB7H         LINE#         188
  C:7FB7H         LINE#         189
  C:7FB9H         LINE#         190
  C:7FB9H         LINE#         192
  C:7FB9H         LINE#         193
  C:7FB9H         LINE#         194
  C:7FBCH         LINE#         195
  C:7FBCH         LINE#         196
  C:7FBCH         LINE#         198
  C:7FBCH         LINE#         199
  C:7FBCH         LINE#         200
  C:7FBEH         LINE#         201
  C:7FBEH         LINE#         202
  -------         ENDPROC       VALIDASENSORES_OUT
  -------         PROC          MSJ_LCD_INFORMATIVO
  -------         DO            
  X:0001H         SYMBOL        info
  X:01B4H         SYMBOL        toggle
  -------         ENDDO         
  C:72B3H         LINE#         209
  C:72B3H         LINE#         210
  C:72B3H         LINE#         211
  C:72B8H         LINE#         213
  C:72BBH         LINE#         214
  C:72BEH         LINE#         215
  C:72BEH         LINE#         216
  C:72CAH         LINE#         217
BL51 BANKED LINKER/LOCATER V6.22.2.0                                                  07/27/2021  14:31:11  PAGE 46


  C:72CAH         LINE#         218
  C:72CDH         LINE#         219
  C:72CDH         LINE#         220
  C:72CFH         LINE#         221
  C:72D2H         LINE#         222
  C:72D8H         LINE#         223
  C:72D8H         LINE#         224
  C:72DAH         LINE#         225
  C:72E8H         LINE#         226
  C:72E8H         LINE#         227
  C:72EBH         LINE#         228
  C:72EBH         LINE#         229
  C:72EDH         LINE#         230
  C:72F0H         LINE#         231
  C:72F6H         LINE#         232
  C:72F6H         LINE#         233
  C:72F8H         LINE#         234
  C:7306H         LINE#         235
  C:7306H         LINE#         236
  C:7309H         LINE#         237
  C:7309H         LINE#         238
  C:730BH         LINE#         239
  C:7319H         LINE#         240
  C:7319H         LINE#         241
  C:731BH         LINE#         242
  C:7322H         LINE#         244
  C:7327H         LINE#         245
  C:7327H         LINE#         247
  C:7327H         LINE#         249
  C:7327H         LINE#         251
  C:732AH         LINE#         252
  C:732DH         LINE#         253
  C:732DH         LINE#         254
  C:7332H         LINE#         255
  C:7332H         LINE#         257
  -------         ENDPROC       MSJ_LCD_INFORMATIVO
  -------         ENDMOD        IO_SENSORES

  -------         MODULE        PANTALLAS
  C:0000H         SYMBOL        _ICE_DUMMY_
  D:0080H         PUBLIC        P0
  C:7433H         PUBLIC        Reloj_Pantalla_Lcd
  C:242AH         PUBLIC        _PantallaLCD
  C:7A8FH         PUBLIC        _LCD_txt
  C:7745H         PUBLIC        _Raspberry_data
  C:7E96H         PUBLIC        _tx_chrlcd
  C:3607H         SYMBOL        _?ix1000
  C:3614H         SYMBOL        _?ix1001
  C:361AH         SYMBOL        _?ix1002
  C:79B6H         PUBLIC        _LCD_txt_num_char
  C:4F81H         PUBLIC        _PantallaLCD_LINEA_2
  B:0098H.4       PUBLIC        REN
  B:0080H.7       PUBLIC        sel_com
  C:7E8DH         SYMBOL        L?0111
  C:7E90H         SYMBOL        L?0112
  -------         PROC          L?0110
  -------         ENDPROC       L?0110
BL51 BANKED LINKER/LOCATER V6.22.2.0                                                  07/27/2021  14:31:11  PAGE 47


  C:7E8DH         SYMBOL        L?0111
  C:7E90H         SYMBOL        L?0112
  -------         PROC          _TX_CHRLCD
  D:0007H         SYMBOL        data_com
  X:0040H         SYMBOL        enable_char_add
  -------         DO            
  X:0041H         SYMBOL        d
  -------         ENDDO         
  C:7E96H         LINE#         61
  C:7E9BH         LINE#         62
  C:7E9BH         LINE#         64
  C:7EA3H         LINE#         65
  C:7EB3H         LINE#         67
  -------         ENDPROC       _TX_CHRLCD
  -------         PROC          L?0113
  -------         ENDPROC       L?0113
  -------         PROC          _LCD_TXT
  X:003BH         SYMBOL        msg
  X:003EH         SYMBOL        enable_char_add
  -------         DO            
  X:003FH         SYMBOL        i
  -------         ENDDO         
  C:7A8FH         LINE#         74
  C:7A9DH         LINE#         75
  C:7A9DH         LINE#         78
  C:7ABAH         LINE#         79
  C:7ABAH         LINE#         80
  C:7AC2H         LINE#         81
  C:7ACAH         LINE#         82
  -------         ENDPROC       _LCD_TXT
  -------         PROC          _LCD_TXT_NUM_CHAR
  X:001EH         SYMBOL        msg
  X:0021H         SYMBOL        length_char
  X:0022H         SYMBOL        enable_char_add
  -------         DO            
  X:0023H         SYMBOL        i
  -------         ENDDO         
  C:79B6H         LINE#         89
  C:79C4H         LINE#         90
  C:79C4H         LINE#         93
  C:79D7H         LINE#         94
  C:79D7H         LINE#         95
  C:79F3H         LINE#         96
  C:79FBH         LINE#         97
  -------         ENDPROC       _LCD_TXT_NUM_CHAR
  -------         PROC          _RASPBERRY_DATA
  X:003BH         SYMBOL        msg
  -------         DO            
  X:01B5H         SYMBOL        i
  X:003EH         SYMBOL        lenth_cadena
  X:003FH         SYMBOL        d
  -------         ENDDO         
  C:7745H         LINE#         102
  C:7750H         LINE#         103
  C:7750H         LINE#         108
  C:7758H         LINE#         113
  C:7776H         LINE#         114
BL51 BANKED LINKER/LOCATER V6.22.2.0                                                  07/27/2021  14:31:11  PAGE 48


  C:7776H         LINE#         115
  C:778DH         LINE#         116
  C:7797H         LINE#         120
  C:779FH         LINE#         124
  -------         ENDPROC       _RASPBERRY_DATA
  -------         PROC          RELOJ_PANTALLA_LCD
  -------         DO            
  X:0011H         SYMBOL        Ini_Clock_LCD
  -------         ENDDO         
  C:7433H         LINE#         133
  C:7433H         LINE#         134
  C:7433H         LINE#         136
  C:7446H         LINE#         137
  C:744CH         LINE#         138
  C:744CH         LINE#         139
  C:744EH         LINE#         140
  C:7457H         LINE#         144
  C:7459H         LINE#         145
  C:7469H         LINE#         147
  C:746BH         LINE#         148
  C:746DH         LINE#         150
  C:746EH         LINE#         152
  C:746EH         LINE#         153
  C:7470H         LINE#         154
  C:7475H         LINE#         155
  C:7484H         LINE#         156
  C:748DH         LINE#         157
  C:74A4H         LINE#         158
  C:74ADH         LINE#         159
  C:74AFH         LINE#         160
  C:74AFH         LINE#         161
  -------         ENDPROC       RELOJ_PANTALLA_LCD
  -------         PROC          _PANTALLALCD
  X:0011H         SYMBOL        cod_msg
  -------         DO            
  X:0012H         SYMBOL        Ini_LCD_Line_one
  X:0018H         SYMBOL        num_chr
  X:0019H         SYMBOL        msjpantalla
  -------         ENDDO         
  C:242AH         LINE#         165
  C:242FH         LINE#         166
  C:242FH         LINE#         168
  C:2442H         LINE#         173
  C:2449H         LINE#         175
  C:244BH         LINE#         177
  C:2454H         LINE#         178
  C:2454H         LINE#         179
  C:245EH         LINE#         181
  C:249FH         LINE#         182
  C:249FH         LINE#         184
  C:249FH         LINE#         185
  C:24ADH         LINE#         186
  C:24B3H         LINE#         187
  C:24B6H         LINE#         188
  C:24BCH         LINE#         189
  C:24BFH         LINE#         191
  C:24BFH         LINE#         193
BL51 BANKED LINKER/LOCATER V6.22.2.0                                                  07/27/2021  14:31:11  PAGE 49


  C:24CDH         LINE#         194
  C:24D3H         LINE#         195
  C:24D6H         LINE#         196
  C:24DCH         LINE#         197
  C:24DFH         LINE#         199
  C:24DFH         LINE#         201
  C:24EDH         LINE#         202
  C:24F3H         LINE#         203
  C:24F6H         LINE#         204
  C:24FCH         LINE#         205
  C:24FFH         LINE#         206
  C:24FFH         LINE#         207
  C:250DH         LINE#         208
  C:2513H         LINE#         209
  C:2516H         LINE#         210
  C:251CH         LINE#         211
  C:251FH         LINE#         212
  C:251FH         LINE#         213
  C:252DH         LINE#         214
  C:2533H         LINE#         215
  C:2536H         LINE#         216
  C:253CH         LINE#         217
  C:253FH         LINE#         218
  C:253FH         LINE#         219
  C:254DH         LINE#         220
  C:2553H         LINE#         221
  C:2556H         LINE#         222
  C:255CH         LINE#         223
  C:255FH         LINE#         224
  C:255FH         LINE#         226
  C:256DH         LINE#         227
  C:2573H         LINE#         228
  C:2576H         LINE#         229
  C:257CH         LINE#         230
  C:257FH         LINE#         231
  C:257FH         LINE#         237
  C:257FH         LINE#         238
  C:258DH         LINE#         239
  C:2593H         LINE#         240
  C:2596H         LINE#         241
  C:259CH         LINE#         242
  C:259FH         LINE#         243
  C:259FH         LINE#         244
  C:25ADH         LINE#         245
  C:25B3H         LINE#         246
  C:25B6H         LINE#         247
  C:25BCH         LINE#         248
  C:25BFH         LINE#         250
  C:25BFH         LINE#         251
  C:25CDH         LINE#         252
  C:25D3H         LINE#         253
  C:25D6H         LINE#         254
  C:25DCH         LINE#         255
  C:25DFH         LINE#         257
  C:25DFH         LINE#         258
  C:25EDH         LINE#         259
  C:25F3H         LINE#         260
BL51 BANKED LINKER/LOCATER V6.22.2.0                                                  07/27/2021  14:31:11  PAGE 50


  C:25F6H         LINE#         261
  C:25FCH         LINE#         262
  C:25FFH         LINE#         267
  C:25FFH         LINE#         269
  C:260DH         LINE#         270
  C:2613H         LINE#         271
  C:2616H         LINE#         272
  C:261CH         LINE#         273
  C:261FH         LINE#         274
  C:261FH         LINE#         276
  C:262DH         LINE#         277
  C:2633H         LINE#         278
  C:2636H         LINE#         279
  C:263CH         LINE#         280
  C:263FH         LINE#         281
  C:263FH         LINE#         283
  C:264DH         LINE#         284
  C:2653H         LINE#         285
  C:2656H         LINE#         286
  C:265CH         LINE#         287
  C:265EH         LINE#         288
  C:265EH         LINE#         290
  C:266CH         LINE#         291
  C:2672H         LINE#         292
  C:2675H         LINE#         293
  C:267BH         LINE#         294
  C:267DH         LINE#         296
  C:267DH         LINE#         298
  C:268BH         LINE#         299
  C:2691H         LINE#         300
  C:2694H         LINE#         301
  C:269AH         LINE#         302
  C:269CH         LINE#         304
  C:269CH         LINE#         305
  C:26AAH         LINE#         306
  C:26B0H         LINE#         307
  C:26B3H         LINE#         308
  C:26BEH         LINE#         309
  C:26BEH         LINE#         310
  C:26BEH         LINE#         312
  C:26BEH         LINE#         313
  C:26BEH         LINE#         314
  C:26C0H         LINE#         316
  C:26C1H         LINE#         318
  C:26C1H         LINE#         319
  C:26C3H         LINE#         320
  C:2707H         LINE#         321
  C:2707H         LINE#         324
  C:2707H         LINE#         325
  C:271BH         LINE#         326
  C:271BH         LINE#         328
  C:271EH         LINE#         329
  C:271EH         LINE#         330
  C:2732H         LINE#         331
  C:2732H         LINE#         333
  C:2735H         LINE#         335
  C:2735H         LINE#         336
BL51 BANKED LINKER/LOCATER V6.22.2.0                                                  07/27/2021  14:31:11  PAGE 51


  C:2749H         LINE#         337
  C:2749H         LINE#         339
  C:274CH         LINE#         340
  C:274CH         LINE#         341
  C:2760H         LINE#         342
  C:2760H         LINE#         344
  C:2763H         LINE#         345
  C:2763H         LINE#         346
  C:2777H         LINE#         347
  C:2777H         LINE#         349
  C:277AH         LINE#         350
  C:277AH         LINE#         351
  C:278EH         LINE#         352
  C:278EH         LINE#         354
  C:2791H         LINE#         355
  C:2791H         LINE#         356
  C:27A5H         LINE#         357
  C:27A5H         LINE#         359
  C:27A8H         LINE#         360
  C:27A8H         LINE#         361
  C:27BCH         LINE#         362
  C:27BCH         LINE#         364
  C:27BFH         LINE#         365
  C:27BFH         LINE#         366
  C:27D3H         LINE#         367
  C:27D3H         LINE#         369
  C:27D6H         LINE#         370
  C:27D6H         LINE#         371
  C:27EAH         LINE#         372
  C:27EAH         LINE#         374
  C:27EDH         LINE#         376
  C:27EDH         LINE#         377
  C:2801H         LINE#         378
  C:2801H         LINE#         380
  C:2803H         LINE#         382
  C:2803H         LINE#         383
  C:2817H         LINE#         384
  C:2817H         LINE#         386
  C:2819H         LINE#         388
  C:2819H         LINE#         389
  C:282DH         LINE#         390
  C:282DH         LINE#         392
  C:282FH         LINE#         396
  C:282FH         LINE#         397
  C:2843H         LINE#         398
  C:2843H         LINE#         400
  C:2845H         LINE#         401
  C:2845H         LINE#         402
  C:2859H         LINE#         403
  C:2859H         LINE#         405
  C:285BH         LINE#         406
  C:285BH         LINE#         408
  C:2861H         LINE#         410
  C:2863H         LINE#         411
  C:2863H         LINE#         412
  C:287AH         LINE#         413
  C:2886H         LINE#         415
BL51 BANKED LINKER/LOCATER V6.22.2.0                                                  07/27/2021  14:31:11  PAGE 52


  C:2888H         LINE#         416
  C:2888H         LINE#         417
  C:289FH         LINE#         418
  C:28ABH         LINE#         420
  C:28ADH         LINE#         422
  C:28ADH         LINE#         423
  C:28C4H         LINE#         424
  C:28D3H         LINE#         426
  C:28D3H         LINE#         428
  C:28D3H         LINE#         430
  C:28D3H         LINE#         431
  C:28D3H         LINE#         432
  C:28D5H         LINE#         433
  C:28D5H         LINE#         437
  -------         ENDPROC       _PANTALLALCD
  -------         PROC          _PANTALLALCD_LINEA_2
  X:0011H         SYMBOL        cod_msg
  X:0012H         SYMBOL        buffer
  -------         DO            
  X:0015H         SYMBOL        Ini_LCD_Line_one
  X:001BH         SYMBOL        num_chr
  X:001CH         SYMBOL        buf
  -------         ENDDO         
  C:4F81H         LINE#         438
  C:4F8FH         LINE#         439
  C:4F8FH         LINE#         441
  C:4FA2H         LINE#         448
  C:4FA4H         LINE#         450
  C:4FADH         LINE#         451
  C:4FADH         LINE#         454
  C:4FBBH         LINE#         455
  C:4FBBH         LINE#         457
  C:4FBBH         LINE#         458
  C:4FBEH         LINE#         459
  C:4FCCH         LINE#         460
  C:4FE1H         LINE#         461
  C:4FE7H         LINE#         462
  C:4FEDH         LINE#         463
  C:4FF3H         LINE#         464
  C:4FF3H         LINE#         465
  C:4FF5H         LINE#         466
  C:4FF5H         LINE#         467
  C:4FF8H         LINE#         468
  C:5006H         LINE#         469
  C:501BH         LINE#         470
  C:5021H         LINE#         471
  C:5027H         LINE#         472
  C:5032H         LINE#         473
  C:5042H         LINE#         474
  C:5042H         LINE#         475
  C:5042H         LINE#         477
  C:5042H         LINE#         479
  C:5042H         LINE#         480
  C:5044H         LINE#         481
  C:5045H         LINE#         483
  C:5045H         LINE#         484
  C:5047H         LINE#         485
BL51 BANKED LINKER/LOCATER V6.22.2.0                                                  07/27/2021  14:31:11  PAGE 53


  C:5055H         LINE#         486
  C:5055H         LINE#         487
  C:5055H         LINE#         489
  C:5064H         LINE#         490
  C:5064H         LINE#         491
  C:5064H         LINE#         492
  C:5064H         LINE#         494
  C:5066H         LINE#         496
  C:5066H         LINE#         497
  C:5075H         LINE#         498
  C:5088H         LINE#         499
  C:50A2H         LINE#         500
  C:50C0H         LINE#         501
  C:50D7H         LINE#         502
  C:50E0H         LINE#         503
  C:50E0H         LINE#         504
  C:50E0H         LINE#         506
  C:50E0H         LINE#         507
  C:50E0H         LINE#         508
  C:50E2H         LINE#         509
  C:50E2H         LINE#         512
  -------         ENDPROC       _PANTALLALCD_LINEA_2
  -------         ENDMOD        PANTALLAS

  -------         MODULE        PROG
  C:0000H         SYMBOL        _ICE_DUMMY_
  C:536CH         PUBLIC        Prog_Sin_Cobro
  C:58F7H         PUBLIC        Prog_debug
  C:5CE7H         PUBLIC        dcto_caja
  C:6DF2H         PUBLIC        _GetOption
  X:0115H         PUBLIC        validacion
  X:011EH         PUBLIC        cursor
  C:7680H         PUBLIC        Show
  C:5AEFH         PUBLIC        Prog_Comparacion_Activa
  C:6464H         PUBLIC        prog_id_cliente
  C:7A4DH         PUBLIC        _ValidarClave
  C:47D1H         PUBLIC        menu
  C:59F3H         PUBLIC        Prog_Use_Lpr
  C:76E3H         PUBLIC        _ListaComandos
  C:1EBCH         SYMBOL        _?ix1000
  C:1EC7H         SYMBOL        _?ix1001
  C:1ED7H         SYMBOL        _?ix1002
  C:1EE7H         SYMBOL        _?ix1003
  C:1EEBH         SYMBOL        _?ix1004
  C:1EEFH         SYMBOL        _?ix1005
  C:4610H         PUBLIC        _hash_id
  C:63A7H         PUBLIC        Prog_tiempo_gracia
  C:733BH         PUBLIC        _IngresaDato
  X:0132H         PUBLIC        comandos
  C:8034H         PUBLIC        DisplayCursor
  C:62EAH         PUBLIC        prog_cod_park
  C:5BEBH         PUBLIC        tipo_pantalla
  C:7B97H         PUBLIC        _GetCMD
  -------         PROC          _HASH_ID
  X:005DH         SYMBOL        clave
  -------         DO            
  X:0060H         SYMBOL        len_clave
BL51 BANKED LINKER/LOCATER V6.22.2.0                                                  07/27/2021  14:31:11  PAGE 54


  X:0061H         SYMBOL        i
  X:0111H         SYMBOL        temp
  X:0113H         SYMBOL        temp1
  X:0062H         SYMBOL        aleatorio
  X:006DH         SYMBOL        suma
  X:007DH         SYMBOL        xxor
  X:008DH         SYMBOL        usuario1
  -------         ENDDO         
  C:4610H         LINE#         63
  C:461BH         LINE#         64
  C:461BH         LINE#         67
  C:462EH         LINE#         68
  C:4641H         LINE#         69
  C:4654H         LINE#         72
  C:4667H         LINE#         73
  C:4679H         LINE#         74
  C:4679H         LINE#         75
  C:46A5H         LINE#         76
  C:46B0H         LINE#         77
  C:46BDH         LINE#         78
  C:46DBH         LINE#         79
  C:46E6H         LINE#         80
  C:46F3H         LINE#         81
  C:4717H         LINE#         82
  C:471FH         LINE#         83
  C:471FH         LINE#         84
  C:4724H         LINE#         85
  C:4724H         LINE#         86
  C:473DH         LINE#         87
  C:473DH         LINE#         88
  C:4749H         LINE#         90
  C:4749H         LINE#         91
  C:4758H         LINE#         92
  C:4758H         LINE#         93
  C:4764H         LINE#         94
  C:4764H         LINE#         95
  C:477DH         LINE#         96
  C:477DH         LINE#         97
  C:4788H         LINE#         98
  C:4788H         LINE#         99
  C:47A1H         LINE#         100
  C:47A1H         LINE#         101
  C:47ACH         LINE#         102
  C:47ACH         LINE#         103
  C:47C1H         LINE#         105
  C:47CAH         LINE#         106
  C:47D0H         LINE#         107
  -------         ENDPROC       _HASH_ID
  -------         PROC          _LISTACOMANDOS
  X:005DH         SYMBOL        cmd
  -------         DO            
  X:0060H         SYMBOL        buf
  X:0063H         SYMBOL        i
  -------         ENDDO         
  C:76E3H         LINE#         114
  C:76EEH         LINE#         115
  C:76EEH         LINE#         119
BL51 BANKED LINKER/LOCATER V6.22.2.0                                                  07/27/2021  14:31:11  PAGE 55


  C:7701H         LINE#         120
  C:7701H         LINE#         121
  C:7719H         LINE#         122
  C:7734H         LINE#         123
  C:773AH         LINE#         124
  C:7742H         LINE#         126
  C:7744H         LINE#         127
  -------         ENDPROC       _LISTACOMANDOS
  -------         PROC          L?0134
  -------         ENDPROC       L?0134
  -------         PROC          _VALIDARCLAVE
  X:005DH         SYMBOL        buffer
  -------         DO            
  X:0060H         SYMBOL        buf
  -------         ENDDO         
  C:7A4DH         LINE#         133
  C:7A58H         LINE#         134
  C:7A58H         LINE#         137
  C:7A67H         LINE#         138
  C:7A82H         LINE#         139
  C:7A84H         LINE#         142
  C:7A86H         LINE#         143
  -------         ENDPROC       _VALIDARCLAVE
  C:7B91H         SYMBOL        L?0133
  -------         PROC          L?0132
  -------         ENDPROC       L?0132
  C:7B91H         SYMBOL        L?0133
  -------         PROC          _GETCMD
  X:005DH         SYMBOL        in
  -------         DO            
  X:0060H         SYMBOL        tokens
  -------         ENDDO         
  C:7B97H         LINE#         150
  C:7BA2H         LINE#         151
  C:7BA2H         LINE#         152
  C:7BB5H         LINE#         153
  -------         ENDPROC       _GETCMD
  -------         PROC          L?0131
  -------         ENDPROC       L?0131
  -------         PROC          _GETOPTION
  X:005DH         SYMBOL        in
  -------         DO            
  X:0060H         SYMBOL        tokensSpace
  X:0064H         SYMBOL        tokensQuote
  -------         ENDDO         
  C:6DF2H         LINE#         159
  C:6DFDH         LINE#         160
  C:6DFDH         LINE#         161
  C:6E10H         LINE#         162
  C:6E23H         LINE#         165
  C:6E35H         LINE#         166
  C:6E41H         LINE#         169
  C:6E48H         LINE#         170
  C:6E55H         LINE#         172
  C:6E6EH         LINE#         173
  -------         ENDPROC       _GETOPTION
  -------         PROC          DISPLAYCURSOR
BL51 BANKED LINKER/LOCATER V6.22.2.0                                                  07/27/2021  14:31:11  PAGE 56


  C:8034H         LINE#         178
  C:8034H         LINE#         179
  C:8034H         LINE#         180
  -------         ENDPROC       DISPLAYCURSOR
  C:7337H         SYMBOL        L?0130
  -------         PROC          L?0129
  -------         ENDPROC       L?0129
  C:7337H         SYMBOL        L?0130
  -------         PROC          _INGRESADATO
  X:0069H         SYMBOL        buffer
  X:006CH         SYMBOL        modo
  -------         DO            
  D:0006H         SYMBOL        i
  -------         ENDDO         
  C:733BH         LINE#         187
  C:7349H         LINE#         188
  C:7349H         LINE#         193
  C:7349H         LINE#         194
  C:735BH         LINE#         195
  C:7361H         LINE#         196
  C:7361H         LINE#         197
  C:737CH         LINE#         198
  C:737EH         LINE#         200
  C:737EH         LINE#         201
  C:7383H         LINE#         202
  C:7383H         LINE#         203
  C:7394H         LINE#         204
  C:739EH         LINE#         205
  C:73ADH         LINE#         207
  C:73B2H         LINE#         211
  -------         ENDPROC       _INGRESADATO
  -------         PROC          PROG_ID_CLIENTE
  -------         DO            
  X:005DH         SYMBOL        buffer
  X:0067H         SYMBOL        dataee
  -------         ENDDO         
  C:6464H         LINE#         228
  C:6464H         LINE#         229
  C:6464H         LINE#         233
  C:6476H         LINE#         234
  C:6493H         LINE#         236
  C:64AAH         LINE#         238
  C:64B3H         LINE#         239
  C:64BAH         LINE#         240
  C:64CBH         LINE#         241
  C:64D4H         LINE#         243
  C:64E6H         LINE#         244
  C:6503H         LINE#         245
  -------         ENDPROC       PROG_ID_CLIENTE
  -------         PROC          PROG_COD_PARK
  -------         DO            
  X:005DH         SYMBOL        buffer
  X:0067H         SYMBOL        dataee
  -------         ENDDO         
  C:62EAH         LINE#         250
  C:62EAH         LINE#         251
  C:62EAH         LINE#         255
BL51 BANKED LINKER/LOCATER V6.22.2.0                                                  07/27/2021  14:31:11  PAGE 57


  C:62FDH         LINE#         256
  C:631AH         LINE#         258
  C:6331H         LINE#         260
  C:633AH         LINE#         261
  C:6345H         LINE#         262
  C:6356H         LINE#         263
  C:6360H         LINE#         265
  C:6373H         LINE#         266
  C:6390H         LINE#         267
  -------         ENDPROC       PROG_COD_PARK
  -------         PROC          PROG_TIEMPO_GRACIA
  -------         DO            
  X:005DH         SYMBOL        buffer
  X:0067H         SYMBOL        dataee
  -------         ENDDO         
  C:63A7H         LINE#         272
  C:63A7H         LINE#         273
  C:63A7H         LINE#         277
  C:63BAH         LINE#         278
  C:63D7H         LINE#         280
  C:63EEH         LINE#         282
  C:63F7H         LINE#         283
  C:6402H         LINE#         284
  C:6413H         LINE#         285
  C:641DH         LINE#         287
  C:6430H         LINE#         288
  C:644DH         LINE#         289
  -------         ENDPROC       PROG_TIEMPO_GRACIA
  -------         PROC          PROG_SIN_COBRO
  -------         DO            
  X:005DH         SYMBOL        buffer
  X:0067H         SYMBOL        dataee
  -------         ENDDO         
  C:536CH         LINE#         295
  C:536CH         LINE#         296
  C:536CH         LINE#         302
  C:537FH         LINE#         303
  C:539CH         LINE#         304
  C:53A6H         LINE#         305
  C:53A6H         LINE#         306
  C:53B9H         LINE#         307
  C:53BBH         LINE#         308
  C:53C7H         LINE#         309
  C:53C7H         LINE#         310
  C:53DAH         LINE#         311
  C:53DCH         LINE#         313
  C:53DCH         LINE#         314
  C:53F3H         LINE#         315
  C:53F3H         LINE#         317
  C:53FCH         LINE#         318
  C:5407H         LINE#         319
  C:5418H         LINE#         320
  C:5422H         LINE#         322
  C:5435H         LINE#         323
  C:5452H         LINE#         324
  C:545CH         LINE#         325
  C:545CH         LINE#         326
BL51 BANKED LINKER/LOCATER V6.22.2.0                                                  07/27/2021  14:31:11  PAGE 58


  C:546FH         LINE#         327
  C:5471H         LINE#         328
  C:547DH         LINE#         329
  C:547DH         LINE#         330
  C:5490H         LINE#         331
  C:5492H         LINE#         333
  C:5492H         LINE#         334
  C:54A9H         LINE#         335
  C:54A9H         LINE#         337
  -------         ENDPROC       PROG_SIN_COBRO
  -------         PROC          PROG_DEBUG
  -------         DO            
  X:005DH         SYMBOL        buffer
  X:0067H         SYMBOL        dataee
  -------         ENDDO         
  C:58F7H         LINE#         343
  C:58F7H         LINE#         344
  C:58F7H         LINE#         349
  C:590AH         LINE#         350
  C:5927H         LINE#         351
  C:5931H         LINE#         352
  C:5931H         LINE#         353
  C:5944H         LINE#         354
  C:5946H         LINE#         356
  C:5946H         LINE#         357
  C:595DH         LINE#         358
  C:595DH         LINE#         360
  C:5966H         LINE#         361
  C:5971H         LINE#         362
  C:5982H         LINE#         363
  C:598CH         LINE#         365
  C:599FH         LINE#         366
  C:59BCH         LINE#         367
  C:59C6H         LINE#         368
  C:59C6H         LINE#         369
  C:59D9H         LINE#         370
  C:59DBH         LINE#         372
  C:59DBH         LINE#         373
  C:59F2H         LINE#         374
  C:59F2H         LINE#         375
  -------         ENDPROC       PROG_DEBUG
  -------         PROC          PROG_USE_LPR
  -------         DO            
  X:005DH         SYMBOL        buffer
  X:0067H         SYMBOL        dataee
  -------         ENDDO         
  C:59F3H         LINE#         380
  C:59F3H         LINE#         381
  C:59F3H         LINE#         386
  C:5A06H         LINE#         387
  C:5A23H         LINE#         388
  C:5A2DH         LINE#         389
  C:5A2DH         LINE#         390
  C:5A40H         LINE#         391
  C:5A42H         LINE#         393
  C:5A42H         LINE#         394
  C:5A59H         LINE#         395
BL51 BANKED LINKER/LOCATER V6.22.2.0                                                  07/27/2021  14:31:11  PAGE 59


  C:5A59H         LINE#         397
  C:5A62H         LINE#         398
  C:5A6DH         LINE#         399
  C:5A7EH         LINE#         400
  C:5A88H         LINE#         402
  C:5A9BH         LINE#         403
  C:5AB8H         LINE#         404
  C:5AC2H         LINE#         405
  C:5AC2H         LINE#         406
  C:5AD5H         LINE#         407
  C:5AD7H         LINE#         409
  C:5AD7H         LINE#         410
  C:5AEEH         LINE#         411
  C:5AEEH         LINE#         412
  -------         ENDPROC       PROG_USE_LPR
  -------         PROC          PROG_COMPARACION_ACTIVA
  -------         DO            
  X:005DH         SYMBOL        buffer
  X:0067H         SYMBOL        dataee
  -------         ENDDO         
  C:5AEFH         LINE#         416
  C:5AEFH         LINE#         417
  C:5AEFH         LINE#         422
  C:5B02H         LINE#         423
  C:5B1FH         LINE#         424
  C:5B29H         LINE#         425
  C:5B29H         LINE#         426
  C:5B3CH         LINE#         427
  C:5B3EH         LINE#         429
  C:5B3EH         LINE#         430
  C:5B55H         LINE#         431
  C:5B55H         LINE#         433
  C:5B5EH         LINE#         434
  C:5B69H         LINE#         435
  C:5B7AH         LINE#         436
  C:5B84H         LINE#         438
  C:5B97H         LINE#         439
  C:5BB4H         LINE#         440
  C:5BBEH         LINE#         441
  C:5BBEH         LINE#         442
  C:5BD1H         LINE#         443
  C:5BD3H         LINE#         445
  C:5BD3H         LINE#         446
  C:5BEAH         LINE#         447
  C:5BEAH         LINE#         448
  -------         ENDPROC       PROG_COMPARACION_ACTIVA
  -------         PROC          TIPO_PANTALLA
  -------         DO            
  X:005DH         SYMBOL        buffer
  X:0067H         SYMBOL        dataee
  -------         ENDDO         
  C:5BEBH         LINE#         454
  C:5BEBH         LINE#         455
  C:5BEBH         LINE#         460
  C:5BFEH         LINE#         461
  C:5C1BH         LINE#         462
  C:5C25H         LINE#         463
BL51 BANKED LINKER/LOCATER V6.22.2.0                                                  07/27/2021  14:31:11  PAGE 60


  C:5C25H         LINE#         464
  C:5C38H         LINE#         465
  C:5C3AH         LINE#         467
  C:5C3AH         LINE#         468
  C:5C51H         LINE#         469
  C:5C51H         LINE#         471
  C:5C5AH         LINE#         472
  C:5C65H         LINE#         473
  C:5C76H         LINE#         474
  C:5C80H         LINE#         476
  C:5C93H         LINE#         477
  C:5CB0H         LINE#         478
  C:5CBAH         LINE#         479
  C:5CBAH         LINE#         480
  C:5CCDH         LINE#         481
  C:5CCFH         LINE#         483
  C:5CCFH         LINE#         484
  C:5CE6H         LINE#         485
  C:5CE6H         LINE#         487
  -------         ENDPROC       TIPO_PANTALLA
  -------         PROC          DCTO_CAJA
  -------         DO            
  X:005DH         SYMBOL        buffer
  X:0067H         SYMBOL        dataee
  -------         ENDDO         
  C:5CE7H         LINE#         493
  C:5CE7H         LINE#         494
  C:5CE7H         LINE#         499
  C:5CFAH         LINE#         500
  C:5D17H         LINE#         501
  C:5D21H         LINE#         502
  C:5D21H         LINE#         503
  C:5D34H         LINE#         504
  C:5D36H         LINE#         506
  C:5D36H         LINE#         507
  C:5D4DH         LINE#         508
  C:5D4DH         LINE#         510
  C:5D56H         LINE#         511
  C:5D61H         LINE#         512
  C:5D72H         LINE#         513
  C:5D7CH         LINE#         515
  C:5D8FH         LINE#         516
  C:5DACH         LINE#         517
  C:5DB6H         LINE#         518
  C:5DB6H         LINE#         519
  C:5DC9H         LINE#         520
  C:5DCBH         LINE#         522
  C:5DCBH         LINE#         523
  C:5DE2H         LINE#         524
  C:5DE2H         LINE#         525
  -------         ENDPROC       DCTO_CAJA
  -------         PROC          SHOW
  C:7680H         LINE#         529
  C:7680H         LINE#         530
  C:7680H         LINE#         531
  C:7689H         LINE#         532
  C:7692H         LINE#         533
BL51 BANKED LINKER/LOCATER V6.22.2.0                                                  07/27/2021  14:31:11  PAGE 61


  C:769BH         LINE#         534
  C:76A4H         LINE#         535
  C:76ADH         LINE#         536
  C:76B6H         LINE#         537
  C:76BFH         LINE#         538
  C:76C8H         LINE#         539
  C:76D1H         LINE#         540
  C:76DAH         LINE#         541
  -------         ENDPROC       SHOW
  -------         PROC          MENU
  -------         DO            
  X:0001H         SYMBOL        cmd
  X:0004H         SYMBOL        option1
  X:0007H         SYMBOL        option2
  X:000AH         SYMBOL        usuario
  X:000DH         SYMBOL        opt_buffer
  X:0035H         SYMBOL        buffer
  -------         ENDDO         
  C:47D1H         LINE#         549
  C:47D1H         LINE#         550
  C:47D1H         LINE#         559
  C:47DAH         LINE#         564
  C:47DAH         LINE#         565
  C:47E3H         LINE#         568
  C:47E6H         LINE#         569
  C:47F4H         LINE#         570
  C:4808H         LINE#         571
  C:480EH         LINE#         574
  C:480EH         LINE#         575
  C:4817H         LINE#         577
  C:4822H         LINE#         578
  C:4830H         LINE#         579
  C:483FH         LINE#         582
  C:4845H         LINE#         585
  C:4848H         LINE#         586
  C:4848H         LINE#         587
  C:4848H         LINE#         588
  C:484BH         LINE#         591
  C:484EH         LINE#         592
  C:485CH         LINE#         593
  C:4870H         LINE#         594
  C:4884H         LINE#         599
  C:489AH         LINE#         600
  C:489AH         LINE#         602
  C:48A9H         LINE#         603
  C:48ABH         LINE#         604
  C:48BBH         LINE#         605
  C:48BBH         LINE#         607
  C:48CAH         LINE#         608
  C:48E8H         LINE#         609
  C:48E8H         LINE#         615
  C:48FBH         LINE#         616
  C:48FBH         LINE#         617
  C:492CH         LINE#         618
  C:492CH         LINE#         619
  C:492CH         LINE#         620
  C:492FH         LINE#         622
BL51 BANKED LINKER/LOCATER V6.22.2.0                                                  07/27/2021  14:31:11  PAGE 62


  C:4932H         LINE#         624
  C:4932H         LINE#         625
  C:4935H         LINE#         626
  C:4938H         LINE#         628
  C:4938H         LINE#         630
  C:493BH         LINE#         632
  C:493EH         LINE#         634
  C:493EH         LINE#         635
  C:4941H         LINE#         637
  C:4944H         LINE#         639
  C:4944H         LINE#         640
  C:4947H         LINE#         641
  C:494AH         LINE#         642
  C:494AH         LINE#         643
  C:494DH         LINE#         644
  C:4950H         LINE#         645
  C:4950H         LINE#         646
  C:4953H         LINE#         648
  C:4956H         LINE#         649
  C:4956H         LINE#         650
  C:4959H         LINE#         651
  C:495CH         LINE#         653
  C:495CH         LINE#         654
  C:495FH         LINE#         655
  C:4962H         LINE#         656
  C:4962H         LINE#         658
  C:4965H         LINE#         659
  C:4968H         LINE#         660
  C:4968H         LINE#         663
  C:4968H         LINE#         667
  C:4968H         LINE#         668
  C:4986H         LINE#         669
  C:4989H         LINE#         670
  C:4989H         LINE#         671
  C:4989H         LINE#         672
  C:4989H         LINE#         673
  -------         ENDPROC       MENU
  -------         ENDMOD        PROG

  -------         MODULE        PTO_PARALELO
  C:0000H         SYMBOL        _ICE_DUMMY_
  D:0080H         PUBLIC        P0
  D:00A0H         PUBLIC        P2
  D:00B0H         PUBLIC        P3
  B:0080H.2       PUBLIC        led_err_imp
  C:56E8H         PUBLIC        load_and_send_id_cod
  C:6A57H         PUBLIC        _recibe_port
  B:00B0H.2       PUBLIC        ready
  B:0080H.6       PUBLIC        rx_in_data
  C:80ACH         PUBLIC        Pulso_Bus
  C:7019H         PUBLIC        _send_portERR
  B:00B0H.3       PUBLIC        busy
  C:7DE7H         PUBLIC        load_and_send_info_reloj
  C:651AH         PUBLIC        _send_port
  B:00B0H.4       PUBLIC        port_clk
  C:3D09H         PUBLIC        _Trama_pto_Paralelo_new
  C:57F8H         PUBLIC        _Trama_pto_Paralelo_P
BL51 BANKED LINKER/LOCATER V6.22.2.0                                                  07/27/2021  14:31:11  PAGE 63


  C:811DH         PUBLIC        cond_ini_pto
  -------         PROC          _RECIBE_PORT
  X:0001H         SYMBOL        buffer_port
  -------         DO            
  D:0006H         SYMBOL        count
  X:0004H         SYMBOL        time_out
  X:0005H         SYMBOL        num_data
  X:0006H         SYMBOL        T_ANCHO
  X:0008H         SYMBOL        data_temp
  -------         ENDDO         
  C:6A57H         LINE#         46
  C:6A62H         LINE#         47
  C:6A62H         LINE#         51
  C:6A6BH         LINE#         52
  C:6A6EH         LINE#         55
  C:6A71H         LINE#         56
  C:6A71H         LINE#         58
  C:6A74H         LINE#         59
  C:6A79H         LINE#         60
  C:6A7BH         LINE#         61
  C:6A7FH         LINE#         62
  C:6A81H         LINE#         65
  C:6A86H         LINE#         66
  C:6A8FH         LINE#         67
  C:6A8FH         LINE#         68
  C:6A92H         LINE#         69
  C:6A92H         LINE#         71
  C:6A97H         LINE#         72
  C:6A9BH         LINE#         73
  C:6A9BH         LINE#         74
  C:6A9DH         LINE#         75
  C:6A9FH         LINE#         76
  C:6A9FH         LINE#         77
  C:6A9FH         LINE#         79
  C:6A9FH         LINE#         80
  C:6AACH         LINE#         81
  C:6AACH         LINE#         83
  C:6AAFH         LINE#         84
  C:6AAFH         LINE#         86
  C:6AB5H         LINE#         88
  C:6AB7H         LINE#         89
  C:6ACBH         LINE#         90
  C:6AD5H         LINE#         91
  C:6ADBH         LINE#         92
  C:6AE1H         LINE#         93
  C:6AE3H         LINE#         94
  C:6AE3H         LINE#         95
  C:6AE3H         LINE#         96
  C:6AE3H         LINE#         97
  C:6AE3H         LINE#         99
  C:6AE6H         LINE#         100
  C:6AE8H         LINE#         101
  C:6AEAH         LINE#         102
  C:6AEAH         LINE#         103
  C:6AEDH         LINE#         105
  C:6AF2H         LINE#         106
  -------         ENDPROC       _RECIBE_PORT
BL51 BANKED LINKER/LOCATER V6.22.2.0                                                  07/27/2021  14:31:11  PAGE 64


  -------         PROC          _SEND_PORT
  X:0034H         SYMBOL        buffer_port
  X:0037H         SYMBOL        length_char
  -------         DO            
  X:0038H         SYMBOL        cont
  X:003CH         SYMBOL        timeOut
  X:003DH         SYMBOL        length
  -------         ENDDO         
  C:651AH         LINE#         113
  C:6528H         LINE#         114
  C:6528H         LINE#         119
  C:652CH         LINE#         121
  C:652EH         LINE#         122
  C:6530H         LINE#         123
  C:6532H         LINE#         124
  C:6537H         LINE#         125
  C:6539H         LINE#         126
  C:6543H         LINE#         128
  C:654CH         LINE#         129
  C:654CH         LINE#         130
  C:654EH         LINE#         131
  C:6550H         LINE#         132
  C:6574H         LINE#         133
  C:6588H         LINE#         134
  C:6588H         LINE#         135
  C:658BH         LINE#         136
  C:658DH         LINE#         137
  C:658DH         LINE#         138
  C:658FH         LINE#         139
  C:6598H         LINE#         140
  C:6598H         LINE#         144
  C:6598H         LINE#         146
  C:65A8H         LINE#         147
  C:65ABH         LINE#         148
  C:65B5H         LINE#         150
  C:65BBH         LINE#         151
  C:65BEH         LINE#         153
  C:65BEH         LINE#         154
  C:65C1H         LINE#         155
  C:65C3H         LINE#         156
  C:65C5H         LINE#         157
  C:65C7H         LINE#         158
  -------         ENDPROC       _SEND_PORT
  -------         PROC          _TRAMA_PTO_PARALELO_P
  D:0001H         SYMBOL        buffer_S1_B0
  X:0011H         SYMBOL        buffer_S1_B2
  X:0014H         SYMBOL        cmd
  -------         DO            
  X:018AH         SYMBOL        Buffer_port
  X:0015H         SYMBOL        j
  -------         ENDDO         
  C:57F8H         LINE#         226
  C:57F8H         LINE#         227
  C:57F8H         LINE#         230
  C:57FEH         LINE#         231
  C:5803H         LINE#         232
  C:580BH         LINE#         233
BL51 BANKED LINKER/LOCATER V6.22.2.0                                                  07/27/2021  14:31:11  PAGE 65


  C:580FH         LINE#         235
  C:580FH         LINE#         236
  C:5826H         LINE#         237
  C:582DH         LINE#         238
  C:5832H         LINE#         239
  C:583CH         LINE#         240
  C:584FH         LINE#         242
  C:584FH         LINE#         243
  C:5863H         LINE#         244
  C:587FH         LINE#         245
  C:587FH         LINE#         258
  C:5893H         LINE#         261
  C:58A9H         LINE#         262
  C:58A9H         LINE#         263
  C:58BAH         LINE#         264
  C:58BCH         LINE#         266
  C:58BCH         LINE#         267
  C:58CDH         LINE#         268
  C:58CDH         LINE#         271
  C:58CFH         LINE#         273
  C:58DDH         LINE#         274
  C:58E0H         LINE#         276
  C:58F4H         LINE#         277
  -------         ENDPROC       _TRAMA_PTO_PARALELO_P
  -------         PROC          _TRAMA_PTO_PARALELO_NEW
  D:0001H         SYMBOL        buffer_S1_B0
  X:0011H         SYMBOL        buffer_S1_B2
  X:0014H         SYMBOL        cmd
  -------         DO            
  X:0015H         SYMBOL        Buffer_port
  X:0033H         SYMBOL        j
  -------         ENDDO         
  C:3D09H         LINE#         351
  C:3D09H         LINE#         352
  C:3D09H         LINE#         354
  C:3D0FH         LINE#         356
  C:3D13H         LINE#         357
  C:3D1BH         LINE#         360
  C:3D1BH         LINE#         361
  C:3D32H         LINE#         362
  C:3D39H         LINE#         363
  C:3D3EH         LINE#         365
  C:3D54H         LINE#         367
  C:3D54H         LINE#         368
  C:3D65H         LINE#         369
  C:3D81H         LINE#         370
  C:3D83H         LINE#         372
  C:3D83H         LINE#         373
  C:3D94H         LINE#         374
  C:3DA8H         LINE#         375
  C:3DA8H         LINE#         377
  C:3DC2H         LINE#         378
  C:3DC2H         LINE#         379
  C:3DC5H         LINE#         380
  C:3DC7H         LINE#         382
  C:3DC7H         LINE#         383
  C:3DCAH         LINE#         384
BL51 BANKED LINKER/LOCATER V6.22.2.0                                                  07/27/2021  14:31:11  PAGE 66


  C:3DCAH         LINE#         386
  C:3DDEH         LINE#         387
  C:3DF7H         LINE#         388
  C:3E13H         LINE#         389
  C:3E2FH         LINE#         390
  C:3E4BH         LINE#         391
  C:3E67H         LINE#         392
  C:3E7BH         LINE#         394
  C:3E8BH         LINE#         396
  C:3EAFH         LINE#         397
  C:3ED3H         LINE#         398
  C:3EF7H         LINE#         399
  C:3F1BH         LINE#         400
  C:3F3FH         LINE#         404
  C:3F53H         LINE#         407
  C:3F69H         LINE#         408
  C:3F69H         LINE#         409
  C:3F7AH         LINE#         410
  C:3F7CH         LINE#         412
  C:3F7CH         LINE#         413
  C:3F8DH         LINE#         414
  C:3F8DH         LINE#         415
  C:3FA1H         LINE#         418
  C:3FA3H         LINE#         419
  C:3FA6H         LINE#         420
  C:3FB4H         LINE#         422
  C:3FB7H         LINE#         423
  C:3FC0H         LINE#         424
  C:3FD3H         LINE#         425
  -------         ENDPROC       _TRAMA_PTO_PARALELO_NEW
  -------         PROC          PULSO_BUS
  C:80ACH         LINE#         433
  C:80ACH         LINE#         434
  C:80ACH         LINE#         435
  C:80AEH         LINE#         436
  C:80B5H         LINE#         437
  C:80B7H         LINE#         438
  -------         ENDPROC       PULSO_BUS
  -------         PROC          _SEND_PORTERR
  X:000EH         SYMBOL        cod_err
  -------         DO            
  X:000FH         SYMBOL        timeOut
  X:0010H         SYMBOL        cont
  -------         ENDDO         
  C:7019H         LINE#         443
  C:701FH         LINE#         444
  C:701FH         LINE#         448
  C:7021H         LINE#         449
  C:7023H         LINE#         450
  C:7026H         LINE#         451
  C:702EH         LINE#         453
  C:7030H         LINE#         454
  C:7032H         LINE#         455
  C:703BH         LINE#         456
  C:703BH         LINE#         457
  C:705DH         LINE#         458
  C:7071H         LINE#         459
BL51 BANKED LINKER/LOCATER V6.22.2.0                                                  07/27/2021  14:31:11  PAGE 67


  C:7071H         LINE#         460
  C:7076H         LINE#         461
  C:7076H         LINE#         462
  C:7078H         LINE#         463
  C:7081H         LINE#         464
  C:7081H         LINE#         465
  C:7087H         LINE#         466
  C:708AH         LINE#         467
  C:708AH         LINE#         468
  C:708CH         LINE#         469
  C:708EH         LINE#         470
  C:7090H         LINE#         472
  C:7093H         LINE#         474
  C:709AH         LINE#         475
  -------         ENDPROC       _SEND_PORTERR
  -------         PROC          COND_INI_PTO
  C:811DH         LINE#         481
  C:811DH         LINE#         482
  C:811DH         LINE#         484
  C:811FH         LINE#         485
  C:8121H         LINE#         486
  C:8123H         LINE#         487
  C:8126H         LINE#         488
  -------         ENDPROC       COND_INI_PTO
  -------         PROC          LOAD_AND_SEND_INFO_RELOJ
  -------         DO            
  X:0002H         SYMBOL        buffer_info
  -------         ENDDO         
  C:7DE7H         LINE#         493
  C:7DE7H         LINE#         494
  C:7DE7H         LINE#         497
  C:7DEDH         LINE#         499
  C:7DF1H         LINE#         501
  C:7DFAH         LINE#         502
  C:7E04H         LINE#         503
  C:7E08H         LINE#         507
  -------         ENDPROC       LOAD_AND_SEND_INFO_RELOJ
  -------         PROC          LOAD_AND_SEND_ID_COD
  -------         DO            
  X:0002H         SYMBOL        buffer_info
  X:000DH         SYMBOL        buf
  X:0011H         SYMBOL        i
  X:0012H         SYMBOL        k
  -------         ENDDO         
  C:56E8H         LINE#         514
  C:56E8H         LINE#         515
  C:56E8H         LINE#         519
  C:56EDH         LINE#         521
  C:56F3H         LINE#         522
  C:56F7H         LINE#         523
  C:571DH         LINE#         524
  C:5723H         LINE#         525
  C:5723H         LINE#         526
  C:5734H         LINE#         527
  C:5734H         LINE#         528
  C:5743H         LINE#         529
  C:5749H         LINE#         530
BL51 BANKED LINKER/LOCATER V6.22.2.0                                                  07/27/2021  14:31:11  PAGE 68


  C:574BH         LINE#         531
  C:5763H         LINE#         533
  C:576BH         LINE#         536
  C:5791H         LINE#         538
  C:5796H         LINE#         539
  C:5796H         LINE#         540
  C:57A7H         LINE#         541
  C:57A7H         LINE#         542
  C:57B6H         LINE#         543
  C:57BCH         LINE#         544
  C:57D6H         LINE#         545
  C:57DEH         LINE#         548
  C:57EFH         LINE#         549
  -------         ENDPROC       LOAD_AND_SEND_ID_COD
  -------         ENDMOD        PTO_PARALELO

  -------         MODULE        TIBBO
  C:0000H         SYMBOL        _ICE_DUMMY_
  C:79FCH         PUBLIC        _Debug_HexDec
  C:7AD1H         PUBLIC        _Debug_txt_Tibbo
  D:0080H         PUBLIC        P0
  D:0090H         PUBLIC        P1
  C:6874H         PUBLIC        _Debug_Fecha_actual
  B:0090H.0       PUBLIC        txd2
  B:00A8H.7       PUBLIC        EA
  C:7899H         PUBLIC        _tx_aux
  B:0080H.0       PUBLIC        rx_ip
  C:8130H         PUBLIC        Debug_Dividir_texto
  C:8175H         PUBLIC        cond_ini_tibbo
  C:804BH         PUBLIC        time_mbit
  C:70A1H         PUBLIC        rx_Data
  C:7FC5H         PUBLIC        time_bit
  C:78E1H         PUBLIC        _Debug_pto_paralelo
  C:752CH         PUBLIC        _DebugBufferMF
  C:7929H         PUBLIC        _Debug_chr_Tibbo
  C:7FBFH         SYMBOL        L?0066
  -------         PROC          L?0065
  -------         ENDPROC       L?0065
  C:7FBFH         SYMBOL        L?0066
  -------         PROC          TIME_BIT
  -------         DO            
  D:0007H         SYMBOL        j
  -------         ENDDO         
  C:7FC5H         LINE#         18
  C:7FC5H         LINE#         19
  C:7FC5H         LINE#         22
  C:7FD1H         LINE#         23
  C:7FD1H         LINE#         24
  C:7FD2H         LINE#         25
  C:7FD3H         LINE#         26
  C:7FD4H         LINE#         27
  C:7FD5H         LINE#         28
  C:7FD6H         LINE#         29
  C:7FD7H         LINE#         30
  C:7FD8H         LINE#         31
  C:7FD9H         LINE#         32
  C:7FDAH         LINE#         37
BL51 BANKED LINKER/LOCATER V6.22.2.0                                                  07/27/2021  14:31:11  PAGE 69


  C:7FDDH         LINE#         38
  -------         ENDPROC       TIME_BIT
  -------         PROC          TIME_MBIT
  -------         DO            
  D:0007H         SYMBOL        j
  -------         ENDDO         
  C:804BH         LINE#         41
  C:804BH         LINE#         42
  C:804BH         LINE#         44
  C:8057H         LINE#         45
  C:8057H         LINE#         46
  C:8058H         LINE#         47
  C:8059H         LINE#         48
  C:805AH         LINE#         49
  C:805BH         LINE#         50
  C:805CH         LINE#         51
  C:805DH         LINE#         52
  C:805EH         LINE#         53
  C:8061H         LINE#         55
  -------         ENDPROC       TIME_MBIT
  -------         PROC          L?0067
  -------         ENDPROC       L?0067
  -------         PROC          _TX_AUX
  D:0006H         SYMBOL        caracter
  -------         DO            
  D:0004H         SYMBOL        j
  D:0005H         SYMBOL        temporal
  D:0006H         SYMBOL        bitTX
  -------         ENDDO         
  C:7899H         LINE#         60
  C:789BH         LINE#         61
  C:789BH         LINE#         64
  C:789DH         LINE#         65
  C:789FH         LINE#         66
  C:78A2H         LINE#         67
  C:78A3H         LINE#         68
  C:78A4H         LINE#         69
  C:78A6H         LINE#         70
  C:78AAH         LINE#         71
  C:78ACH         LINE#         72
  C:78ACH         LINE#         73
  C:78AEH         LINE#         74
  C:78B0H         LINE#         76
  C:78B0H         LINE#         77
  C:78B2H         LINE#         78
  C:78B2H         LINE#         79
  C:78B5H         LINE#         80
  C:78C1H         LINE#         81
  C:78C1H         LINE#         82
  C:78C5H         LINE#         83
  C:78C8H         LINE#         84
  C:78CAH         LINE#         85
  C:78CAH         LINE#         86
  C:78CCH         LINE#         87
  C:78CEH         LINE#         89
  C:78CEH         LINE#         90
  C:78D0H         LINE#         91
BL51 BANKED LINKER/LOCATER V6.22.2.0                                                  07/27/2021  14:31:11  PAGE 70


  C:78D0H         LINE#         92
  C:78D3H         LINE#         93
  C:78D6H         LINE#         94
  C:78D8H         LINE#         95
  C:78DBH         LINE#         96
  C:78DEH         LINE#         98
  C:78E0H         LINE#         99
  -------         ENDPROC       _TX_AUX
  -------         PROC          _DEBUG_HEXDEC
  D:0007H         SYMBOL        xfc
  -------         DO            
  X:000EH         SYMBOL        valor
  D:0006H         SYMBOL        centena
  D:0003H         SYMBOL        decena
  D:0002H         SYMBOL        unidad
  -------         ENDDO         
  C:79FCH         LINE#         102
  C:79FCH         LINE#         103
  C:79FCH         LINE#         106
  C:7A03H         LINE#         108
  C:7A04H         LINE#         109
  C:7A05H         LINE#         110
  C:7A06H         LINE#         112
  C:7A0EH         LINE#         113
  C:7A0EH         LINE#         114
  C:7A18H         LINE#         115
  C:7A18H         LINE#         116
  C:7A1CH         LINE#         117
  C:7A1DH         LINE#         118
  C:7A1FH         LINE#         119
  C:7A29H         LINE#         120
  C:7A29H         LINE#         121
  C:7A2DH         LINE#         122
  C:7A2EH         LINE#         123
  C:7A30H         LINE#         124
  C:7A32H         LINE#         125
  C:7A36H         LINE#         126
  C:7A3AH         LINE#         127
  C:7A41H         LINE#         129
  C:7A41H         LINE#         130
  -------         ENDPROC       _DEBUG_HEXDEC
  -------         PROC          _DEBUG_CHR_TIBBO
  D:0003H         SYMBOL        Dat
  -------         DO            
  D:0007H         SYMBOL        temp
  -------         ENDDO         
  C:7929H         LINE#         135
  C:792BH         LINE#         136
  C:792BH         LINE#         139
  C:7933H         LINE#         140
  C:7933H         LINE#         141
  C:793AH         LINE#         142
  C:794DH         LINE#         144
  C:7950H         LINE#         146
  C:7954H         LINE#         147
  C:7967H         LINE#         148
  C:796AH         LINE#         149
BL51 BANKED LINKER/LOCATER V6.22.2.0                                                  07/27/2021  14:31:11  PAGE 71


  C:796FH         LINE#         151
  C:796FH         LINE#         152
  -------         ENDPROC       _DEBUG_CHR_TIBBO
  -------         PROC          _DEBUGBUFFERMF
  X:0034H         SYMBOL        str
  X:0037H         SYMBOL        num_char
  X:0038H         SYMBOL        io
  -------         DO            
  X:0039H         SYMBOL        j
  -------         ENDDO         
  C:752CH         LINE#         159
  C:753AH         LINE#         160
  C:753AH         LINE#         164
  C:7542H         LINE#         165
  C:7542H         LINE#         166
  C:7545H         LINE#         167
  C:7554H         LINE#         168
  C:7554H         LINE#         169
  C:7558H         LINE#         170
  C:7561H         LINE#         171
  C:7573H         LINE#         172
  C:7573H         LINE#         173
  C:7585H         LINE#         174
  C:758FH         LINE#         175
  C:7597H         LINE#         177
  C:759CH         LINE#         178
  C:75A1H         LINE#         180
  C:75A1H         LINE#         182
  -------         ENDPROC       _DEBUGBUFFERMF
  -------         PROC          L?0068
  -------         ENDPROC       L?0068
  -------         PROC          _DEBUG_TXT_TIBBO
  X:003AH         SYMBOL        str
  -------         DO            
  X:003DH         SYMBOL        i
  -------         ENDDO         
  C:7AD1H         LINE#         187
  C:7ADCH         LINE#         188
  C:7ADCH         LINE#         190
  C:7ADFH         LINE#         193
  C:7AE7H         LINE#         194
  C:7AE7H         LINE#         195
  C:7B03H         LINE#         196
  C:7B03H         LINE#         197
  C:7B06H         LINE#         198
  C:7B0EH         LINE#         200
  C:7B0EH         LINE#         201
  -------         ENDPROC       _DEBUG_TXT_TIBBO
  -------         PROC          DEBUG_DIVIDIR_TEXTO
  C:8130H         LINE#         203
  C:8130H         LINE#         204
  C:8130H         LINE#         205
  -------         ENDPROC       DEBUG_DIVIDIR_TEXTO
  -------         PROC          RX_DATA
  -------         DO            
  D:0006H         SYMBOL        temporal
  -------         ENDDO         
BL51 BANKED LINKER/LOCATER V6.22.2.0                                                  07/27/2021  14:31:11  PAGE 72


  C:70A1H         LINE#         211
  C:70A1H         LINE#         212
  C:70A1H         LINE#         215
  C:70A3H         LINE#         216
  C:70A6H         LINE#         218
  C:70A9H         LINE#         220
  C:70B5H         LINE#         221
  C:70B5H         LINE#         223
  C:70B8H         LINE#         225
  C:70C4H         LINE#         226
  C:70C4H         LINE#         228
  C:70C7H         LINE#         230
  C:70D3H         LINE#         231
  C:70D3H         LINE#         233
  C:70D6H         LINE#         235
  C:70E2H         LINE#         236
  C:70E2H         LINE#         238
  C:70E5H         LINE#         240
  C:70F1H         LINE#         241
  C:70F1H         LINE#         243
  C:70F4H         LINE#         245
  C:7100H         LINE#         246
  C:7100H         LINE#         248
  C:7103H         LINE#         250
  C:710FH         LINE#         251
  C:710FH         LINE#         253
  C:7112H         LINE#         254
  C:7120H         LINE#         256
  C:7123H         LINE#         257
  C:7126H         LINE#         258
  C:7126H         LINE#         259
  C:7126H         LINE#         261
  C:7128H         LINE#         263
  -------         ENDPROC       RX_DATA
  -------         PROC          _DEBUG_FECHA_ACTUAL
  X:0018H         SYMBOL        buffer
  C:6874H         LINE#         264
  C:687FH         LINE#         265
  C:687FH         LINE#         266
  C:6888H         LINE#         267
  C:689DH         LINE#         268
  C:68A2H         LINE#         269
  C:68BAH         LINE#         270
  C:68BFH         LINE#         271
  C:68D7H         LINE#         272
  C:68DCH         LINE#         273
  C:68F4H         LINE#         274
  C:68F9H         LINE#         275
  C:6911H         LINE#         276
  -------         ENDPROC       _DEBUG_FECHA_ACTUAL
  -------         PROC          COND_INI_TIBBO
  C:8175H         LINE#         281
  C:8175H         LINE#         282
  C:8175H         LINE#         284
  C:8177H         LINE#         285
  C:8179H         LINE#         286
  -------         ENDPROC       COND_INI_TIBBO
BL51 BANKED LINKER/LOCATER V6.22.2.0                                                  07/27/2021  14:31:11  PAGE 73


  -------         PROC          _DEBUG_PTO_PARALELO
  X:0001H         SYMBOL        buffer
  X:0004H         SYMBOL        Length_trama
  C:78E1H         LINE#         287
  C:78EFH         LINE#         288
  C:78EFH         LINE#         290
  C:78F8H         LINE#         291
  C:790FH         LINE#         292
  C:7912H         LINE#         293
  C:791BH         LINE#         294
  C:7923H         LINE#         295
  C:7926H         LINE#         296
  -------         ENDPROC       _DEBUG_PTO_PARALELO
  -------         ENDMOD        TIBBO

  -------         MODULE        UART
  C:0000H         SYMBOL        _ICE_DUMMY_
  C:7EB4H         PUBLIC        com_getchar
  C:80BEH         PUBLIC        com_rbuflen
  C:80D0H         PUBLIC        com_tbuflen
  B:00A8H.4       PUBLIC        ES
  B:0098H.0       PUBLIC        RI
  C:7D05H         PUBLIC        _com_putchar
  B:0098H.1       PUBLIC        TI
  B:0021H.3       PUBLIC        aSk
  B:00B8H.4       PUBLIC        PS
  D:000DH         SYMBOL        r_in
  D:000EH         SYMBOL        r_out
  D:000FH         SYMBOL        t_in
  D:0010H         SYMBOL        t_out
  D:0099H         PUBLIC        SBUF
  D:0087H         PUBLIC        PCON
  D:0089H         PUBLIC        TMOD
  B:0021H.4       SYMBOL        ti_restart
  B:00A8H.3       PUBLIC        ET1
  D:008DH         PUBLIC        TH1
  B:0098H.7       PUBLIC        SM0
  B:0098H.6       PUBLIC        SM1
  D:008BH         PUBLIC        TL1
  B:0098H.5       PUBLIC        SM2
  B:0088H.6       PUBLIC        TR1
  C:7E13H         PUBLIC        com_initialize
  B:0098H.4       PUBLIC        REN
  C:7E65H         PUBLIC        com_baudrate
  C:498AH         SYMBOL        com_isr
  X:01ADH         PUBLIC        error_rx
  -------         PROC          COM_ISR
  -------         DO            
  X:01ABH         SYMBOL        cDatoRx
  D:0006H         SYMBOL        k
  D:0007H         SYMBOL        bcc
  X:01ACH         SYMBOL        num_datos
  -------         ENDDO         
  C:498AH         LINE#         95
  C:499FH         LINE#         108
  C:49A5H         LINE#         109
  C:49A5H         LINE#         111
BL51 BANKED LINKER/LOCATER V6.22.2.0                                                  07/27/2021  14:31:11  PAGE 74


  C:49A7H         LINE#         112
  C:49ADH         LINE#         113
  C:49BDH         LINE#         114
  C:49BDH         LINE#         115
  C:49C8H         LINE#         116
  C:49CAH         LINE#         118
  C:49CAH         LINE#         119
  C:49DAH         LINE#         120
  C:49DAH         LINE#         121
  C:49DFH         LINE#         122
  C:49DFH         LINE#         123
  C:49F6H         LINE#         124
  C:49F6H         LINE#         128
  C:49F6H         LINE#         131
  C:4A05H         LINE#         132
  C:4A05H         LINE#         133
  C:4A07H         LINE#         134
  C:4A0FH         LINE#         135
  C:4A14H         LINE#         137
  C:4A14H         LINE#         138
  C:4A17H         LINE#         142
  C:4A17H         LINE#         143
  C:4A17H         LINE#         144
  C:4A2FH         LINE#         145
  C:4A3EH         LINE#         146
  C:4A3EH         LINE#         147
  C:4A3EH         LINE#         148
  C:4A40H         LINE#         150
  C:4A40H         LINE#         151
  C:4A42H         LINE#         152
  C:4A42H         LINE#         153
  C:4A42H         LINE#         154
  C:4A45H         LINE#         158
  C:4A45H         LINE#         160
  C:4A4EH         LINE#         161
  C:4A4EH         LINE#         163
  C:4A54H         LINE#         164
  C:4A67H         LINE#         165
  C:4A67H         LINE#         166
  C:4A6AH         LINE#         168
  C:4A6AH         LINE#         169
  C:4A7FH         LINE#         170
  C:4A85H         LINE#         171
  C:4A85H         LINE#         173
  C:4A88H         LINE#         177
  C:4A88H         LINE#         179
  C:4AA0H         LINE#         180
  C:4AA6H         LINE#         181
  C:4AA9H         LINE#         182
  C:4AA9H         LINE#         184
  C:4AC1H         LINE#         185
  C:4AC1H         LINE#         186
  C:4AC2H         LINE#         187
  C:4ACFH         LINE#         188
  C:4ACFH         LINE#         189
  C:4ADCH         LINE#         190
  C:4ADFH         LINE#         191
BL51 BANKED LINKER/LOCATER V6.22.2.0                                                  07/27/2021  14:31:11  PAGE 75


  C:4AEDH         LINE#         192
  C:4AEDH         LINE#         193
  C:4AEFH         LINE#         194
  C:4AF4H         LINE#         195
  C:4AF6H         LINE#         196
  C:4AFAH         LINE#         198
  C:4AFCH         LINE#         200
  C:4AFCH         LINE#         201
  C:4AFCH         LINE#         202
  C:4AFCH         LINE#         203
  C:4AFEH         LINE#         205
  C:4AFEH         LINE#         206
  C:4AFEH         LINE#         207
  C:4AFEH         LINE#         209
  C:4B00H         LINE#         211
  C:4B00H         LINE#         212
  C:4B06H         LINE#         213
  C:4B06H         LINE#         215
  C:4B08H         LINE#         220
  C:4B08H         LINE#         221
  C:4B0DH         LINE#         222
  C:4B0DH         LINE#         223
  C:4B0DH         LINE#         224
  C:4B0DH         LINE#         229
  C:4B10H         LINE#         230
  C:4B10H         LINE#         231
  C:4B12H         LINE#         233
  C:4B18H         LINE#         234
  C:4B18H         LINE#         235
  C:4B22H         LINE#         236
  C:4B24H         LINE#         237
  C:4B26H         LINE#         238
  C:4B28H         LINE#         240
  C:4B28H         LINE#         241
  C:4B2AH         LINE#         242
  C:4B2AH         LINE#         243
  C:4B2AH         LINE#         245
  -------         ENDPROC       COM_ISR
  -------         PROC          COM_INITIALIZE
  C:7E13H         LINE#         261
  C:7E1AH         LINE#         262
  C:7E1AH         LINE#         266
  C:7E1DH         LINE#         271
  C:7E20H         LINE#         272
  C:7E22H         LINE#         274
  C:7E24H         LINE#         275
  C:7E26H         LINE#         280
  C:7E2AH         LINE#         281
  C:7E2CH         LINE#         282
  C:7E2EH         LINE#         284
  C:7E30H         LINE#         285
  C:7E32H         LINE#         286
  C:7E34H         LINE#         288
  C:7E36H         LINE#         289
  C:7E38H         LINE#         290
  -------         ENDPROC       COM_INITIALIZE
  -------         PROC          COM_BAUDRATE
BL51 BANKED LINKER/LOCATER V6.22.2.0                                                  07/27/2021  14:31:11  PAGE 76


  C:7E65H         LINE#         296
  C:7E6CH         LINE#         298
  C:7E6CH         LINE#         302
  C:7E6EH         LINE#         303
  C:7E71H         LINE#         304
  C:7E73H         LINE#         309
  C:7E75H         LINE#         310
  C:7E77H         LINE#         312
  C:7E7AH         LINE#         314
  C:7E7DH         LINE#         315
  C:7E80H         LINE#         317
  C:7E83H         LINE#         318
  C:7E86H         LINE#         319
  C:7E88H         LINE#         320
  -------         ENDPROC       COM_BAUDRATE
  -------         PROC          _COM_PUTCHAR
  X:00A0H         SYMBOL        c
  C:7D05H         LINE#         326
  C:7D11H         LINE#         328
  C:7D11H         LINE#         332
  C:7D1EH         LINE#         333
  C:7D22H         LINE#         339
  C:7D30H         LINE#         340
  C:7D32H         LINE#         342
  C:7D35H         LINE#         343
  C:7D35H         LINE#         344
  C:7D37H         LINE#         345
  C:7D39H         LINE#         346
  C:7D39H         LINE#         348
  C:7D3BH         LINE#         349
  -------         ENDPROC       _COM_PUTCHAR
  -------         PROC          COM_GETCHAR
  C:7EB4H         LINE#         355
  C:7EBBH         LINE#         356
  C:7EBBH         LINE#         357
  C:7EC1H         LINE#         358
  C:7EC7H         LINE#         360
  C:7ED5H         LINE#         361
  -------         ENDPROC       COM_GETCHAR
  -------         PROC          COM_RBUFLEN
  C:80BEH         LINE#         367
  C:80C5H         LINE#         368
  C:80C5H         LINE#         369
  C:80CBH         LINE#         370
  -------         ENDPROC       COM_RBUFLEN
  -------         PROC          COM_TBUFLEN
  C:80D0H         LINE#         376
  C:80D7H         LINE#         377
  C:80D7H         LINE#         378
  C:80DDH         LINE#         379
  -------         ENDPROC       COM_TBUFLEN
  -------         ENDMOD        UART

  -------         MODULE        VERIFICADOR
  C:0000H         SYMBOL        _ICE_DUMMY_
  D:0080H         PUBLIC        P0
  D:0090H         PUBLIC        P1
BL51 BANKED LINKER/LOCATER V6.22.2.0                                                  07/27/2021  14:31:11  PAGE 77


  C:522CH         PUBLIC        Secuencia_inicio_expedidor
  B:0080H.3       PUBLIC        Atascado
  B:0090H.7       PUBLIC        lock
  C:65CEH         PUBLIC        error_rx_pto
  C:7EDAH         PUBLIC        Trama_Validacion_P_N
  C:0026H         PUBLIC        SecuenciaExpedidor
  X:0189H         SYMBOL        Estado
  -------         PROC          TRAMA_VALIDACION_P_N
  -------         DO            
  D:0007H         SYMBOL        Trama_Validacion_P_N
  -------         ENDDO         
  C:7EDAH         LINE#         276
  C:7EDAH         LINE#         277
  C:7EDAH         LINE#         278
  C:7EDCH         LINE#         280
  C:7EE7H         LINE#         281
  C:7EE7H         LINE#         282
  C:7EEAH         LINE#         283
  C:7EEAH         LINE#         284
  C:7EECH         LINE#         287
  C:7EF4H         LINE#         288
  C:7EF4H         LINE#         290
  C:7EF6H         LINE#         292
  C:7EF7H         LINE#         293
  C:7EF8H         LINE#         294
  C:7EF8H         LINE#         296
  C:7EF8H         LINE#         298
  C:7EF8H         LINE#         300
  C:7EF8H         LINE#         302
  C:7EFAH         LINE#         304
  C:7EFAH         LINE#         305
  C:7EFBH         LINE#         307
  C:7EFBH         LINE#         309
  C:7EFDH         LINE#         311
  C:7EFDH         LINE#         313
  C:7EFDH         LINE#         315
  C:7EFDH         LINE#         316
  -------         ENDPROC       TRAMA_VALIDACION_P_N
  -------         PROC          ERROR_RX_PTO
  -------         DO            
  X:0153H         SYMBOL        cont_error_rx
  X:000EH         SYMBOL        error_rx_pto
  -------         ENDDO         
  C:65CEH         LINE#         333
  C:65CEH         LINE#         334
  C:65CEH         LINE#         336
  C:65D3H         LINE#         340
  C:65DCH         LINE#         341
  C:65E4H         LINE#         342
  C:65EDH         LINE#         343
  C:65F5H         LINE#         344
  C:65FEH         LINE#         345
  C:6601H         LINE#         347
  C:6601H         LINE#         348
  C:6607H         LINE#         349
  C:6611H         LINE#         350
  C:6611H         LINE#         351
BL51 BANKED LINKER/LOCATER V6.22.2.0                                                  07/27/2021  14:31:11  PAGE 78


  C:6613H         LINE#         352
  C:661AH         LINE#         353
  C:661FH         LINE#         354
  C:6625H         LINE#         355
  C:6629H         LINE#         356
  C:662BH         LINE#         357
  C:6631H         LINE#         358
  C:6631H         LINE#         359
  C:6633H         LINE#         361
  C:6633H         LINE#         362
  C:6639H         LINE#         363
  C:6639H         LINE#         364
  C:6639H         LINE#         365
  C:663BH         LINE#         367
  C:663BH         LINE#         368
  C:6649H         LINE#         369
  C:665CH         LINE#         370
  C:665CH         LINE#         371
  C:665DH         LINE#         372
  C:6663H         LINE#         373
  C:6668H         LINE#         374
  C:666AH         LINE#         375
  C:666AH         LINE#         376
  C:666CH         LINE#         378
  C:666CH         LINE#         379
  C:666DH         LINE#         380
  C:6671H         LINE#         381
  C:6677H         LINE#         382
  C:6677H         LINE#         383
  C:6677H         LINE#         384
  C:667CH         LINE#         385
  -------         ENDPROC       ERROR_RX_PTO
  -------         PROC          SECUENCIA_INICIO_EXPEDIDOR
  -------         DO            
  X:0001H         SYMBOL        temp
  -------         ENDDO         
  C:522CH         LINE#         392
  C:522CH         LINE#         393
  C:522CH         LINE#         397
  C:524CH         LINE#         398
  C:524CH         LINE#         399
  C:524CH         LINE#         401
  C:524EH         LINE#         402
  C:5253H         LINE#         403
  C:5259H         LINE#         406
  C:525BH         LINE#         407
  C:525BH         LINE#         418
  C:525BH         LINE#         420
  C:5269H         LINE#         421
  C:5269H         LINE#         422
  C:5275H         LINE#         423
  C:5275H         LINE#         424
  C:527BH         LINE#         425
  C:527EH         LINE#         426
  C:5286H         LINE#         427
  C:5286H         LINE#         428
  C:528DH         LINE#         429
BL51 BANKED LINKER/LOCATER V6.22.2.0                                                  07/27/2021  14:31:11  PAGE 79


  C:52A1H         LINE#         430
  C:52A1H         LINE#         431
  C:52A3H         LINE#         433
  C:52A3H         LINE#         435
  C:52AAH         LINE#         436
  C:52B0H         LINE#         437
  C:52B0H         LINE#         438
  C:52B3H         LINE#         440
  C:52B3H         LINE#         441
  C:52BCH         LINE#         442
  C:52D0H         LINE#         443
  C:52D6H         LINE#         444
  C:52D6H         LINE#         445
  C:52D9H         LINE#         446
  C:52D9H         LINE#         452
  C:52D9H         LINE#         454
  C:52DCH         LINE#         455
  C:52E2H         LINE#         459
  C:52E4H         LINE#         460
  C:52E4H         LINE#         470
  C:52E4H         LINE#         472
  C:52F2H         LINE#         473
  C:52F2H         LINE#         474
  C:52FEH         LINE#         475
  C:52FEH         LINE#         476
  C:5304H         LINE#         477
  C:5306H         LINE#         478
  C:530EH         LINE#         479
  C:530EH         LINE#         480
  C:5315H         LINE#         481
  C:5329H         LINE#         482
  C:5329H         LINE#         483
  C:532BH         LINE#         485
  C:532BH         LINE#         488
  C:5332H         LINE#         489
  C:5338H         LINE#         490
  C:5338H         LINE#         491
  C:533AH         LINE#         493
  C:533AH         LINE#         494
  C:5343H         LINE#         495
  C:5357H         LINE#         496
  C:535CH         LINE#         497
  C:535CH         LINE#         499
  C:535EH         LINE#         500
  C:535EH         LINE#         506
  C:535EH         LINE#         508
  C:5364H         LINE#         509
  C:5364H         LINE#         512
  C:5364H         LINE#         513
  C:536BH         LINE#         514
  C:536BH         LINE#         515
  C:536BH         LINE#         516
  -------         ENDPROC       SECUENCIA_INICIO_EXPEDIDOR
  -------         PROC          SECUENCIAEXPEDIDOR
  -------         DO            
  X:0001H         SYMBOL        temp
  X:0002H         SYMBOL        tiempo
BL51 BANKED LINKER/LOCATER V6.22.2.0                                                  07/27/2021  14:31:11  PAGE 80


  X:0004H         SYMBOL        Estado_Tiempo
  X:0155H         SYMBOL        buffer_S1_B0
  X:0166H         SYMBOL        buffer_S1_B1
  X:0177H         SYMBOL        buffer_S1_B2
  X:0008H         SYMBOL        clock_temp
  X:0188H         SYMBOL        contador
  -------         ENDDO         
  C:0026H         LINE#         528
  C:0026H         LINE#         529
  C:0026H         LINE#         538
  C:0079H         LINE#         539
  C:0079H         LINE#         542
  C:0079H         LINE#         544
  C:0084H         LINE#         545
  C:0084H         LINE#         547
  C:0086H         LINE#         548
  C:008BH         LINE#         549
  C:008BH         LINE#         551
  C:008BH         LINE#         553
  C:008DH         LINE#         563
  C:008DH         LINE#         565
  C:0097H         LINE#         566
  C:0097H         LINE#         567
  C:009FH         LINE#         568
  C:009FH         LINE#         569
  C:00A4H         LINE#         570
  C:00A5H         LINE#         571
  C:00ABH         LINE#         572
  C:00ABH         LINE#         573
  C:00B1H         LINE#         574
  C:00B1H         LINE#         575
  C:00B1H         LINE#         576
  C:00B4H         LINE#         578
  C:00B4H         LINE#         581
  C:00C7H         LINE#         582
  C:00C7H         LINE#         583
  C:00CDH         LINE#         584
  C:00CEH         LINE#         585
  C:00E6H         LINE#         586
  C:00E6H         LINE#         587
  C:00E6H         LINE#         588
  C:00E6H         LINE#         590
  C:00E6H         LINE#         591
  C:00E9H         LINE#         593
  C:00E9H         LINE#         594
  C:00EFH         LINE#         595
  C:00EFH         LINE#         596
  C:00EFH         LINE#         597
  C:00EFH         LINE#         599
  C:00F2H         LINE#         605
  C:00F2H         LINE#         606
  C:00FDH         LINE#         607
  C:00FDH         LINE#         608
  C:0102H         LINE#         609
  C:0102H         LINE#         610
  C:0102H         LINE#         611
  C:0104H         LINE#         621
BL51 BANKED LINKER/LOCATER V6.22.2.0                                                  07/27/2021  14:31:11  PAGE 81


  C:0104H         LINE#         623
  C:010EH         LINE#         624
  C:010EH         LINE#         625
  C:0116H         LINE#         626
  C:0116H         LINE#         627
  C:0116H         LINE#         628
  C:0118H         LINE#         629
  C:011EH         LINE#         630
  C:011EH         LINE#         631
  C:0124H         LINE#         632
  C:0124H         LINE#         633
  C:0124H         LINE#         634
  C:0127H         LINE#         636
  C:0127H         LINE#         640
  C:013AH         LINE#         641
  C:013AH         LINE#         642
  C:0140H         LINE#         643
  C:0141H         LINE#         644
  C:0159H         LINE#         645
  C:0159H         LINE#         646
  C:0159H         LINE#         647
  C:0159H         LINE#         649
  C:0159H         LINE#         650
  C:015CH         LINE#         652
  C:015CH         LINE#         653
  C:0165H         LINE#         654
  C:0179H         LINE#         655
  C:0181H         LINE#         656
  C:0181H         LINE#         658
  C:018AH         LINE#         659
  C:0190H         LINE#         660
  C:0196H         LINE#         661
  C:019CH         LINE#         662
  C:019CH         LINE#         663
  C:01A2H         LINE#         664
  C:01A2H         LINE#         665
  C:01A5H         LINE#         666
  C:01AEH         LINE#         667
  C:01B3H         LINE#         668
  C:01B8H         LINE#         670
  C:01B8H         LINE#         671
  C:01B8H         LINE#         672
  C:01BEH         LINE#         673
  C:01CDH         LINE#         674
  C:01CDH         LINE#         675
  C:01D3H         LINE#         678
  C:01D4H         LINE#         679
  C:01DBH         LINE#         680
  C:01DBH         LINE#         682
  C:01E4H         LINE#         683
  C:01E4H         LINE#         686
  C:01E7H         LINE#         687
  C:01F2H         LINE#         688
  C:01F2H         LINE#         689
  C:01FBH         LINE#         692
  C:0203H         LINE#         693
  C:0203H         LINE#         694
BL51 BANKED LINKER/LOCATER V6.22.2.0                                                  07/27/2021  14:31:11  PAGE 82


  C:020AH         LINE#         695
  C:020DH         LINE#         697
  C:020DH         LINE#         698
  C:020FH         LINE#         700
  C:020FH         LINE#         701
  C:0216H         LINE#         702
  C:021BH         LINE#         703
  C:0220H         LINE#         704
  C:0220H         LINE#         706
  C:0220H         LINE#         708
  C:0220H         LINE#         710
  C:0220H         LINE#         712
  C:0223H         LINE#         725
  C:0223H         LINE#         727
  C:022DH         LINE#         728
  C:022DH         LINE#         729
  C:0235H         LINE#         730
  C:0235H         LINE#         731
  C:023BH         LINE#         732
  C:023CH         LINE#         733
  C:0244H         LINE#         734
  C:0244H         LINE#         736
  C:024BH         LINE#         737
  C:025FH         LINE#         738
  C:0265H         LINE#         740
  C:0266H         LINE#         742
  C:0266H         LINE#         743
  C:026DH         LINE#         744
  C:0272H         LINE#         745
  C:0277H         LINE#         746
  C:0277H         LINE#         748
  C:0277H         LINE#         749
  C:027AH         LINE#         751
  C:027AH         LINE#         752
  C:0282H         LINE#         753
  C:0282H         LINE#         754
  C:0289H         LINE#         755
  C:0289H         LINE#         756
  C:0290H         LINE#         757
  C:02A4H         LINE#         758
  C:02A7H         LINE#         759
  C:02A7H         LINE#         761
  C:02A9H         LINE#         762
  C:02A9H         LINE#         763
  C:02B0H         LINE#         764
  C:02C4H         LINE#         765
  C:02C9H         LINE#         766
  C:02CEH         LINE#         767
  C:02D3H         LINE#         768
  C:02D3H         LINE#         770
  C:02D3H         LINE#         771
  C:02D6H         LINE#         773
  C:02D6H         LINE#         774
  C:02DFH         LINE#         775
  C:02F3H         LINE#         776
  C:02F8H         LINE#         777
  C:02FDH         LINE#         778
BL51 BANKED LINKER/LOCATER V6.22.2.0                                                  07/27/2021  14:31:11  PAGE 83


  C:0302H         LINE#         779
  C:0302H         LINE#         781
  C:0302H         LINE#         783
  C:0302H         LINE#         785
  C:0305H         LINE#         793
  C:0305H         LINE#         795
  C:030FH         LINE#         796
  C:030FH         LINE#         797
  C:0317H         LINE#         798
  C:0317H         LINE#         799
  C:031DH         LINE#         800
  C:031EH         LINE#         801
  C:0326H         LINE#         802
  C:0326H         LINE#         803
  C:032DH         LINE#         804
  C:0341H         LINE#         805
  C:0341H         LINE#         806
  C:0343H         LINE#         808
  C:0343H         LINE#         809
  C:034AH         LINE#         810
  C:034AH         LINE#         811
  C:034AH         LINE#         812
  C:034DH         LINE#         814
  C:034DH         LINE#         815
  C:0356H         LINE#         816
  C:036AH         LINE#         818
  C:036AH         LINE#         819
  C:036AH         LINE#         822
  C:036CH         LINE#         828
  C:036CH         LINE#         830
  C:0373H         LINE#         831
  C:0373H         LINE#         833
  C:0375H         LINE#         839
  C:0375H         LINE#         841
  C:037FH         LINE#         842
  C:037FH         LINE#         843
  C:0387H         LINE#         844
  C:0387H         LINE#         845
  C:0387H         LINE#         846
  C:0389H         LINE#         847
  C:038FH         LINE#         848
  C:038FH         LINE#         849
  C:0395H         LINE#         850
  C:0395H         LINE#         851
  C:0395H         LINE#         852
  C:0398H         LINE#         854
  C:0398H         LINE#         858
  C:03ABH         LINE#         859
  C:03ABH         LINE#         860
  C:03B1H         LINE#         861
  C:03B2H         LINE#         862
  C:03CAH         LINE#         863
  C:03CAH         LINE#         864
  C:03D0H         LINE#         865
  C:03D0H         LINE#         867
  C:03D0H         LINE#         868
  C:03D1H         LINE#         870
BL51 BANKED LINKER/LOCATER V6.22.2.0                                                  07/27/2021  14:31:11  PAGE 84


  C:03D1H         LINE#         871
  C:03DAH         LINE#         872
  C:03EEH         LINE#         874
  C:03FEH         LINE#         875
  C:03FEH         LINE#         877
  C:0410H         LINE#         878
  C:0410H         LINE#         879
  C:0429H         LINE#         880
  C:0431H         LINE#         881
  C:0465H         LINE#         882
  C:0465H         LINE#         884
  C:046EH         LINE#         885
  C:0476H         LINE#         886
  C:047FH         LINE#         888
  C:0488H         LINE#         889
  C:0490H         LINE#         890
  C:0499H         LINE#         894
  C:04A1H         LINE#         895
  C:04A1H         LINE#         896
  C:04AAH         LINE#         897
  C:04B2H         LINE#         898
  C:04BBH         LINE#         901
  C:04BBH         LINE#         903
  C:04BEH         LINE#         905
  C:04BEH         LINE#         906
  C:04C3H         LINE#         907
  C:04C8H         LINE#         908
  C:04C8H         LINE#         909
  C:04C8H         LINE#         910
  C:04CBH         LINE#         912
  C:04CBH         LINE#         913
  C:04D0H         LINE#         914
  C:04D5H         LINE#         915
  C:04D5H         LINE#         916
  C:04D5H         LINE#         917
  C:04D8H         LINE#         919
  C:04D8H         LINE#         920
  C:04DDH         LINE#         921
  C:04E2H         LINE#         922
  C:04E2H         LINE#         923
  C:04E2H         LINE#         925
  C:04E2H         LINE#         926
  C:04E5H         LINE#         931
  C:04E5H         LINE#         933
  C:04ECH         LINE#         934
  C:04ECH         LINE#         935
  C:04EEH         LINE#         941
  C:04EEH         LINE#         943
  C:04F8H         LINE#         944
  C:04F8H         LINE#         945
  C:0500H         LINE#         946
  C:0500H         LINE#         947
  C:0500H         LINE#         948
  C:0502H         LINE#         949
  C:0508H         LINE#         950
  C:0508H         LINE#         951
  C:050EH         LINE#         952
BL51 BANKED LINKER/LOCATER V6.22.2.0                                                  07/27/2021  14:31:11  PAGE 85


  C:050EH         LINE#         953
  C:050EH         LINE#         954
  C:0511H         LINE#         956
  C:0511H         LINE#         959
  C:0524H         LINE#         960
  C:0524H         LINE#         961
  C:052AH         LINE#         962
  C:052BH         LINE#         963
  C:0543H         LINE#         964
  C:0543H         LINE#         965
  C:0549H         LINE#         966
  C:0549H         LINE#         968
  C:0549H         LINE#         969
  C:054AH         LINE#         971
  C:054AH         LINE#         972
  C:0553H         LINE#         973
  C:0567H         LINE#         974
  C:0579H         LINE#         975
  C:0579H         LINE#         976
  C:0592H         LINE#         977
  C:059AH         LINE#         979
  C:05A6H         LINE#         980
  C:05A6H         LINE#         981
  C:05AFH         LINE#         982
  C:05B4H         LINE#         983
  C:05B9H         LINE#         984
  C:05BEH         LINE#         985
  C:05BEH         LINE#         986
  C:05C1H         LINE#         987
  C:05C1H         LINE#         991
  C:05CCH         LINE#         992
  C:05CCH         LINE#         993
  C:05D2H         LINE#         994
  C:05D2H         LINE#         995
  C:05D2H         LINE#         997
  C:05D2H         LINE#         998
  C:05D5H         LINE#         999
  C:05D5H         LINE#         1000
  C:05E4H         LINE#         1001
  C:05E4H         LINE#         1002
  C:05EDH         LINE#         1005
  C:0611H         LINE#         1006
  C:0611H         LINE#         1007
  C:0611H         LINE#         1009
  C:0611H         LINE#         1010
  C:0614H         LINE#         1011
  C:0614H         LINE#         1013
  C:0614H         LINE#         1014
  C:061DH         LINE#         1015
  C:0622H         LINE#         1016
  C:0627H         LINE#         1017
  C:0627H         LINE#         1018
  C:062AH         LINE#         1019
  C:062AH         LINE#         1022
  C:062AH         LINE#         1023
  C:062AH         LINE#         1028
  C:0633H         LINE#         1029
BL51 BANKED LINKER/LOCATER V6.22.2.0                                                  07/27/2021  14:31:11  PAGE 86


  C:0633H         LINE#         1031
  C:0642H         LINE#         1032
  C:0642H         LINE#         1033
  C:0645H         LINE#         1034
  C:064EH         LINE#         1035
  C:0656H         LINE#         1036
  C:065FH         LINE#         1038
  C:066DH         LINE#         1039
  C:0673H         LINE#         1040
  C:0684H         LINE#         1042
  C:068DH         LINE#         1043
  C:06B3H         LINE#         1044
  C:06BCH         LINE#         1045
  C:06C5H         LINE#         1046
  C:06C8H         LINE#         1050
  C:06D0H         LINE#         1051
  C:06D0H         LINE#         1052
  C:06D9H         LINE#         1053
  C:06E2H         LINE#         1055
  C:06E4H         LINE#         1057
  C:06E4H         LINE#         1058
  C:06F0H         LINE#         1059
  C:06F0H         LINE#         1060
  C:06F9H         LINE#         1061
  C:06FBH         LINE#         1063
  C:06FBH         LINE#         1064
  C:06FEH         LINE#         1065
  C:06FEH         LINE#         1067
  C:06FEH         LINE#         1068
  C:0707H         LINE#         1069
  C:070CH         LINE#         1070
  C:0711H         LINE#         1071
  C:0717H         LINE#         1072
  C:0717H         LINE#         1073
  C:0717H         LINE#         1074
  C:0717H         LINE#         1075
  C:0719H         LINE#         1080
  C:0723H         LINE#         1081
  C:0723H         LINE#         1082
  C:072CH         LINE#         1083
  C:0735H         LINE#         1084
  C:073EH         LINE#         1085
  C:074FH         LINE#         1087
  C:074FH         LINE#         1091
  C:075DH         LINE#         1092
  C:0761H         LINE#         1093
  C:0761H         LINE#         1094
  C:076AH         LINE#         1095
  C:076FH         LINE#         1096
  C:0774H         LINE#         1097
  C:0779H         LINE#         1099
  C:0779H         LINE#         1101
  C:077CH         LINE#         1102
  C:0786H         LINE#         1103
  C:0786H         LINE#         1104
  C:078DH         LINE#         1105
  C:0792H         LINE#         1106
BL51 BANKED LINKER/LOCATER V6.22.2.0                                                  07/27/2021  14:31:11  PAGE 87


  C:0797H         LINE#         1107
  C:079CH         LINE#         1108
  C:079CH         LINE#         1109
  C:079FH         LINE#         1111
  C:079FH         LINE#         1112
  C:07A6H         LINE#         1114
  C:07A6H         LINE#         1115
  C:07A6H         LINE#         1117
  C:07A6H         LINE#         1122
  C:07A8H         LINE#         1123
  C:07A8H         LINE#         1125
  C:07AFH         LINE#         1126
  C:07AFH         LINE#         1127
  C:07B1H         LINE#         1133
  C:07B1H         LINE#         1135
  C:07BBH         LINE#         1136
  C:07BBH         LINE#         1137
  C:07C3H         LINE#         1138
  C:07C3H         LINE#         1139
  C:07C3H         LINE#         1140
  C:07C5H         LINE#         1141
  C:07CBH         LINE#         1142
  C:07CBH         LINE#         1143
  C:07D1H         LINE#         1144
  C:07D1H         LINE#         1145
  C:07D1H         LINE#         1146
  C:07D4H         LINE#         1148
  C:07D4H         LINE#         1151
  C:07E7H         LINE#         1152
  C:07E7H         LINE#         1153
  C:07EDH         LINE#         1154
  C:07EEH         LINE#         1155
  C:0806H         LINE#         1156
  C:0806H         LINE#         1157
  C:080CH         LINE#         1158
  C:080CH         LINE#         1159
  C:080CH         LINE#         1160
  C:080DH         LINE#         1162
  C:080DH         LINE#         1163
  C:0816H         LINE#         1164
  C:082AH         LINE#         1166
  C:083DH         LINE#         1167
  C:083DH         LINE#         1169
  C:0856H         LINE#         1170
  C:0863H         LINE#         1171
  C:0863H         LINE#         1172
  C:0863H         LINE#         1173
  C:0863H         LINE#         1174
  C:086BH         LINE#         1175
  C:0874H         LINE#         1176
  C:087DH         LINE#         1177
  C:0886H         LINE#         1181
  C:088BH         LINE#         1182
  C:08A5H         LINE#         1183
  C:08AEH         LINE#         1184
  C:08AEH         LINE#         1185
  C:08C5H         LINE#         1186
BL51 BANKED LINKER/LOCATER V6.22.2.0                                                  07/27/2021  14:31:11  PAGE 88


  C:08C5H         LINE#         1190
  C:08C5H         LINE#         1191
  C:08C5H         LINE#         1192
  C:08C7H         LINE#         1199
  C:08C7H         LINE#         1202
  C:08D4H         LINE#         1203
  C:08D4H         LINE#         1205
  C:08D6H         LINE#         1210
  C:08D6H         LINE#         1211
  C:08E0H         LINE#         1212
  C:08E0H         LINE#         1213
  C:08E8H         LINE#         1214
  C:08E8H         LINE#         1215
  C:08E8H         LINE#         1216
  C:08EAH         LINE#         1217
  C:08F0H         LINE#         1218
  C:08F0H         LINE#         1219
  C:08F6H         LINE#         1220
  C:08F6H         LINE#         1221
  C:08F6H         LINE#         1222
  C:08F9H         LINE#         1224
  C:08F9H         LINE#         1228
  C:090CH         LINE#         1229
  C:090CH         LINE#         1230
  C:0912H         LINE#         1231
  C:0913H         LINE#         1232
  C:092BH         LINE#         1233
  C:092BH         LINE#         1234
  C:0931H         LINE#         1235
  C:0931H         LINE#         1239
  C:0931H         LINE#         1240
  C:0932H         LINE#         1242
  C:0932H         LINE#         1244
  C:093BH         LINE#         1245
  C:094FH         LINE#         1246
  C:094FH         LINE#         1247
  C:094FH         LINE#         1248
  C:0951H         LINE#         1249
  C:0951H         LINE#         1250
  C:095EH         LINE#         1252
  C:095EH         LINE#         1253
  C:0960H         LINE#         1256
  C:0960H         LINE#         1258
  C:096AH         LINE#         1259
  C:096AH         LINE#         1260
  C:0972H         LINE#         1261
  C:0972H         LINE#         1262
  C:0972H         LINE#         1263
  C:0974H         LINE#         1264
  C:097AH         LINE#         1265
  C:097AH         LINE#         1266
  C:0980H         LINE#         1267
  C:0980H         LINE#         1268
  C:0980H         LINE#         1269
  C:0983H         LINE#         1271
  C:0983H         LINE#         1274
  C:0996H         LINE#         1275
BL51 BANKED LINKER/LOCATER V6.22.2.0                                                  07/27/2021  14:31:11  PAGE 89


  C:0996H         LINE#         1276
  C:099CH         LINE#         1277
  C:099DH         LINE#         1278
  C:09B5H         LINE#         1279
  C:09B5H         LINE#         1280
  C:09BBH         LINE#         1281
  C:09BBH         LINE#         1284
  C:09BBH         LINE#         1285
  C:09BCH         LINE#         1287
  C:09BCH         LINE#         1290
  C:09BEH         LINE#         1291
  C:09C7H         LINE#         1292
  C:09DBH         LINE#         1293
  C:09E0H         LINE#         1294
  C:09E5H         LINE#         1295
  C:09EAH         LINE#         1297
  C:09F3H         LINE#         1301
  C:09F3H         LINE#         1302
  C:09F3H         LINE#         1303
  C:09F5H         LINE#         1305
  C:09F5H         LINE#         1307
  C:09FAH         LINE#         1308
  C:0A00H         LINE#         1309
  C:0A02H         LINE#         1310
  C:0A03H         LINE#         1319
  C:0A03H         LINE#         1321
  C:0A0DH         LINE#         1322
  C:0A0DH         LINE#         1323
  C:0A12H         LINE#         1324
  C:0A12H         LINE#         1326
  C:0A1AH         LINE#         1327
  C:0A1AH         LINE#         1328
  C:0A1CH         LINE#         1329
  C:0A25H         LINE#         1331
  C:0A25H         LINE#         1333
  C:0A25H         LINE#         1336
  C:0A27H         LINE#         1337
  C:0A2FH         LINE#         1338
  C:0A2FH         LINE#         1339
  C:0A35H         LINE#         1340
  C:0A35H         LINE#         1341
  C:0A35H         LINE#         1342
  C:0A38H         LINE#         1344
  C:0A38H         LINE#         1350
  C:0A4BH         LINE#         1351
  C:0A4BH         LINE#         1352
  C:0A51H         LINE#         1353
  C:0A52H         LINE#         1354
  C:0A6AH         LINE#         1355
  C:0A6AH         LINE#         1357
  C:0A70H         LINE#         1358
  C:0A70H         LINE#         1362
  C:0A70H         LINE#         1363
  C:0A71H         LINE#         1365
  C:0A71H         LINE#         1367
  C:0A73H         LINE#         1368
  C:0A7CH         LINE#         1369
BL51 BANKED LINKER/LOCATER V6.22.2.0                                                  07/27/2021  14:31:11  PAGE 90


  C:0A90H         LINE#         1371
  C:0A92H         LINE#         1372
  C:0A98H         LINE#         1373
  C:0A9DH         LINE#         1375
  C:0A9DH         LINE#         1378
  C:0A9EH         LINE#         1382
  C:0A9EH         LINE#         1383
  C:0AA5H         LINE#         1384
  C:0AA5H         LINE#         1385
  C:0AA7H         LINE#         1393
  C:0AA7H         LINE#         1395
  C:0AB1H         LINE#         1396
  C:0AB1H         LINE#         1397
  C:0AB9H         LINE#         1398
  C:0AB9H         LINE#         1399
  C:0AB9H         LINE#         1400
  C:0ABBH         LINE#         1401
  C:0AC1H         LINE#         1402
  C:0AC1H         LINE#         1403
  C:0ACAH         LINE#         1404
  C:0ADEH         LINE#         1405
  C:0ADEH         LINE#         1406
  C:0AE1H         LINE#         1408
  C:0AE1H         LINE#         1411
  C:0AF4H         LINE#         1412
  C:0AF4H         LINE#         1413
  C:0AFAH         LINE#         1414
  C:0AFBH         LINE#         1415
  C:0B13H         LINE#         1416
  C:0B13H         LINE#         1417
  C:0B19H         LINE#         1418
  C:0B19H         LINE#         1420
  C:0B19H         LINE#         1421
  C:0B1AH         LINE#         1423
  C:0B1AH         LINE#         1425
  C:0B23H         LINE#         1426
  C:0B37H         LINE#         1428
  C:0B4AH         LINE#         1429
  C:0B4AH         LINE#         1431
  C:0B63H         LINE#         1432
  C:0B70H         LINE#         1433
  C:0B70H         LINE#         1434
  C:0B70H         LINE#         1435
  C:0B70H         LINE#         1436
  C:0B78H         LINE#         1437
  C:0B93H         LINE#         1438
  C:0B99H         LINE#         1439
  C:0B99H         LINE#         1440
  C:0B9AH         LINE#         1446
  C:0B9AH         LINE#         1447
  C:0B9FH         LINE#         1448
  C:0B9FH         LINE#         1449
  C:0BA1H         LINE#         1452
  C:0BA1H         LINE#         1453
  C:0BABH         LINE#         1454
  C:0BABH         LINE#         1455
  C:0BB0H         LINE#         1456
BL51 BANKED LINKER/LOCATER V6.22.2.0                                                  07/27/2021  14:31:11  PAGE 91


  C:0BB0H         LINE#         1457
  C:0BB6H         LINE#         1458
  C:0BB7H         LINE#         1459
  C:0BB7H         LINE#         1460
  C:0BB9H         LINE#         1462
  C:0BB9H         LINE#         1463
  C:0BBFH         LINE#         1464
  C:0BBFH         LINE#         1466
  C:0BC0H         LINE#         1468
  C:0BC0H         LINE#         1469
  C:0BC5H         LINE#         1470
  C:0BCBH         LINE#         1472
  C:0BCBH         LINE#         1473
  C:0BD5H         LINE#         1474
  C:0BD5H         LINE#         1475
  C:0BDAH         LINE#         1476
  C:0BDAH         LINE#         1477
  C:0BE0H         LINE#         1478
  C:0BE1H         LINE#         1479
  C:0BE1H         LINE#         1480
  C:0BE3H         LINE#         1482
  C:0BE3H         LINE#         1483
  C:0BE3H         LINE#         1484
  C:0BE3H         LINE#         1486
  C:0BE5H         LINE#         1492
  C:0BE5H         LINE#         1493
  C:0BEAH         LINE#         1494
  C:0BEAH         LINE#         1496
  C:0BEAH         LINE#         1497
  -------         ENDPROC       SECUENCIAEXPEDIDOR
  -------         ENDMOD        VERIFICADOR

  -------         MODULE        LINTECH
  C:0000H         SYMBOL        _ICE_DUMMY_
  C:69BAH         PUBLIC        _Inicializa
  C:6227H         PUBLIC        _RD_MF
  C:667DH         PUBLIC        Dwload_EEprom
  C:6CBDH         PUBLIC        _Card_Insercion
  C:5DE3H         PUBLIC        _Mov_Card
  C:50E3H         PUBLIC        _WR_MF
  C:6D4EH         PUBLIC        LoadVerify_EEprom
  C:74B0H         PUBLIC        _Check_Status
  C:73B3H         PUBLIC        Aut_Card_check_Status
  -------         PROC          _INICIALIZA
  X:0002H         SYMBOL        TipoMovimiento
  -------         DO            
  D:0003H         SYMBOL        j
  X:0003H         SYMBOL        bcc
  X:0004H         SYMBOL        g_scArrTxComSoft
  -------         ENDDO         
  C:69BAH         LINE#         101
  C:69BFH         LINE#         102
  C:69BFH         LINE#         105
  C:69C2H         LINE#         106
  C:69D8H         LINE#         107
  C:69D8H         LINE#         109
  C:69E1H         LINE#         111
BL51 BANKED LINKER/LOCATER V6.22.2.0                                                  07/27/2021  14:31:11  PAGE 92


  C:69E7H         LINE#         112
  C:69EAH         LINE#         113
  C:69ECH         LINE#         114
  C:69F0H         LINE#         115
  C:69F4H         LINE#         116
  C:69F8H         LINE#         117
  C:6A00H         LINE#         118
  C:6A04H         LINE#         119
  C:6A10H         LINE#         120
  C:6A10H         LINE#         121
  C:6A24H         LINE#         122
  C:6A27H         LINE#         123
  C:6A2FH         LINE#         124
  C:6A31H         LINE#         125
  C:6A36H         LINE#         126
  C:6A45H         LINE#         127
  C:6A50H         LINE#         128
  C:6A56H         LINE#         129
  C:6A56H         LINE#         130
  -------         ENDPROC       _INICIALIZA
  -------         PROC          _CHECK_STATUS
  X:000EH         SYMBOL        Detalle
  -------         DO            
  D:0006H         SYMBOL        j
  D:0007H         SYMBOL        bcc
  X:000FH         SYMBOL        g_scArrTxComSoft
  -------         ENDDO         
  C:74B0H         LINE#         139
  C:74B5H         LINE#         140
  C:74B5H         LINE#         143
  C:74BEH         LINE#         145
  C:74C0H         LINE#         147
  C:74C6H         LINE#         148
  C:74C9H         LINE#         149
  C:74CBH         LINE#         150
  C:74CFH         LINE#         151
  C:74D3H         LINE#         152
  C:74D7H         LINE#         153
  C:74DFH         LINE#         154
  C:74E3H         LINE#         155
  C:74EFH         LINE#         156
  C:74EFH         LINE#         157
  C:74FCH         LINE#         158
  C:74FFH         LINE#         159
  C:7504H         LINE#         160
  C:7506H         LINE#         161
  C:750BH         LINE#         162
  C:751AH         LINE#         163
  C:7525H         LINE#         164
  C:752BH         LINE#         165
  -------         ENDPROC       _CHECK_STATUS
  -------         PROC          _CARD_INSERCION
  D:0007H         SYMBOL        Tipo
  -------         DO            
  D:0006H         SYMBOL        j
  D:0007H         SYMBOL        bcc
  X:000EH         SYMBOL        g_scArrTxComSoft
BL51 BANKED LINKER/LOCATER V6.22.2.0                                                  07/27/2021  14:31:11  PAGE 93


  -------         ENDDO         
  C:6CBDH         LINE#         173
  C:6CBDH         LINE#         174
  C:6CBDH         LINE#         177
  C:6CCAH         LINE#         178
  C:6CCAH         LINE#         179
  C:6CD1H         LINE#         180
  C:6CD7H         LINE#         181
  C:6CD9H         LINE#         183
  C:6CD9H         LINE#         185
  C:6CE0H         LINE#         186
  C:6CE6H         LINE#         188
  C:6CE6H         LINE#         190
  C:6CE8H         LINE#         192
  C:6CEEH         LINE#         193
  C:6CF1H         LINE#         194
  C:6CF3H         LINE#         195
  C:6CF7H         LINE#         196
  C:6CFBH         LINE#         197
  C:6CFFH         LINE#         199
  C:6D05H         LINE#         200
  C:6D11H         LINE#         201
  C:6D11H         LINE#         202
  C:6D1EH         LINE#         203
  C:6D21H         LINE#         205
  C:6D26H         LINE#         207
  C:6D28H         LINE#         208
  C:6D2DH         LINE#         209
  C:6D3CH         LINE#         210
  C:6D47H         LINE#         211
  C:6D4DH         LINE#         212
  -------         ENDPROC       _CARD_INSERCION
  -------         PROC          _MOV_CARD
  X:000EH         SYMBOL        Posicion
  -------         DO            
  D:0003H         SYMBOL        j
  X:000FH         SYMBOL        bcc
  X:0010H         SYMBOL        g_scArrTxComSoft
  -------         ENDDO         
  C:5DE3H         LINE#         223
  C:5DE8H         LINE#         224
  C:5DE8H         LINE#         227
  C:5DEBH         LINE#         229
  C:5E0BH         LINE#         230
  C:5E0BH         LINE#         231
  C:5E12H         LINE#         232
  C:5E12H         LINE#         233
  C:5E18H         LINE#         234
  C:5E1AH         LINE#         235
  C:5E21H         LINE#         236
  C:5E21H         LINE#         237
  C:5E27H         LINE#         238
  C:5E29H         LINE#         239
  C:5E30H         LINE#         240
  C:5E30H         LINE#         241
  C:5E36H         LINE#         242
  C:5E38H         LINE#         243
BL51 BANKED LINKER/LOCATER V6.22.2.0                                                  07/27/2021  14:31:11  PAGE 94


  C:5E3FH         LINE#         244
  C:5E3FH         LINE#         245
  C:5E45H         LINE#         246
  C:5E47H         LINE#         247
  C:5E4EH         LINE#         248
  C:5E4EH         LINE#         249
  C:5E57H         LINE#         250
  C:5E57H         LINE#         252
  C:5E5DH         LINE#         253
  C:5E60H         LINE#         254
  C:5E62H         LINE#         255
  C:5E66H         LINE#         256
  C:5E6AH         LINE#         257
  C:5E6EH         LINE#         258
  C:5E76H         LINE#         259
  C:5E7AH         LINE#         260
  C:5E86H         LINE#         261
  C:5E86H         LINE#         262
  C:5E9AH         LINE#         263
  C:5E9DH         LINE#         264
  C:5EA5H         LINE#         265
  C:5EA7H         LINE#         266
  C:5EACH         LINE#         267
  C:5EBBH         LINE#         268
  C:5EC6H         LINE#         269
  C:5ECCH         LINE#         270
  C:5ECCH         LINE#         272
  -------         ENDPROC       _MOV_CARD
  -------         PROC          AUT_CARD_CHECK_STATUS
  -------         DO            
  D:0003H         SYMBOL        j
  X:000EH         SYMBOL        bcc
  X:000FH         SYMBOL        g_scArrTxComSoft
  -------         ENDDO         
  C:73B3H         LINE#         278
  C:73B3H         LINE#         279
  C:73B3H         LINE#         282
  C:73B8H         LINE#         284
  C:73C1H         LINE#         286
  C:73C7H         LINE#         287
  C:73CAH         LINE#         288
  C:73CCH         LINE#         289
  C:73D0H         LINE#         290
  C:73D4H         LINE#         291
  C:73D8H         LINE#         292
  C:73DCH         LINE#         293
  C:73E0H         LINE#         294
  C:73ECH         LINE#         295
  C:73ECH         LINE#         296
  C:7400H         LINE#         297
  C:7403H         LINE#         298
  C:740BH         LINE#         299
  C:740DH         LINE#         300
  C:7412H         LINE#         301
  C:7421H         LINE#         302
  C:742CH         LINE#         303
  C:7432H         LINE#         304
BL51 BANKED LINKER/LOCATER V6.22.2.0                                                  07/27/2021  14:31:11  PAGE 95


  -------         ENDPROC       AUT_CARD_CHECK_STATUS
  -------         PROC          DWLOAD_EEPROM
  -------         DO            
  D:0003H         SYMBOL        j
  X:0002H         SYMBOL        bcc
  X:0003H         SYMBOL        g_scArrTxComSoft
  -------         ENDDO         
  C:667DH         LINE#         310
  C:667DH         LINE#         311
  C:667DH         LINE#         314
  C:6682H         LINE#         315
  C:668BH         LINE#         317
  C:6691H         LINE#         318
  C:6694H         LINE#         319
  C:6696H         LINE#         320
  C:669AH         LINE#         321
  C:669EH         LINE#         322
  C:66A2H         LINE#         323
  C:66A6H         LINE#         324
  C:66A9H         LINE#         325
  C:66ADH         LINE#         326
  C:66B0H         LINE#         327
  C:66B3H         LINE#         328
  C:66B7H         LINE#         329
  C:66BBH         LINE#         330
  C:66BFH         LINE#         331
  C:66C3H         LINE#         332
  C:66C7H         LINE#         333
  C:66CBH         LINE#         334
  C:66CFH         LINE#         335
  C:66D3H         LINE#         337
  C:66DFH         LINE#         338
  C:66DFH         LINE#         339
  C:66F3H         LINE#         340
  C:66F6H         LINE#         341
  C:66FEH         LINE#         342
  C:6700H         LINE#         343
  C:6705H         LINE#         344
  C:6714H         LINE#         345
  C:671FH         LINE#         346
  C:6725H         LINE#         347
  -------         ENDPROC       DWLOAD_EEPROM
  -------         PROC          LOADVERIFY_EEPROM
  -------         DO            
  D:0003H         SYMBOL        j
  X:000EH         SYMBOL        bcc
  X:000FH         SYMBOL        g_scArrTxComSoft
  -------         ENDDO         
  C:6D4EH         LINE#         353
  C:6D4EH         LINE#         354
  C:6D4EH         LINE#         357
  C:6D53H         LINE#         358
  C:6D5CH         LINE#         361
  C:6D62H         LINE#         362
  C:6D65H         LINE#         363
  C:6D67H         LINE#         364
  C:6D6BH         LINE#         365
BL51 BANKED LINKER/LOCATER V6.22.2.0                                                  07/27/2021  14:31:11  PAGE 96


  C:6D6FH         LINE#         366
  C:6D73H         LINE#         367
  C:6D77H         LINE#         368
  C:6D7AH         LINE#         369
  C:6D7EH         LINE#         370
  C:6D81H         LINE#         371
  C:6D84H         LINE#         372
  C:6D88H         LINE#         373
  C:6D8CH         LINE#         377
  C:6D98H         LINE#         378
  C:6D98H         LINE#         379
  C:6DACH         LINE#         380
  C:6DAFH         LINE#         381
  C:6DB7H         LINE#         382
  C:6DB9H         LINE#         383
  C:6DBEH         LINE#         384
  C:6DCDH         LINE#         385
  C:6DD8H         LINE#         386
  C:6DDEH         LINE#         388
  -------         ENDPROC       LOADVERIFY_EEPROM
  -------         PROC          _RD_MF
  X:000EH         SYMBOL        Sector
  X:000FH         SYMBOL        Bloque
  -------         DO            
  D:0003H         SYMBOL        j
  X:0010H         SYMBOL        bcc
  X:0011H         SYMBOL        g_scArrTxComSoft
  -------         ENDDO         
  C:6227H         LINE#         394
  C:622FH         LINE#         395
  C:622FH         LINE#         399
  C:6232H         LINE#         401
  C:623BH         LINE#         402
  C:6243H         LINE#         404
  C:624CH         LINE#         405
  C:6254H         LINE#         406
  C:625DH         LINE#         409
  C:6263H         LINE#         410
  C:6266H         LINE#         411
  C:6268H         LINE#         412
  C:626CH         LINE#         413
  C:6270H         LINE#         414
  C:6274H         LINE#         415
  C:6278H         LINE#         416
  C:627BH         LINE#         417
  C:627FH         LINE#         418
  C:6287H         LINE#         419
  C:628FH         LINE#         420
  C:6293H         LINE#         421
  C:6297H         LINE#         423
  C:62A3H         LINE#         424
  C:62A3H         LINE#         425
  C:62B7H         LINE#         426
  C:62BAH         LINE#         427
  C:62C2H         LINE#         430
  C:62C4H         LINE#         431
  C:62C9H         LINE#         432
BL51 BANKED LINKER/LOCATER V6.22.2.0                                                  07/27/2021  14:31:11  PAGE 97


  C:62D8H         LINE#         433
  C:62E3H         LINE#         434
  C:62E9H         LINE#         436
  -------         ENDPROC       _RD_MF
  -------         PROC          _WR_MF
  X:000EH         SYMBOL        Sector
  X:000FH         SYMBOL        Bloque
  X:0010H         SYMBOL        buffer
  -------         DO            
  X:0013H         SYMBOL        j
  X:0014H         SYMBOL        bcc
  X:0015H         SYMBOL        g_scArrTxComSoft
  -------         ENDDO         
  C:50E3H         LINE#         443
  C:50F4H         LINE#         445
  C:50F4H         LINE#         448
  C:50F9H         LINE#         450
  C:5102H         LINE#         451
  C:510AH         LINE#         453
  C:5113H         LINE#         454
  C:511BH         LINE#         455
  C:5124H         LINE#         457
  C:512AH         LINE#         458
  C:512DH         LINE#         459
  C:512FH         LINE#         460
  C:5133H         LINE#         462
  C:5137H         LINE#         463
  C:513BH         LINE#         464
  C:513FH         LINE#         465
  C:5142H         LINE#         466
  C:5146H         LINE#         467
  C:514FH         LINE#         468
  C:5157H         LINE#         469
  C:515BH         LINE#         471
  C:5160H         LINE#         472
  C:5160H         LINE#         477
  C:5163H         LINE#         478
  C:5165H         LINE#         479
  C:5167H         LINE#         480
  C:5169H         LINE#         481
  C:516BH         LINE#         486
  C:516DH         LINE#         487
  C:516FH         LINE#         488
  C:5171H         LINE#         494
  C:5183H         LINE#         499
  C:518DH         LINE#         504
  C:5191H         LINE#         510
  C:5194H         LINE#         511
  C:5196H         LINE#         512
  C:5198H         LINE#         513
  C:519AH         LINE#         514
  C:519CH         LINE#         516
  C:519EH         LINE#         518
  C:519EH         LINE#         519
  C:51B2H         LINE#         520
  C:51B2H         LINE#         521
  C:51BEH         LINE#         522
BL51 BANKED LINKER/LOCATER V6.22.2.0                                                  07/27/2021  14:31:11  PAGE 98


  C:51C6H         LINE#         523
  C:51C6H         LINE#         528
  C:51CCH         LINE#         530
  C:51DFH         LINE#         531
  C:51DFH         LINE#         532
  C:51F4H         LINE#         533
  C:51FCH         LINE#         534
  C:5204H         LINE#         537
  C:5206H         LINE#         538
  C:520BH         LINE#         539
  C:521AH         LINE#         540
  C:5225H         LINE#         541
  C:522BH         LINE#         543
  -------         ENDPROC       _WR_MF
  -------         ENDMOD        LINTECH

  -------         MODULE        ?C?FPADD
  C:0BF2H         PUBLIC        ?C?FPADD
  C:0BEEH         PUBLIC        ?C?FPSUB
  -------         ENDMOD        ?C?FPADD

  -------         MODULE        ?C?FPMUL
  C:0CE3H         PUBLIC        ?C?FPMUL
  -------         ENDMOD        ?C?FPMUL

  -------         MODULE        ?C?FCAST
  C:0DF3H         PUBLIC        ?C?FCASTC
  C:0DEEH         PUBLIC        ?C?FCASTI
  C:0DE9H         PUBLIC        ?C?FCASTL
  -------         ENDMOD        ?C?FCAST

  -------         MODULE        ?C?CASTF
  C:0E27H         PUBLIC        ?C?CASTF
  -------         ENDMOD        ?C?CASTF

  -------         MODULE        PRINTF
  X:006DH         PUBLIC        ?_PRINTF?BYTE
  X:006DH         PUBLIC        ?_SPRINTF?BYTE
  C:2DCCH         PUBLIC        _PRINTF
  C:2DC6H         PUBLIC        _SPRINTF
  -------         ENDMOD        PRINTF

  -------         MODULE        POW
  X:001DH         PUBLIC        ?_pow?BYTE
  C:4CB6H         PUBLIC        _pow
  -------         ENDMOD        POW

  -------         MODULE        ?C?CHKFLOAT
  C:0EA8H         PUBLIC        ?C?CHKFLOAT
  -------         ENDMOD        ?C?CHKFLOAT

  -------         MODULE        ?C?FPCMP
  C:0EC4H         PUBLIC        ?C?FPCMP
  C:0EC2H         PUBLIC        ?C?FPCMP3
  -------         ENDMOD        ?C?FPCMP

  -------         MODULE        ?C?FPNEG
BL51 BANKED LINKER/LOCATER V6.22.2.0                                                  07/27/2021  14:31:11  PAGE 99


  C:0F3BH         PUBLIC        ?C?FPNEG
  -------         ENDMOD        ?C?FPNEG

  -------         MODULE        ?C?FPROUND
  C:0F4CH         PUBLIC        ?C?FPROUND
  -------         ENDMOD        ?C?FPROUND

  -------         MODULE        ?C?FPCONVERT
  C:0F89H         PUBLIC        ?C?FPCONVERT
  -------         ENDMOD        ?C?FPCONVERT

  -------         MODULE        EXP
  C:6BC6H         PUBLIC        _EXP
  -------         ENDMOD        EXP

  -------         MODULE        LOG
  C:54DEH         PUBLIC        _LOG
  C:54DAH         PUBLIC        _LOG10
  -------         ENDMOD        LOG

  -------         MODULE        ?C?FPDIV
  C:1091H         PUBLIC        ?C?FPDIV
  -------         ENDMOD        ?C?FPDIV

  -------         MODULE        ?C?FTNPWR
  C:115EH         PUBLIC        ?C?FTNPWR
  -------         ENDMOD        ?C?FTNPWR

  -------         MODULE        ?C?COPY
  C:12BBH         PUBLIC        ?C?COPY
  -------         ENDMOD        ?C?COPY

  -------         MODULE        ?C?CLDPTR
  C:12E1H         PUBLIC        ?C?CLDPTR
  -------         ENDMOD        ?C?CLDPTR

  -------         MODULE        ?C?CLDOPTR
  C:12FAH         PUBLIC        ?C?CLDOPTR
  -------         ENDMOD        ?C?CLDOPTR

  -------         MODULE        ?C?CSTPTR
  C:1327H         PUBLIC        ?C?CSTPTR
  -------         ENDMOD        ?C?CSTPTR

  -------         MODULE        ?C?CSTOPTR
  C:1339H         PUBLIC        ?C?CSTOPTR
  -------         ENDMOD        ?C?CSTOPTR

  -------         MODULE        ?C?UIDIV
  C:135BH         PUBLIC        ?C?UIDIV
  -------         ENDMOD        ?C?UIDIV

  -------         MODULE        ?C?IILDX
  C:13B0H         PUBLIC        ?C?IILDX
  -------         ENDMOD        ?C?IILDX

  -------         MODULE        ?C?LNEG
BL51 BANKED LINKER/LOCATER V6.22.2.0                                                  07/27/2021  14:31:11  PAGE 100


  C:13C6H         PUBLIC        ?C?LNEG
  -------         ENDMOD        ?C?LNEG

  -------         MODULE        ?C?LLDCODE
  C:13D4H         PUBLIC        ?C?LLDCODE
  -------         ENDMOD        ?C?LLDCODE

  -------         MODULE        ?C?LLDXDATA0
  C:13E4H         PUBLIC        ?C?LLDXDATA0
  -------         ENDMOD        ?C?LLDXDATA0

  -------         MODULE        ?C?LLDCODE0
  C:13F0H         PUBLIC        ?C?LLDCODE0
  -------         ENDMOD        ?C?LLDCODE0

  -------         MODULE        ?C?LSTXDATA
  C:1400H         PUBLIC        ?C?LSTXDATA
  -------         ENDMOD        ?C?LSTXDATA

  -------         MODULE        ?C?LSTKXDATA
  C:140CH         PUBLIC        ?C?LSTKXDATA
  -------         ENDMOD        ?C?LSTKXDATA

  -------         MODULE        ?C?PLDIXDATA
  C:143DH         PUBLIC        ?C?PLDIXDATA
  -------         ENDMOD        ?C?PLDIXDATA

  -------         MODULE        ?C?PSTXDATA
  C:1454H         PUBLIC        ?C?PSTXDATA
  -------         ENDMOD        ?C?PSTXDATA

  -------         MODULE        ?C?CCASE
  C:145DH         PUBLIC        ?C?CCASE
  -------         ENDMOD        ?C?CCASE

  -------         MODULE        STRCAT
  X:005DH         PUBLIC        ?_strcat?BYTE
  C:7615H         PUBLIC        _strcat
  -------         ENDMOD        STRCAT

  -------         MODULE        ?C?STRCMP
  C:1601H         PUBLIC        ?C?STRCMP
  -------         ENDMOD        ?C?STRCMP

  -------         MODULE        ?C?STRCPY
  C:16EAH         PUBLIC        ?C?STRCPY
  -------         ENDMOD        ?C?STRCPY

  -------         MODULE        STRLEN
  C:000EH         PUBLIC        _STRLEN
  -------         ENDMOD        STRLEN

  -------         MODULE        STRTOK
  X:0068H         PUBLIC        ?_strtok?BYTE
  C:5ECDH         PUBLIC        _strtok
  -------         ENDMOD        STRTOK

BL51 BANKED LINKER/LOCATER V6.22.2.0                                                  07/27/2021  14:31:11  PAGE 101


  -------         MODULE        ATOI
  C:5FB1H         PUBLIC        _atoi
  -------         ENDMOD        ATOI

  -------         MODULE        ?C?IMUL
  C:1707H         PUBLIC        ?C?IMUL
  -------         ENDMOD        ?C?IMUL

  -------         MODULE        ?C?ILDIX
  C:1719H         PUBLIC        ?C?ILDIX
  -------         ENDMOD        ?C?ILDIX

  -------         MODULE        ISDIGIT
  C:8102H         PUBLIC        _isdigit
  -------         ENDMOD        ISDIGIT

  -------         MODULE        ISSPACE
  C:8062H         PUBLIC        _isspace
  -------         ENDMOD        ISSPACE

  -------         MODULE        STRSPN
  X:006EH         PUBLIC        ?_strspn?BYTE
  C:71AEH         PUBLIC        _strspn
  -------         ENDMOD        STRSPN

  -------         MODULE        STRPBRK
  X:006EH         PUBLIC        ?_strpbrk?BYTE
  C:7232H         PUBLIC        _strpbrk
  -------         ENDMOD        STRPBRK

Program Size: data=119.6 xdata=438 code=33150
LINK/LOCATE RUN COMPLETE.  0 WARNING(S),  0 ERROR(S)
