BL51 BANKED LINKER/LOCATER V6.22.2.0                                                    10/02/2020  15:54:40  PAGE 1


BL51 BANKED LINKER/LOCATER V6.22.2.0, INVOKED BY:
C:\KEIL_V5\C51\BIN\BL51.EXE .\Objects\main.obj, .\Objects\Accescan.obj, .\Objects\Clock.obj, .\Objects\delay.obj, .\Obje
>> cts\eeprom.obj, .\Objects\io_sensores.obj, .\Objects\pantallas.obj, .\Objects\prog.obj, .\Objects\pto_paralelo.obj, .
>> \Objects\tibbo.obj, .\Objects\uart.obj, .\Objects\verificador.obj, .\Objects\lintech.obj TO .\Objects\verificador_v_0
>> 1_raspberry PRINT (.\Listings\verificador_v_01_raspberry.m51) RAMSIZE (256)


MEMORY MODEL: LARGE WITH FLOATING POINT ARITHMETIC


INPUT MODULES INCLUDED:
  .\Objects\main.obj (MAIN)
  .\Objects\Accescan.obj (ACCESCAN)
  .\Objects\Clock.obj (CLOCK)
  .\Objects\delay.obj (DELAY)
  .\Objects\eeprom.obj (EEPROM)
  .\Objects\io_sensores.obj (IO_SENSORES)
  .\Objects\pantallas.obj (PANTALLAS)
  .\Objects\prog.obj (PROG)
  .\Objects\pto_paralelo.obj (PTO_PARALELO)
  .\Objects\tibbo.obj (TIBBO)
  .\Objects\uart.obj (UART)
  .\Objects\verificador.obj (VERIFICADOR)
  .\Objects\lintech.obj (LINTECH)
  C:\KEIL_V5\C51\LIB\C51FPL.LIB (?C?FPADD)
  C:\KEIL_V5\C51\LIB\C51FPL.LIB (?C?FPMUL)
  C:\KEIL_V5\C51\LIB\C51FPL.LIB (?C?FCAST)
  C:\KEIL_V5\C51\LIB\C51FPL.LIB (?C?CASTF)
  C:\KEIL_V5\C51\LIB\C51FPL.LIB (PRINTF)
  C:\KEIL_V5\C51\LIB\C51FPL.LIB (POW)
  C:\KEIL_V5\C51\LIB\C51FPL.LIB (?C?FPGETOPN)
  C:\KEIL_V5\C51\LIB\C51FPL.LIB (?C?CHKFLOAT)
  C:\KEIL_V5\C51\LIB\C51FPL.LIB (?C?FPCMP)
  C:\KEIL_V5\C51\LIB\C51FPL.LIB (?C?FPNEG)
  C:\KEIL_V5\C51\LIB\C51FPL.LIB (?C?FPROUND)
  C:\KEIL_V5\C51\LIB\C51FPL.LIB (?C?FPCONVERT)
  C:\KEIL_V5\C51\LIB\C51FPL.LIB (EXP)
  C:\KEIL_V5\C51\LIB\C51FPL.LIB (LOG)
  C:\KEIL_V5\C51\LIB\C51FPL.LIB (?C?FPDIV)
  C:\KEIL_V5\C51\LIB\C51FPL.LIB (?C?FTNPWR)
  C:\KEIL_V5\C51\LIB\C51FPL.LIB (?C?FPSERIES)
  C:\KEIL_V5\C51\LIB\C51L.LIB (?C_STARTUP)
  C:\KEIL_V5\C51\LIB\C51L.LIB (?C?COPY)
  C:\KEIL_V5\C51\LIB\C51L.LIB (?C?CLDPTR)
  C:\KEIL_V5\C51\LIB\C51L.LIB (?C?CLDOPTR)
  C:\KEIL_V5\C51\LIB\C51L.LIB (?C?CSTPTR)
  C:\KEIL_V5\C51\LIB\C51L.LIB (?C?CSTOPTR)
  C:\KEIL_V5\C51\LIB\C51L.LIB (?C?IMUL)
  C:\KEIL_V5\C51\LIB\C51L.LIB (?C?UIDIV)
  C:\KEIL_V5\C51\LIB\C51L.LIB (?C?IILDX)
  C:\KEIL_V5\C51\LIB\C51L.LIB (?C?LNEG)
  C:\KEIL_V5\C51\LIB\C51L.LIB (?C?ULCMP)
  C:\KEIL_V5\C51\LIB\C51L.LIB (?C?LLDCODE)
  C:\KEIL_V5\C51\LIB\C51L.LIB (?C?LLDXDATA0)
  C:\KEIL_V5\C51\LIB\C51L.LIB (?C?LLDCODE0)
  C:\KEIL_V5\C51\LIB\C51L.LIB (?C?LSTXDATA)
  C:\KEIL_V5\C51\LIB\C51L.LIB (?C?LSTKXDATA)
  C:\KEIL_V5\C51\LIB\C51L.LIB (?C?PLDIXDATA)
BL51 BANKED LINKER/LOCATER V6.22.2.0                                                  10/02/2020  15:54:40  PAGE 2


  C:\KEIL_V5\C51\LIB\C51L.LIB (?C?PSTXDATA)
  C:\KEIL_V5\C51\LIB\C51L.LIB (?C?CCASE)
  C:\KEIL_V5\C51\LIB\C51L.LIB (STRCAT)
  C:\KEIL_V5\C51\LIB\C51L.LIB (?C?STRCMP)
  C:\KEIL_V5\C51\LIB\C51L.LIB (?C?STRCPY)
  C:\KEIL_V5\C51\LIB\C51L.LIB (STRLEN)
  C:\KEIL_V5\C51\LIB\C51L.LIB (STRTOK)
  C:\KEIL_V5\C51\LIB\C51L.LIB (ATOI)
  C:\KEIL_V5\C51\LIB\C51L.LIB (MALLOC)
  C:\KEIL_V5\C51\LIB\C51L.LIB (INIT_MEM)
  C:\KEIL_V5\C51\LIB\C51L.LIB (FREE)
  C:\KEIL_V5\C51\LIB\C51L.LIB (?C_INIT)
  C:\KEIL_V5\C51\LIB\C51L.LIB (?C?ILDIX)
  C:\KEIL_V5\C51\LIB\C51L.LIB (ISDIGIT)
  C:\KEIL_V5\C51\LIB\C51L.LIB (ISSPACE)
  C:\KEIL_V5\C51\LIB\C51L.LIB (STRSPN)
  C:\KEIL_V5\C51\LIB\C51L.LIB (STRPBRK)


LINK MAP OF MODULE:  .\Objects\verificador_v_01_raspberry (MAIN)


            TYPE    BASE      LENGTH    RELOCATION   SEGMENT NAME
            -----------------------------------------------------

            * * * * * * *   D A T A   M E M O R Y   * * * * * * *
            REG     0000H     0008H     ABSOLUTE     "REG BANK 0"
            DATA    0008H     0005H     UNIT         _DATA_GROUP_
            DATA    000DH     0004H     UNIT         ?DT?UART
            IDATA   0011H     0009H     UNIT         ?ID?ACCESCAN
                    001AH     0006H                  *** GAP ***
            BIT     0020H.0   0001H.1   UNIT         _BIT_GROUP_
            BIT     0021H.1   0000H.3   UNIT         ?BI?MAIN
            BIT     0021H.4   0000H.2   UNIT         ?BI?UART
            BIT     0021H.6   0000H.1   UNIT         ?BI?EEPROM
                    0021H.7   0000H.1                *** GAP ***
            IDATA   0022H     0064H     UNIT         ?ID?MAIN
            IDATA   0086H     0001H     UNIT         ?STACK

            * * * * * * *  X D A T A   M E M O R Y  * * * * * * *
            XDATA   0000H     00E4H     UNIT         _XDATA_GROUP_
            XDATA   00E4H     0070H     UNIT         ?XD?MAIN
            XDATA   0154H     0066H     UNIT         ?XD?VERIFICADOR
            XDATA   01BAH     0051H     UNIT         ?XD?PANTALLAS
            XDATA   020BH     0051H     UNIT         ?XD?PROG
            XDATA   025CH     001EH     UNIT         ?XD?PTO_PARALELO
            XDATA   027AH     0008H     UNIT         ?XD?INIT_MEM
            XDATA   0282H     0003H     UNIT         ?XD?EEPROM
            XDATA   0285H     0003H     UNIT         ?XD?UART
            XDATA   0288H     0003H     UNIT         ?XD?STRTOK
            XDATA   028BH     0002H     UNIT         ?XD?ACCESCAN
            XDATA   028DH     0001H     UNIT         ?XD?CLOCK
            XDATA   028EH     0001H     UNIT         ?XD?IO_SENSORES

            * * * * * * *   C O D E   M E M O R Y   * * * * * * *
            CODE    0000H     0003H     ABSOLUTE     
            CODE    0003H     0008H     UNIT         ?PR?P_CK?CLOCK
BL51 BANKED LINKER/LOCATER V6.22.2.0                                                  10/02/2020  15:54:40  PAGE 3


            CODE    000BH     0003H     ABSOLUTE     
            CODE    000EH     0015H     UNIT         ?PR?_STRLEN?STRLEN
            CODE    0023H     0003H     ABSOLUTE     
            CODE    0026H     116CH     UNIT         ?CO?PROG
            CODE    1192H     0BE0H     UNIT         ?PR?SECUENCIAEXPEDIDOR?VERIFICADOR
            CODE    1D72H     0B55H     UNIT         ?C?LIB_CODE
            CODE    28C7H     0760H     UNIT         ?CO?VERIFICADOR
            CODE    3027H     0537H     UNIT         ?PR?_ANALIZA_TIEMPO?CLOCK
            CODE    355EH     0483H     UNIT         ?PR?PRINTF?PRINTF
            CODE    39E1H     046CH     UNIT         ?CO?PANTALLAS
            CODE    3E4DH     03D5H     UNIT         ?PR?_PANTALLALCD?PANTALLAS
            CODE    4222H     038EH     UNIT         ?PR?VER_PROG?PROG
            CODE    45B0H     0311H     UNIT         ?PR?_VALIDA_TRAMA_PTO?ACCESCAN
            CODE    48C1H     02D0H     UNIT         ?PR?_TWO_BYTEHEX_DECIMAL?CLOCK
            CODE    4B91H     02CDH     UNIT         ?PR?_TRAMA_PTO_PARALELO_NEW?PTO_PARALELO
            CODE    4E5EH     02B7H     UNIT         ?PR?_PROG_HORARIO_DIAS?PROG
            CODE    5115H     021AH     UNIT         ?PR?MENU?PROG
            CODE    532FH     020FH     UNIT         ?PR?_HASH_ID?PROG
            CODE    553EH     01FAH     UNIT         ?PR?_PROG_HORARIO_DESDE_HASTA?PROG
            CODE    5738H     01F5H     UNIT         ?PR?PROG_FECHA_VENCIMIENTO?PROG
            CODE    592DH     01ECH     UNIT         ?PR?_RESPONDE_LECTURA_TARJETA_SECTOR1_BLOQUE2?VERIFICADOR
            CODE    5B19H     01CFH     UNIT         ?PR?_BLOCK_READ_CLOCK_RASBERRY?CLOCK
            CODE    5CE8H     01B3H     UNIT         ?PR?COM_ISR?UART
            CODE    5E9BH     01A6H     UNIT         ?PR?_CMD_LPR_SALIDA?ACCESCAN
            CODE    6041H     017BH     UNIT         ?PR?_RESPONDE_LECTURA_TARJETA_SECTOR1_BLOQUE1?VERIFICADOR
            CODE    61BCH     017BH     UNIT         ?PR?_WR_MF?LINTECH
            CODE    6337H     0179H     UNIT         ?PR?_CHECK_FECHAOUT?CLOCK
            CODE    64B0H     016FH     UNIT         ?PR?_BLOCK_READ_CLOCK_ASCII?CLOCK
            CODE    661FH     0166H     UNIT         ?PR?_POW?POW
            CODE    6785H     0162H     UNIT         ?PR?_PANTALLALCD_LINEA_2?PANTALLAS
            CODE    68E7H     0161H     UNIT         ?CO?LINTECH
            CODE    6A48H     0145H     UNIT         ?PR?PROG_HORARIOS?PROG
            CODE    6B8DH     0140H     UNIT         ?PR?SECUENCIA_INICIO_EXPEDIDOR?VERIFICADOR
            CODE    6CCDH     013FH     UNIT         ?PR?_FREE?FREE
            CODE    6E0CH     013EH     UNIT         ?PR?PROG_SIN_COBRO?PROG
            CODE    6F4AH     0137H     UNIT         ?PR?VER_HORARIO?PROG
            CODE    7081H     0129H     UNIT         ?PR?LOG?LOG
            CODE    71AAH     0128H     UNIT         ?PR?_VER_HORARIO_DIAS?PROG
            CODE    72D2H     011AH     UNIT         ?PR?_PROG_HORARIOS_ON_OFF?PROG
            CODE    73ECH     0119H     UNIT         ?PR?_VER_HORARIO_DESDE_HASTA?PROG
            CODE    7505H     0115H     UNIT         ?PR?_VALIDAR_CLK?CLOCK
            CODE    761AH     0110H     UNIT         ?PR?LOAD_AND_SEND_ID_COD?PTO_PARALELO
            CODE    772AH     010FH     UNIT         ?PR?_RESPONDE_LECTURA_TARJETA_SECTOR1_BLOQUE0?VERIFICADOR
            CODE    7839H     0103H     UNIT         ?PR?_BLOQUE_HORARIO?VERIFICADOR
            CODE    793CH     00FFH     UNIT         ?PR?_TRAMA_PTO_PARALELO_P?PTO_PARALELO
            CODE    7A3BH     00FEH     UNIT         ?PR?_ARMAR_TRAMA_PTO_PARALELO_EXPEDIDOR_MENSUAL?VERIFICADOR
            CODE    7B39H     00FCH     UNIT         ?PR?PROG_DEBUG?PROG
            CODE    7C35H     00FCH     UNIT         ?PR?PROG_USE_LPR?PROG
            CODE    7D31H     00FCH     UNIT         ?PR?PROG_COMPARACION_ACTIVA?PROG
            CODE    7E2DH     00FCH     UNIT         ?PR?TIPO_PANTALLA?PROG
            CODE    7F29H     00FCH     UNIT         ?PR?DCTO_CAJA?PROG
            CODE    8025H     00FCH     UNIT         ?PR?PROG_APB_MENSUAL?PROG
            CODE    8121H     00F5H     UNIT         ?PR?_HORARIOS?VERIFICADOR
            CODE    8216H     00EAH     UNIT         ?PR?_MOV_CARD?LINTECH
            CODE    8300H     00E4H     UNIT         ?PR?_STRTOK?STRTOK
            CODE    83E4H     00DEH     UNIT         ?PR?PROG_ADDRESS_HIGH_BOARD?PROG
            CODE    84C2H     00DBH     UNIT         ?PR?_ATOI?ATOI
BL51 BANKED LINKER/LOCATER V6.22.2.0                                                  10/02/2020  15:54:40  PAGE 4


            CODE    859DH     00D7H     UNIT         ?PR?_ANALIZA_UID_CARD?VERIFICADOR
            CODE    8674H     00D6H     UNIT         ?PR?_CMD_LPR_SALIDA_WIEGAND?ACCESCAN
            CODE    874AH     00D1H     UNIT         ?PR?_MALLOC?MALLOC
            CODE    881BH     00C6H     UNIT         ?C_INITSEG
            CODE    88E1H     00C5H     UNIT         ?PR?_BLOCK_READ_CLOCK?CLOCK
            CODE    89A6H     00C3H     UNIT         ?PR?_RD_MF?LINTECH
            CODE    8A69H     00BDH     UNIT         ?PR?PROG_COD_PARK?PROG
            CODE    8B26H     00BDH     UNIT         ?PR?PROG_TIEMPO_GRACIA?PROG
            CODE    8BE3H     00BBH     UNIT         ?PR?_CHECK_FECHAOUT_2?CLOCK
            CODE    8C9EH     00B6H     UNIT         ?PR?PROG_ID_CLIENTE?PROG
            CODE    8D54H     00B4H     UNIT         ?PR?_SEND_PORT?PTO_PARALELO
            CODE    8E08H     00AFH     UNIT         ?PR?ERROR_RX_PTO?VERIFICADOR
            CODE    8EB7H     00ACH     UNIT         ?PR?_HORA_MAXIMA?VERIFICADOR
            CODE    8F63H     00A9H     UNIT         ?PR?DWLOAD_EEPROM?LINTECH
            CODE    900CH     00A7H     UNIT         ?PR?_BLOCK_READ_CLOCK_HEX?CLOCK
            CODE    90B3H     00A7H     UNIT         ?CO?TIBBO
            CODE    915AH     00A6H     UNIT         ?PR?_DEBUG_FECHA_ACTUAL?TIBBO
            CODE    9200H     00A0H     UNIT         ?CO?IO_SENSORES
            CODE    92A0H     009DH     UNIT         ?PR?_INICIALIZA?LINTECH
            CODE    933DH     009CH     UNIT         ?PR?_RECIBE_PORT?PTO_PARALELO
            CODE    93D9H     009AH     UNIT         ?PR?EXP?EXP
            CODE    9473H     0095H     UNIT         ?PR?_RECIBE_CMD_MONITOR?ACCESCAN
            CODE    9508H     0091H     UNIT         ?PR?_HEX_ASCII?CLOCK
            CODE    9599H     0091H     UNIT         ?PR?_CARD_INSERCION?LINTECH
            CODE    962AH     0091H     UNIT         ?PR?LOADVERIFY_EEPROM?LINTECH
            CODE    96BBH     0090H     UNIT         ?PR?_GETOPTION?PROG
            CODE    974BH     008FH     UNIT         ?PR?_LEE_CLK?CLOCK
            CODE    97DAH     008FH     UNIT         ?PR?_BLOCK_WRITE_CLOCK_ASCII?CLOCK
            CODE    9869H     008CH     UNIT         ?C_C51STARTUP
            CODE    98F5H     008AH     UNIT         ?PR?_EN_HORARIO?VERIFICADOR
            CODE    997FH     0088H     UNIT         ?PR?_SEND_PORTERR?PTO_PARALELO
            CODE    9A07H     0088H     UNIT         ?PR?RX_DATA?TIBBO
            CODE    9A8FH     0088H     UNIT         ?PR?UNIQUE_IDENTIFIER_UID?LINTECH
            CODE    9B17H     0087H     UNIT         ?PR?SHOW?PROG
            CODE    9B9EH     0085H     UNIT         ?PR?MAIN?MAIN
            CODE    9C23H     0084H     UNIT         ?PR?_STRSPN?STRSPN
            CODE    9CA7H     0081H     UNIT         ?PR?_STRPBRK?STRPBRK
            CODE    9D28H     0080H     UNIT         ?PR?MSJ_LCD_INFORMATIVO?IO_SENSORES
            CODE    9DA8H     0080H     UNIT         ?PR?_INGRESADATO?PROG
            CODE    9E28H     0080H     UNIT         ?PR?AUT_CARD_CHECK_STATUS?LINTECH
            CODE    9EA8H     0080H     UNIT         ?PR?POWER_OFF?LINTECH
            CODE    9F28H     007CH     UNIT         ?PR?_CHECK_STATUS?LINTECH
            CODE    9FA4H     0077H     UNIT         ?PR?RELOJ_PANTALLA_LCD?PANTALLAS
            CODE    A01BH     0073H     UNIT         ?PR?VALIDASENSORESPASO?IO_SENSORES
            CODE    A08EH     0073H     UNIT         ?PR?_DEBUGBUFFERMF?TIBBO
            CODE    A101H     006FH     UNIT         ?PR?_ESCRIBIRMEMORIA?EEPROM
            CODE    A170H     006DH     UNIT         ?PR?VALIDAR_PAGO?VERIFICADOR
            CODE    A1DDH     006BH     UNIT         ?PR?_VALIDA_MISMO_DIA?VERIFICADOR
            CODE    A248H     006BH     UNIT         ?PR?_STRCAT?STRCAT
            CODE    A2B3H     0066H     UNIT         ?PR?_LEERMEMORIA?EEPROM
            CODE    A319H     0062H     UNIT         ?PR?_LISTACOMANDOS?PROG
            CODE    A37BH     005EH     UNIT         ?PR?_BYTEHEX_DECIMAL?CLOCK
            CODE    A3D9H     0059H     UNIT         ?PR?_RASPBERRY_DATA?PANTALLAS
            CODE    A432H     0056H     UNIT         ?PR?_WR_EEPROM?EEPROM
            CODE    A488H     0056H     UNIT         ?PR?VARIABLE_INICIO?EEPROM
            CODE    A4DEH     004DH     UNIT         ?PR?L_D_M?EEPROM
            CODE    A52BH     004BH     UNIT         ?PR?_TX_AUX?TIBBO
BL51 BANKED LINKER/LOCATER V6.22.2.0                                                  10/02/2020  15:54:40  PAGE 5


            CODE    A576H     0048H     UNIT         ?PR?FIRST_CLAVE?PROG
            CODE    A5BEH     0048H     UNIT         ?PR?_DEBUG_PTO_PARALELO?TIBBO
            CODE    A606H     0047H     UNIT         ?PR?_DEBUG_CHR_TIBBO?TIBBO
            CODE    A64DH     0046H     UNIT         ?PR?_ESCRIBIRCADENASOFT_BUFFER?MAIN
            CODE    A693H     0046H     UNIT         ?PR?_LCD_TXT_NUM_CHAR?PANTALLAS
            CODE    A6D9H     0046H     UNIT         ?PR?_DEBUG_HEXDEC?TIBBO
            CODE    A71FH     0044H     UNIT         ?PR?_LCD_TXT?PANTALLAS
            CODE    A763H     0044H     UNIT         ?PR?_DEBUG_TXT_TIBBO?TIBBO
            CODE    A7A7H     0043H     UNIT         ?PR?DIR_BOARD?IO_SENSORES
            CODE    A7EAH     0042H     UNIT         ?PR?_VALIDARCLAVE?PROG
            CODE    A82CH     0041H     UNIT         ?PR?_MONITOR_CHR?ACCESCAN
            CODE    A86DH     0041H     UNIT         ?PR?_TWO_ONE?CLOCK
            CODE    A8AEH     0040H     UNIT         ?PR?_GETCMD?PROG
            CODE    A8EEH     003FH     UNIT         ?PR?_EB_CLK?CLOCK
            CODE    A92DH     003EH     UNIT         ?PR?_PUTCHAR?MAIN
            CODE    A96BH     003DH     UNIT         ?PR?_HEX_BCD?CLOCK
            CODE    A9A8H     003DH     UNIT         ?PR?_RD_EEPROM?EEPROM
            CODE    A9E5H     003CH     UNIT         ?PR?_INIT_MEMPOOL?INIT_MEM
            CODE    AA21H     003BH     UNIT         ?PR?_COM_PUTCHAR?UART
            CODE    AA5CH     003AH     UNIT         ?PR?_DELAY_10MS?DELAY
            CODE    AA96H     0037H     UNIT         ?PR?TIMER0_INT?MAIN
            CODE    AACDH     0034H     UNIT         ?PR?ADDR_HORARIOS?PROG
            CODE    AB01H     002CH     UNIT         ?PR?LOAD_AND_SEND_INFO_RELOJ?PTO_PARALELO
            CODE    AB2DH     002AH     UNIT         ?PR?COM_INITIALIZE?UART
            CODE    AB57H     0028H     UNIT         ?PR?_WR_CLK?CLOCK
            CODE    AB7FH     0028H     UNIT         ?PR?COM_BAUDRATE?UART
            CODE    ABA7H     0027H     UNIT         ?PR?_TX_CHRLCD?PANTALLAS
            CODE    ABCEH     0026H     UNIT         ?PR?COM_GETCHAR?UART
            CODE    ABF4H     0024H     UNIT         ?PR?TRAMA_VALIDACION_P_N?VERIFICADOR
            CODE    AC18H     0022H     UNIT         ?PR?_E_D_M?EEPROM
            CODE    AC3AH     0020H     UNIT         ?PR?ACKD?EEPROM
            CODE    AC5AH     0020H     UNIT         ?PR?ACK_LECT?EEPROM
            CODE    AC7AH     001FH     UNIT         ?PR?VALIDASENSOR?IO_SENSORES
            CODE    AC99H     001FH     UNIT         ?PR?VALIDASENSORES_OUT?IO_SENSORES
            CODE    ACB8H     001FH     UNIT         ?PR?TIME_BIT?TIBBO
            CODE    ACD7H     001EH     UNIT         ?PR?_BCD_HEX?CLOCK
            CODE    ACF5H     001DH     UNIT         ?CO?PTO_PARALELO
            CODE    AD12H     001BH     UNIT         ?PR?_DELAY_1MS?DELAY
            CODE    AD2DH     0017H     UNIT         ?PR?DISPLAYCURSOR?PROG
            CODE    AD44H     0017H     UNIT         ?PR?TIME_MBIT?TIBBO
            CODE    AD5BH     0014H     UNIT         ?PR?_ISSPACE?ISSPACE
            CODE    AD6FH     0012H     UNIT         ?PR?_DELAY_20US?DELAY
            CODE    AD81H     0012H     UNIT         ?PR?START?EEPROM
            CODE    AD93H     0012H     UNIT         ?PR?DIR_BOARD_MONITOR?IO_SENSORES
            CODE    ADA5H     0012H     UNIT         ?PR?PULSO_BUS?PTO_PARALELO
            CODE    ADB7H     0012H     UNIT         ?PR?COM_RBUFLEN?UART
            CODE    ADC9H     0012H     UNIT         ?PR?COM_TBUFLEN?UART
            CODE    ADDBH     0010H     UNIT         ?PR?INI_TIMER?MAIN
            CODE    ADEBH     0010H     UNIT         ?PR?INICIA_BOARD?MAIN
            CODE    ADFBH     000FH     UNIT         ?PR?_ISDIGIT?ISDIGIT
            CODE    AE0AH     000CH     UNIT         ?PR?_GETKEY?MAIN
            CODE    AE16H     000AH     UNIT         ?PR?COND_INI_PTO?PTO_PARALELO
            CODE    AE20H     0009H     UNIT         ?PR?STOP?EEPROM
            CODE    AE29H     0009H     UNIT         ?PR?DEBUG_DIVIDIR_TEXTO?TIBBO
            CODE    AE32H     0007H     UNIT         ?PR?COND_INI_CLOCK?CLOCK
            CODE    AE39H     0007H     UNIT         ?PR?SEL_FUNCION?IO_SENSORES
            CODE    AE40H     0007H     UNIT         ?PR?SEL_AUTO?IO_SENSORES
BL51 BANKED LINKER/LOCATER V6.22.2.0                                                  10/02/2020  15:54:40  PAGE 6


            CODE    AE47H     0007H     UNIT         ?PR?SEL_SENSOR2?IO_SENSORES
            CODE    AE4EH     0007H     UNIT         ?PR?SEL_SENSOR1?IO_SENSORES
            CODE    AE55H     0007H     UNIT         ?PR?SEL_DIR1?IO_SENSORES
            CODE    AE5CH     0007H     UNIT         ?PR?SEL_DIR2?IO_SENSORES
            CODE    AE63H     0006H     UNIT         ?PR?P_ME?EEPROM
            CODE    AE69H     0005H     UNIT         ?PR?ON_TIMER0_INTERRUP?MAIN
            CODE    AE6EH     0005H     UNIT         ?CO?ACCESCAN
            CODE    AE73H     0005H     UNIT         ?PR?COND_INI_TIBBO?TIBBO
            CODE    AE78H     0003H     UNIT         ?PR?OFF_TIMER0_INTERRUP?MAIN
            CODE    AE7BH     0001H     UNIT         ?PR?DELAY?DELAY



OVERLAY MAP OF MODULE:   .\Objects\verificador_v_01_raspberry (MAIN)


SEGMENT                                             BIT_GROUP          DATA_GROUP          XDATA_GROUP
  +--> CALLED SEGMENT                            START    LENGTH     START    LENGTH     START    LENGTH
--------------------------------------------------------------------------------------------------------
?C_C51STARTUP                                    -----    -----      -----    -----      -----    -----
  +--> ?PR?MAIN?MAIN
  +--> ?C_INITSEG

?PR?MAIN?MAIN                                    -----    -----      -----    -----      0000H    0001H
  +--> ?PR?INI_TIMER?MAIN
  +--> ?PR?ON_TIMER0_INTERRUP?MAIN
  +--> ?PR?COM_INITIALIZE?UART
  +--> ?PR?COM_BAUDRATE?UART
  +--> ?PR?INICIA_BOARD?MAIN
  +--> ?PR?TIME_BIT?TIBBO
  +--> ?PR?_DELAY_20US?DELAY
  +--> ?PR?TIME_MBIT?TIBBO
  +--> ?PR?_TX_AUX?TIBBO
  +--> ?PR?SEL_FUNCION?IO_SENSORES
  +--> ?PR?MENU?PROG
  +--> ?PR?VARIABLE_INICIO?EEPROM
  +--> ?PR?SECUENCIA_INICIO_EXPEDIDOR?VERIFI...
  +--> ?PR?_RECIBE_CMD_MONITOR?ACCESCAN
  +--> ?PR?SECUENCIAEXPEDIDOR?VERIFICADOR
  +--> ?PR?_RECIBE_PORT?PTO_PARALELO
  +--> ?PR?_VALIDA_TRAMA_PTO?ACCESCAN
  +--> ?PR?_DEBUG_PTO_PARALELO?TIBBO
  +--> ?PR?MSJ_LCD_INFORMATIVO?IO_SENSORES

?PR?COM_INITIALIZE?UART                          -----    -----      -----    -----      -----    -----
  +--> ?PR?COM_BAUDRATE?UART

?PR?INICIA_BOARD?MAIN                            -----    -----      -----    -----      -----    -----
  +--> ?PR?COND_INI_TIBBO?TIBBO
  +--> ?PR?COND_INI_CLOCK?CLOCK
  +--> ?PR?COND_INI_PTO?PTO_PARALELO

?PR?_TX_AUX?TIBBO                                -----    -----      -----    -----      -----    -----
  +--> ?PR?TIME_BIT?TIBBO

?PR?MENU?PROG                                    -----    -----      -----    -----      0001H    0059H
  +--> ?CO?PROG
BL51 BANKED LINKER/LOCATER V6.22.2.0                                                  10/02/2020  15:54:40  PAGE 7


  +--> ?PR?PRINTF?PRINTF
  +--> ?PR?_RD_EEPROM?EEPROM
  +--> ?PR?FIRST_CLAVE?PROG
  +--> ?PR?_WR_EEPROM?EEPROM
  +--> ?PR?_LEERMEMORIA?EEPROM
  +--> ?PR?_HASH_ID?PROG
  +--> ?PR?_INGRESADATO?PROG
  +--> ?PR?_GETCMD?PROG
  +--> ?PR?_ESCRIBIRMEMORIA?EEPROM
  +--> ?PR?_VALIDARCLAVE?PROG
  +--> ?PR?DISPLAYCURSOR?PROG
  +--> ?PR?_STRLEN?STRLEN
  +--> ?PR?_GETOPTION?PROG
  +--> ?PR?_STRCAT?STRCAT
  +--> ?PR?_LISTACOMANDOS?PROG
  +--> ?PR?PROG_ID_CLIENTE?PROG
  +--> ?PR?PROG_COD_PARK?PROG
  +--> ?PR?PROG_TIEMPO_GRACIA?PROG
  +--> ?PR?PROG_SIN_COBRO?PROG
  +--> ?PR?PROG_DEBUG?PROG
  +--> ?PR?PROG_USE_LPR?PROG
  +--> ?PR?PROG_COMPARACION_ACTIVA?PROG
  +--> ?PR?TIPO_PANTALLA?PROG
  +--> ?PR?DCTO_CAJA?PROG
  +--> ?PR?PROG_APB_MENSUAL?PROG
  +--> ?PR?PROG_ADDRESS_HIGH_BOARD?PROG
  +--> ?PR?PROG_HORARIOS?PROG
  +--> ?PR?VER_PROG?PROG
  +--> ?PR?SHOW?PROG
  +--> ?PR?PROG_FECHA_VENCIMIENTO?PROG

?PR?PRINTF?PRINTF                                0020H.0  0001H.1    0008H    0005H      00B0H    0030H
  +--> ?PR?_PUTCHAR?MAIN

?PR?_PUTCHAR?MAIN                                -----    -----      -----    -----      00E0H    0003H
  +--> ?PR?_COM_PUTCHAR?UART

?PR?_COM_PUTCHAR?UART                            -----    -----      -----    -----      00E3H    0001H
  +--> ?PR?COM_TBUFLEN?UART

?PR?_RD_EEPROM?EEPROM                            -----    -----      -----    -----      -----    -----
  +--> ?PR?START?EEPROM
  +--> ?PR?ACK_LECT?EEPROM
  +--> ?PR?_E_D_M?EEPROM
  +--> ?PR?ACKD?EEPROM
  +--> ?PR?L_D_M?EEPROM
  +--> ?PR?STOP?EEPROM

?PR?ACK_LECT?EEPROM                              -----    -----      -----    -----      -----    -----
  +--> ?PR?_E_D_M?EEPROM

?PR?_E_D_M?EEPROM                                -----    -----      -----    -----      -----    -----
  +--> ?PR?P_ME?EEPROM

?PR?ACKD?EEPROM                                  -----    -----      -----    -----      -----    -----
  +--> ?PR?_E_D_M?EEPROM

BL51 BANKED LINKER/LOCATER V6.22.2.0                                                  10/02/2020  15:54:40  PAGE 8


?PR?FIRST_CLAVE?PROG                             -----    -----      -----    -----      005AH    000BH
  +--> ?PR?_BLOCK_READ_CLOCK_ASCII?CLOCK
  +--> ?PR?_HASH_ID?PROG
  +--> ?PR?_ESCRIBIRMEMORIA?EEPROM

?PR?_BLOCK_READ_CLOCK_ASCII?CLOCK                -----    -----      -----    -----      0065H    0003H
  +--> ?PR?_LEE_CLK?CLOCK

?PR?_LEE_CLK?CLOCK                               -----    -----      -----    -----      00C5H    0003H
  +--> ?PR?_DELAY_20US?DELAY
  +--> ?PR?_EB_CLK?CLOCK
  +--> ?PR?P_CK?CLOCK

?PR?_EB_CLK?CLOCK                                -----    -----      -----    -----      00C8H    0003H
  +--> ?PR?P_CK?CLOCK

?PR?P_CK?CLOCK                                   -----    -----      -----    -----      -----    -----
  +--> ?PR?DELAY?DELAY

?PR?_HASH_ID?PROG                                -----    -----      -----    -----      0071H    003FH
  +--> ?CO?PROG
  +--> ?PR?_LEERMEMORIA?EEPROM
  +--> ?PR?_CHECK_FECHAOUT_2?CLOCK
  +--> ?PR?PRINTF?PRINTF
  +--> ?PR?_STRLEN?STRLEN

?PR?_LEERMEMORIA?EEPROM                          -----    -----      -----    -----      00B0H    0005H
  +--> ?PR?_RD_EEPROM?EEPROM

?PR?_CHECK_FECHAOUT_2?CLOCK                      -----    -----      -----    -----      00B0H    0012H
  +--> ?PR?_BLOCK_READ_CLOCK_HEX?CLOCK

?PR?_BLOCK_READ_CLOCK_HEX?CLOCK                  -----    -----      -----    -----      00C2H    0003H
  +--> ?PR?_LEE_CLK?CLOCK
  +--> ?PR?_BCD_HEX?CLOCK

?PR?_ESCRIBIRMEMORIA?EEPROM                      -----    -----      -----    -----      0071H    0005H
  +--> ?PR?_WR_EEPROM?EEPROM

?PR?_WR_EEPROM?EEPROM                            -----    -----      -----    -----      -----    -----
  +--> ?PR?START?EEPROM
  +--> ?PR?ACKD?EEPROM
  +--> ?PR?_E_D_M?EEPROM
  +--> ?PR?STOP?EEPROM
  +--> ?PR?_DELAY_1MS?DELAY
  +--> ?PR?_DELAY_20US?DELAY

?PR?_DELAY_1MS?DELAY                             -----    -----      -----    -----      -----    -----
  +--> ?PR?_DELAY_20US?DELAY

?PR?_INGRESADATO?PROG                            -----    -----      -----    -----      0085H    0004H
  +--> ?PR?_GETKEY?MAIN
  +--> ?CO?PROG
  +--> ?PR?PRINTF?PRINTF
  +--> ?PR?_PUTCHAR?MAIN

?PR?_GETKEY?MAIN                                 -----    -----      -----    -----      -----    -----
BL51 BANKED LINKER/LOCATER V6.22.2.0                                                  10/02/2020  15:54:40  PAGE 9


  +--> ?PR?COM_GETCHAR?UART

?PR?COM_GETCHAR?UART                             -----    -----      -----    -----      -----    -----
  +--> ?PR?COM_RBUFLEN?UART

?PR?_GETCMD?PROG                                 -----    -----      -----    -----      0071H    0007H
  +--> ?CO?PROG
  +--> ?PR?_STRTOK?STRTOK

?PR?_STRTOK?STRTOK                               -----    -----      -----    -----      0078H    0006H
  +--> ?PR?_STRSPN?STRSPN
  +--> ?PR?_STRPBRK?STRPBRK

?PR?_STRSPN?STRSPN                               -----    -----      -----    -----      007EH    0008H

?PR?_STRPBRK?STRPBRK                             -----    -----      -----    -----      007EH    0009H

?PR?_VALIDARCLAVE?PROG                           -----    -----      -----    -----      0071H    000AH

?PR?DISPLAYCURSOR?PROG                           -----    -----      -----    -----      -----    -----
  +--> ?CO?PROG
  +--> ?PR?PRINTF?PRINTF

?PR?_GETOPTION?PROG                              -----    -----      -----    -----      005AH    000BH
  +--> ?CO?PROG
  +--> ?PR?_STRTOK?STRTOK

?PR?_STRCAT?STRCAT                               -----    -----      -----    -----      005AH    0009H

?PR?_LISTACOMANDOS?PROG                          -----    -----      -----    -----      005AH    0007H

?PR?PROG_ID_CLIENTE?PROG                         -----    -----      -----    -----      005AH    000CH
  +--> ?PR?_RD_EEPROM?EEPROM
  +--> ?CO?PROG
  +--> ?PR?PRINTF?PRINTF
  +--> ?PR?_INGRESADATO?PROG
  +--> ?PR?_ATOI?ATOI
  +--> ?PR?_WR_EEPROM?EEPROM

?PR?_ATOI?ATOI                                   0020H.0  0000H.1    -----    -----      0085H    0005H
  +--> ?PR?_ISSPACE?ISSPACE
  +--> ?PR?_ISDIGIT?ISDIGIT

?PR?PROG_COD_PARK?PROG                           -----    -----      -----    -----      005AH    000CH
  +--> ?PR?_RD_EEPROM?EEPROM
  +--> ?CO?PROG
  +--> ?PR?PRINTF?PRINTF
  +--> ?PR?_INGRESADATO?PROG
  +--> ?PR?_ATOI?ATOI
  +--> ?PR?_WR_EEPROM?EEPROM

?PR?PROG_TIEMPO_GRACIA?PROG                      -----    -----      -----    -----      005AH    000CH
  +--> ?PR?_RD_EEPROM?EEPROM
  +--> ?CO?PROG
  +--> ?PR?PRINTF?PRINTF
  +--> ?PR?_INGRESADATO?PROG
  +--> ?PR?_ATOI?ATOI
BL51 BANKED LINKER/LOCATER V6.22.2.0                                                  10/02/2020  15:54:40  PAGE 10


  +--> ?PR?_WR_EEPROM?EEPROM

?PR?PROG_SIN_COBRO?PROG                          -----    -----      -----    -----      005AH    000CH
  +--> ?PR?_RD_EEPROM?EEPROM
  +--> ?CO?PROG
  +--> ?PR?PRINTF?PRINTF
  +--> ?PR?_INGRESADATO?PROG
  +--> ?PR?_ATOI?ATOI
  +--> ?PR?_WR_EEPROM?EEPROM

?PR?PROG_DEBUG?PROG                              -----    -----      -----    -----      005AH    000CH
  +--> ?PR?_RD_EEPROM?EEPROM
  +--> ?CO?PROG
  +--> ?PR?PRINTF?PRINTF
  +--> ?PR?_INGRESADATO?PROG
  +--> ?PR?_ATOI?ATOI
  +--> ?PR?_WR_EEPROM?EEPROM

?PR?PROG_USE_LPR?PROG                            -----    -----      -----    -----      005AH    000CH
  +--> ?PR?_RD_EEPROM?EEPROM
  +--> ?CO?PROG
  +--> ?PR?PRINTF?PRINTF
  +--> ?PR?_INGRESADATO?PROG
  +--> ?PR?_ATOI?ATOI
  +--> ?PR?_WR_EEPROM?EEPROM

?PR?PROG_COMPARACION_ACTIVA?PROG                 -----    -----      -----    -----      005AH    000CH
  +--> ?PR?_RD_EEPROM?EEPROM
  +--> ?CO?PROG
  +--> ?PR?PRINTF?PRINTF
  +--> ?PR?_INGRESADATO?PROG
  +--> ?PR?_ATOI?ATOI
  +--> ?PR?_WR_EEPROM?EEPROM

?PR?TIPO_PANTALLA?PROG                           -----    -----      -----    -----      005AH    000CH
  +--> ?PR?_RD_EEPROM?EEPROM
  +--> ?CO?PROG
  +--> ?PR?PRINTF?PRINTF
  +--> ?PR?_INGRESADATO?PROG
  +--> ?PR?_ATOI?ATOI
  +--> ?PR?_WR_EEPROM?EEPROM

?PR?DCTO_CAJA?PROG                               -----    -----      -----    -----      005AH    000CH
  +--> ?PR?_RD_EEPROM?EEPROM
  +--> ?CO?PROG
  +--> ?PR?PRINTF?PRINTF
  +--> ?PR?_INGRESADATO?PROG
  +--> ?PR?_ATOI?ATOI
  +--> ?PR?_WR_EEPROM?EEPROM

?PR?PROG_APB_MENSUAL?PROG                        -----    -----      -----    -----      005AH    000CH
  +--> ?PR?_RD_EEPROM?EEPROM
  +--> ?CO?PROG
  +--> ?PR?PRINTF?PRINTF
  +--> ?PR?_INGRESADATO?PROG
  +--> ?PR?_ATOI?ATOI
  +--> ?PR?_WR_EEPROM?EEPROM
BL51 BANKED LINKER/LOCATER V6.22.2.0                                                  10/02/2020  15:54:40  PAGE 11



?PR?PROG_ADDRESS_HIGH_BOARD?PROG                 -----    -----      -----    -----      005AH    000CH
  +--> ?PR?_RD_EEPROM?EEPROM
  +--> ?CO?PROG
  +--> ?PR?PRINTF?PRINTF
  +--> ?PR?_INGRESADATO?PROG
  +--> ?PR?_ATOI?ATOI
  +--> ?PR?_WR_EEPROM?EEPROM

?PR?PROG_HORARIOS?PROG                           -----    -----      -----    -----      005AH    001BH
  +--> ?PR?ADDR_HORARIOS?PROG
  +--> ?CO?PROG
  +--> ?PR?PRINTF?PRINTF
  +--> ?PR?_INGRESADATO?PROG
  +--> ?PR?_ATOI?ATOI
  +--> ?PR?_PROG_HORARIOS_ON_OFF?PROG
  +--> ?PR?_WR_EEPROM?EEPROM
  +--> ?PR?_PROG_HORARIO_DIAS?PROG
  +--> ?PR?_PROG_HORARIO_DESDE_HASTA?PROG
  +--> ?PR?_RD_EEPROM?EEPROM

?PR?ADDR_HORARIOS?PROG                           -----    -----      -----    -----      0088H    000BH

?PR?_PROG_HORARIOS_ON_OFF?PROG                   -----    -----      -----    -----      0075H    0010H
  +--> ?PR?_RD_EEPROM?EEPROM
  +--> ?CO?PROG
  +--> ?PR?PRINTF?PRINTF
  +--> ?PR?_INGRESADATO?PROG
  +--> ?PR?_ATOI?ATOI
  +--> ?PR?_WR_EEPROM?EEPROM

?PR?_PROG_HORARIO_DIAS?PROG                      -----    -----      -----    -----      0075H    000FH
  +--> ?CO?PROG
  +--> ?PR?PRINTF?PRINTF
  +--> ?PR?_INGRESADATO?PROG
  +--> ?PR?_WR_EEPROM?EEPROM
  +--> ?PR?_RD_EEPROM?EEPROM

?PR?_PROG_HORARIO_DESDE_HASTA?PROG               -----    -----      -----    -----      0075H    000CH
  +--> ?CO?PROG
  +--> ?PR?PRINTF?PRINTF
  +--> ?PR?_INGRESADATO?PROG
  +--> ?PR?_WR_EEPROM?EEPROM
  +--> ?PR?_RD_EEPROM?EEPROM

?PR?VER_PROG?PROG                                -----    -----      -----    -----      005AH    0013H
  +--> ?PR?_RD_EEPROM?EEPROM
  +--> ?CO?PROG
  +--> ?PR?PRINTF?PRINTF
  +--> ?PR?VER_HORARIO?PROG
  +--> ?PR?_LEERMEMORIA?EEPROM
  +--> ?PR?_HEX_ASCII?CLOCK

?PR?VER_HORARIO?PROG                             -----    -----      -----    -----      006DH    001BH
  +--> ?PR?ADDR_HORARIOS?PROG
  +--> ?CO?PROG
  +--> ?PR?PRINTF?PRINTF
BL51 BANKED LINKER/LOCATER V6.22.2.0                                                  10/02/2020  15:54:40  PAGE 12


  +--> ?PR?_RD_EEPROM?EEPROM
  +--> ?PR?_VER_HORARIO_DIAS?PROG
  +--> ?PR?_VER_HORARIO_DESDE_HASTA?PROG

?PR?_VER_HORARIO_DIAS?PROG                       -----    -----      -----    -----      0088H    0003H
  +--> ?PR?_RD_EEPROM?EEPROM
  +--> ?CO?PROG
  +--> ?PR?PRINTF?PRINTF

?PR?_VER_HORARIO_DESDE_HASTA?PROG                -----    -----      -----    -----      0088H    0002H
  +--> ?CO?PROG
  +--> ?PR?PRINTF?PRINTF
  +--> ?PR?_RD_EEPROM?EEPROM

?PR?_HEX_ASCII?CLOCK                             -----    -----      -----    -----      0071H    0006H
  +--> ?PR?_HEX_BCD?CLOCK

?PR?SHOW?PROG                                    -----    -----      -----    -----      -----    -----
  +--> ?CO?PROG
  +--> ?PR?PRINTF?PRINTF

?PR?PROG_FECHA_VENCIMIENTO?PROG                  -----    -----      -----    -----      005AH    0017H
  +--> ?PR?_LEERMEMORIA?EEPROM
  +--> ?PR?_HEX_ASCII?CLOCK
  +--> ?CO?PROG
  +--> ?PR?PRINTF?PRINTF
  +--> ?PR?_HASH_ID?PROG
  +--> ?PR?_INGRESADATO?PROG
  +--> ?PR?_GETCMD?PROG
  +--> ?PR?_ESCRIBIRMEMORIA?EEPROM
  +--> ?PR?_VALIDARCLAVE?PROG
  +--> ?PR?_ATOI?ATOI
  +--> ?PR?_WR_EEPROM?EEPROM

?PR?VARIABLE_INICIO?EEPROM                       -----    -----      -----    -----      -----    -----
  +--> ?PR?_RD_EEPROM?EEPROM

?PR?SECUENCIA_INICIO_EXPEDIDOR?VERIFI...         -----    -----      -----    -----      0001H    0001H
  +--> ?PR?_INICIALIZA?LINTECH
  +--> ?PR?TRAMA_VALIDACION_P_N?VERIFICADOR
  +--> ?CO?VERIFICADOR
  +--> ?PR?_DEBUG_TXT_TIBBO?TIBBO
  +--> ?PR?_DEBUGBUFFERMF?TIBBO
  +--> ?PR?DWLOAD_EEPROM?LINTECH

?PR?_INICIALIZA?LINTECH                          -----    -----      -----    -----      0002H    000CH
  +--> ?CO?LINTECH
  +--> ?PR?_DEBUG_TXT_TIBBO?TIBBO
  +--> ?PR?_DEBUGBUFFERMF?TIBBO
  +--> ?PR?_ESCRIBIRCADENASOFT_BUFFER?MAIN

?PR?_DEBUG_TXT_TIBBO?TIBBO                       -----    -----      -----    -----      0041H    0004H
  +--> ?CO?TIBBO
  +--> ?PR?_TX_AUX?TIBBO

?PR?_DEBUGBUFFERMF?TIBBO                         -----    -----      -----    -----      003BH    0006H
  +--> ?CO?TIBBO
BL51 BANKED LINKER/LOCATER V6.22.2.0                                                  10/02/2020  15:54:40  PAGE 13


  +--> ?PR?_DEBUG_TXT_TIBBO?TIBBO
  +--> ?PR?_DEBUG_CHR_TIBBO?TIBBO
  +--> ?PR?_TX_AUX?TIBBO

?PR?_DEBUG_CHR_TIBBO?TIBBO                       -----    -----      -----    -----      -----    -----
  +--> ?PR?_TX_AUX?TIBBO

?PR?_ESCRIBIRCADENASOFT_BUFFER?MAIN              -----    -----      -----    -----      0037H    0006H
  +--> ?PR?_PUTCHAR?MAIN

?PR?DWLOAD_EEPROM?LINTECH                        -----    -----      -----    -----      0002H    0016H
  +--> ?CO?LINTECH
  +--> ?PR?_DEBUG_TXT_TIBBO?TIBBO
  +--> ?PR?_DEBUGBUFFERMF?TIBBO
  +--> ?PR?_ESCRIBIRCADENASOFT_BUFFER?MAIN

?PR?_RECIBE_CMD_MONITOR?ACCESCAN                 -----    -----      -----    -----      0001H    0006H
  +--> ?PR?RX_DATA?TIBBO

?PR?RX_DATA?TIBBO                                -----    -----      -----    -----      -----    -----
  +--> ?PR?TIME_MBIT?TIBBO
  +--> ?PR?TIME_BIT?TIBBO

?PR?SECUENCIAEXPEDIDOR?VERIFICADOR               -----    -----      -----    -----      0001H    0010H
  +--> ?PR?_CARD_INSERCION?LINTECH
  +--> ?PR?TRAMA_VALIDACION_P_N?VERIFICADOR
  +--> ?CO?VERIFICADOR
  +--> ?PR?ERROR_RX_PTO?VERIFICADOR
  +--> ?PR?_CHECK_STATUS?LINTECH
  +--> ?PR?_DEBUG_TXT_TIBBO?TIBBO
  +--> ?PR?_DEBUGBUFFERMF?TIBBO
  +--> ?PR?VALIDASENSORESPASO?IO_SENSORES
  +--> ?PR?_SEND_PORTERR?PTO_PARALELO
  +--> ?PR?_PANTALLALCD?PANTALLAS
  +--> ?PR?_RD_MF?LINTECH
  +--> ?PR?_RESPONDE_LECTURA_TARJETA_SECTOR1...
  +--> ?PR?_RESPONDE_LECTURA_TARJETA_SECTOR1...
  +--> ?PR?_BLOCK_READ_CLOCK_HEX?CLOCK
  +--> ?PR?_RD_EEPROM?EEPROM
  +--> ?PR?DEBUG_DIVIDIR_TEXTO?TIBBO
  +--> ?PR?_DEBUG_CHR_TIBBO?TIBBO
  +--> ?PR?PRINTF?PRINTF
  +--> ?PR?_ANALIZA_TIEMPO?CLOCK
  +--> ?PR?VALIDAR_PAGO?VERIFICADOR
  +--> ?PR?_HORARIOS?VERIFICADOR
  +--> ?PR?_CHECK_FECHAOUT_2?CLOCK
  +--> ?PR?_VALIDA_MISMO_DIA?VERIFICADOR
  +--> ?PR?_RESPONDE_LECTURA_TARJETA_SECTOR1...
  +--> ?PR?_WR_MF?LINTECH
  +--> ?PR?_MOV_CARD?LINTECH
  +--> ?PR?VALIDASENSORES_OUT?IO_SENSORES
  +--> ?PR?_TRAMA_PTO_PARALELO_P?PTO_PARALELO
  +--> ?PR?UNIQUE_IDENTIFIER_UID?LINTECH
  +--> ?PR?_ANALIZA_UID_CARD?VERIFICADOR
  +--> ?PR?LOADVERIFY_EEPROM?LINTECH
  +--> ?PR?POWER_OFF?LINTECH
  +--> ?PR?AUT_CARD_CHECK_STATUS?LINTECH
BL51 BANKED LINKER/LOCATER V6.22.2.0                                                  10/02/2020  15:54:40  PAGE 14



?PR?_CARD_INSERCION?LINTECH                      -----    -----      -----    -----      0011H    000AH
  +--> ?CO?LINTECH
  +--> ?PR?_DEBUG_TXT_TIBBO?TIBBO
  +--> ?PR?_DEBUGBUFFERMF?TIBBO
  +--> ?PR?_ESCRIBIRCADENASOFT_BUFFER?MAIN

?PR?ERROR_RX_PTO?VERIFICADOR                     -----    -----      -----    -----      0011H    0001H
  +--> ?CO?VERIFICADOR
  +--> ?PR?_DEBUG_TXT_TIBBO?TIBBO
  +--> ?PR?_DEBUG_CHR_TIBBO?TIBBO
  +--> ?PR?_DELAY_10MS?DELAY

?PR?_DELAY_10MS?DELAY                            -----    -----      -----    -----      0012H    0004H
  +--> ?PR?_DELAY_1MS?DELAY

?PR?_CHECK_STATUS?LINTECH                        -----    -----      -----    -----      0011H    000BH
  +--> ?CO?LINTECH
  +--> ?PR?_DEBUG_TXT_TIBBO?TIBBO
  +--> ?PR?_DEBUGBUFFERMF?TIBBO
  +--> ?PR?_ESCRIBIRCADENASOFT_BUFFER?MAIN

?PR?VALIDASENSORESPASO?IO_SENSORES               -----    -----      -----    -----      -----    -----
  +--> ?PR?SEL_SENSOR2?IO_SENSORES
  +--> ?PR?VALIDASENSOR?IO_SENSORES
  +--> ?PR?SEL_SENSOR1?IO_SENSORES
  +--> ?PR?SEL_AUTO?IO_SENSORES
  +--> ?CO?IO_SENSORES
  +--> ?PR?_DEBUG_TXT_TIBBO?TIBBO

?PR?_SEND_PORTERR?PTO_PARALELO                   -----    -----      -----    -----      002EH    0006H
  +--> ?PR?PULSO_BUS?PTO_PARALELO
  +--> ?PR?_DELAY_20US?DELAY

?PR?PULSO_BUS?PTO_PARALELO                       -----    -----      -----    -----      -----    -----
  +--> ?PR?_DELAY_20US?DELAY

?PR?_PANTALLALCD?PANTALLAS                       -----    -----      -----    -----      002EH    000AH
  +--> ?CO?PANTALLAS
  +--> ?PR?_INIT_MEMPOOL?INIT_MEM
  +--> ?PR?_MALLOC?MALLOC
  +--> ?PR?_LCD_TXT?PANTALLAS
  +--> ?PR?_STRLEN?STRLEN
  +--> ?PR?_TX_CHRLCD?PANTALLAS
  +--> ?PR?_RASPBERRY_DATA?PANTALLAS
  +--> ?PR?_FREE?FREE

?PR?_MALLOC?MALLOC                               -----    -----      -----    -----      0038H    0006H

?PR?_LCD_TXT?PANTALLAS                           -----    -----      -----    -----      003AH    0005H
  +--> ?PR?_TX_CHRLCD?PANTALLAS

?PR?_TX_CHRLCD?PANTALLAS                         -----    -----      -----    -----      003FH    0002H
  +--> ?PR?_PUTCHAR?MAIN

?PR?_RASPBERRY_DATA?PANTALLAS                    -----    -----      -----    -----      003AH    0004H
  +--> ?PR?_STRLEN?STRLEN
BL51 BANKED LINKER/LOCATER V6.22.2.0                                                  10/02/2020  15:54:40  PAGE 15


  +--> ?PR?_PUTCHAR?MAIN

?PR?_FREE?FREE                                   -----    -----      -----    -----      0038H    0006H

?PR?_RD_MF?LINTECH                               -----    -----      -----    -----      0011H    0012H
  +--> ?CO?LINTECH
  +--> ?PR?_DEBUG_TXT_TIBBO?TIBBO
  +--> ?PR?_DEBUG_CHR_TIBBO?TIBBO
  +--> ?PR?_DEBUGBUFFERMF?TIBBO
  +--> ?PR?_ESCRIBIRCADENASOFT_BUFFER?MAIN

?PR?_RESPONDE_LECTURA_TARJETA_SECTOR1...         -----    -----      -----    -----      0011H    0004H
  +--> ?CO?VERIFICADOR
  +--> ?PR?_DEBUG_TXT_TIBBO?TIBBO
  +--> ?PR?_DEBUGBUFFERMF?TIBBO
  +--> ?PR?_DEBUG_HEXDEC?TIBBO
  +--> ?PR?_DEBUG_CHR_TIBBO?TIBBO
  +--> ?PR?_SEND_PORTERR?PTO_PARALELO
  +--> ?PR?_PANTALLALCD?PANTALLAS

?PR?_DEBUG_HEXDEC?TIBBO                          -----    -----      -----    -----      0015H    0002H
  +--> ?PR?_TX_AUX?TIBBO

?PR?_RESPONDE_LECTURA_TARJETA_SECTOR1...         -----    -----      -----    -----      0011H    0004H
  +--> ?CO?VERIFICADOR
  +--> ?PR?_DEBUG_TXT_TIBBO?TIBBO
  +--> ?PR?_DEBUGBUFFERMF?TIBBO
  +--> ?PR?_DEBUG_CHR_TIBBO?TIBBO
  +--> ?PR?_SEND_PORTERR?PTO_PARALELO
  +--> ?PR?_RD_EEPROM?EEPROM
  +--> ?PR?_PANTALLALCD?PANTALLAS

?PR?DEBUG_DIVIDIR_TEXTO?TIBBO                    -----    -----      -----    -----      -----    -----
  +--> ?CO?TIBBO
  +--> ?PR?_DEBUG_TXT_TIBBO?TIBBO

?PR?_ANALIZA_TIEMPO?CLOCK                        0020H.0  0000H.2    -----    -----      0011H    000FH

?PR?VALIDAR_PAGO?VERIFICADOR                     -----    -----      -----    -----      0011H    0002H
  +--> ?PR?_CHECK_FECHAOUT?CLOCK
  +--> ?CO?VERIFICADOR
  +--> ?PR?_DEBUG_TXT_TIBBO?TIBBO
  +--> ?PR?_SEND_PORTERR?PTO_PARALELO
  +--> ?PR?_PANTALLALCD?PANTALLAS

?PR?_CHECK_FECHAOUT?CLOCK                        -----    -----      -----    -----      0013H    000AH
  +--> ?PR?_BLOCK_READ_CLOCK_HEX?CLOCK
  +--> ?PR?_DEBUG_FECHA_ACTUAL?TIBBO

?PR?_DEBUG_FECHA_ACTUAL?TIBBO                    -----    -----      -----    -----      001DH    0003H
  +--> ?CO?TIBBO
  +--> ?PR?_DEBUG_TXT_TIBBO?TIBBO
  +--> ?PR?_HEX_BCD?CLOCK
  +--> ?PR?_DEBUG_CHR_TIBBO?TIBBO
  +--> ?PR?_TX_AUX?TIBBO

?PR?_HORARIOS?VERIFICADOR                        -----    -----      -----    -----      0011H    0011H
BL51 BANKED LINKER/LOCATER V6.22.2.0                                                  10/02/2020  15:54:40  PAGE 16


  +--> ?PR?ADDR_HORARIOS?PROG
  +--> ?PR?_RD_EEPROM?EEPROM
  +--> ?PR?_LEE_CLK?CLOCK
  +--> ?CO?VERIFICADOR
  +--> ?PR?_DEBUG_TXT_TIBBO?TIBBO
  +--> ?PR?_DEBUG_CHR_TIBBO?TIBBO
  +--> ?PR?_BLOQUE_HORARIO?VERIFICADOR
  +--> ?PR?_PANTALLALCD?PANTALLAS

?PR?_BLOQUE_HORARIO?VERIFICADOR                  -----    -----      -----    -----      0022H    0007H
  +--> ?CO?VERIFICADOR
  +--> ?PR?_DEBUG_TXT_TIBBO?TIBBO
  +--> ?PR?_LEE_CLK?CLOCK
  +--> ?PR?_DEBUG_CHR_TIBBO?TIBBO
  +--> ?PR?_HORA_MAXIMA?VERIFICADOR
  +--> ?PR?_EN_HORARIO?VERIFICADOR
  +--> ?PR?_RD_EEPROM?EEPROM
  +--> ?PR?_SEND_PORTERR?PTO_PARALELO
  +--> ?PR?_PANTALLALCD?PANTALLAS

?PR?_HORA_MAXIMA?VERIFICADOR                     -----    -----      -----    -----      002EH    0008H
  +--> ?PR?_RD_EEPROM?EEPROM
  +--> ?PR?_DEBUG_CHR_TIBBO?TIBBO
  +--> ?CO?VERIFICADOR
  +--> ?PR?_DEBUG_TXT_TIBBO?TIBBO

?PR?_EN_HORARIO?VERIFICADOR                      -----    -----      -----    -----      0029H    0005H
  +--> ?CO?VERIFICADOR
  +--> ?PR?_DEBUG_TXT_TIBBO?TIBBO
  +--> ?PR?_HORA_MAXIMA?VERIFICADOR
  +--> ?PR?_SEND_PORTERR?PTO_PARALELO
  +--> ?PR?_PANTALLALCD?PANTALLAS

?PR?_VALIDA_MISMO_DIA?VERIFICADOR                -----    -----      -----    -----      0011H    0006H
  +--> ?PR?_LEE_CLK?CLOCK
  +--> ?PR?_BCD_HEX?CLOCK

?PR?_RESPONDE_LECTURA_TARJETA_SECTOR1...         -----    -----      -----    -----      0011H    0004H
  +--> ?CO?VERIFICADOR
  +--> ?PR?_DEBUG_TXT_TIBBO?TIBBO
  +--> ?PR?_TRAMA_PTO_PARALELO_NEW?PTO_PARALELO
  +--> ?PR?_ARMAR_TRAMA_PTO_PARALELO_EXPEDID...
  +--> ?PR?_CMD_LPR_SALIDA?ACCESCAN

?PR?_TRAMA_PTO_PARALELO_NEW?PTO_PARALELO         -----    -----      -----    -----      0015H    0026H
  +--> ?PR?_BLOCK_READ_CLOCK_HEX?CLOCK
  +--> ?PR?_SEND_PORT?PTO_PARALELO
  +--> ?PR?DEBUG_DIVIDIR_TEXTO?TIBBO
  +--> ?CO?PTO_PARALELO
  +--> ?PR?_DEBUG_TXT_TIBBO?TIBBO
  +--> ?PR?_DEBUGBUFFERMF?TIBBO

?PR?_SEND_PORT?PTO_PARALELO                      -----    -----      -----    -----      003BH    000AH
  +--> ?PR?PULSO_BUS?PTO_PARALELO
  +--> ?PR?_DELAY_20US?DELAY

?PR?_ARMAR_TRAMA_PTO_PARALELO_EXPEDID...         -----    -----      -----    -----      0015H    0003H
BL51 BANKED LINKER/LOCATER V6.22.2.0                                                  10/02/2020  15:54:40  PAGE 17


  +--> ?PR?_RD_EEPROM?EEPROM
  +--> ?PR?_SEND_PORT?PTO_PARALELO
  +--> ?PR?DEBUG_DIVIDIR_TEXTO?TIBBO
  +--> ?CO?VERIFICADOR
  +--> ?PR?_DEBUG_TXT_TIBBO?TIBBO
  +--> ?PR?_DEBUGBUFFERMF?TIBBO

?PR?_CMD_LPR_SALIDA?ACCESCAN                     -----    -----      -----    -----      0015H    0025H
  +--> ?PR?DIR_BOARD_MONITOR?IO_SENSORES
  +--> ?PR?_BYTEHEX_DECIMAL?CLOCK
  +--> ?PR?_STRLEN?STRLEN
  +--> ?PR?_TWO_BYTEHEX_DECIMAL?CLOCK
  +--> ?PR?_BLOCK_READ_CLOCK_ASCII?CLOCK
  +--> ?PR?_MONITOR_CHR?ACCESCAN

?PR?DIR_BOARD_MONITOR?IO_SENSORES                -----    -----      -----    -----      -----    -----
  +--> ?PR?_RD_EEPROM?EEPROM

?PR?_BYTEHEX_DECIMAL?CLOCK                       -----    -----      -----    -----      003AH    0001H

?PR?_TWO_BYTEHEX_DECIMAL?CLOCK                   -----    -----      -----    -----      003AH    000CH
  +--> ?PR?_POW?POW

?PR?_POW?POW                                     -----    -----      -----    -----      0046H    000AH
  +--> ?PR?LOG?LOG
  +--> ?PR?EXP?EXP

?PR?LOG?LOG                                      0020H.0  0000H.1    -----    -----      0050H    0004H

?PR?_MONITOR_CHR?ACCESCAN                        -----    -----      -----    -----      003AH    0005H
  +--> ?PR?_TX_AUX?TIBBO

?PR?_WR_MF?LINTECH                               -----    -----      -----    -----      0011H    0026H
  +--> ?CO?LINTECH
  +--> ?PR?_DEBUG_TXT_TIBBO?TIBBO
  +--> ?PR?_DEBUG_CHR_TIBBO?TIBBO
  +--> ?PR?DIR_BOARD?IO_SENSORES
  +--> ?PR?_DEBUGBUFFERMF?TIBBO
  +--> ?PR?_ESCRIBIRCADENASOFT_BUFFER?MAIN

?PR?DIR_BOARD?IO_SENSORES                        -----    -----      -----    -----      0037H    0001H
  +--> ?PR?SEL_DIR1?IO_SENSORES
  +--> ?PR?SEL_DIR2?IO_SENSORES
  +--> ?PR?_RD_EEPROM?EEPROM

?PR?_MOV_CARD?LINTECH                            -----    -----      -----    -----      0011H    000CH
  +--> ?CO?LINTECH
  +--> ?PR?_DEBUG_TXT_TIBBO?TIBBO
  +--> ?PR?_DEBUGBUFFERMF?TIBBO
  +--> ?PR?_ESCRIBIRCADENASOFT_BUFFER?MAIN

?PR?VALIDASENSORES_OUT?IO_SENSORES               -----    -----      -----    -----      -----    -----
  +--> ?PR?SEL_SENSOR2?IO_SENSORES
  +--> ?PR?VALIDASENSOR?IO_SENSORES

?PR?_TRAMA_PTO_PARALELO_P?PTO_PARALELO           -----    -----      -----    -----      0011H    0008H
  +--> ?PR?_SEND_PORT?PTO_PARALELO
BL51 BANKED LINKER/LOCATER V6.22.2.0                                                  10/02/2020  15:54:40  PAGE 18


  +--> ?PR?DEBUG_DIVIDIR_TEXTO?TIBBO
  +--> ?PR?_DEBUGBUFFERMF?TIBBO

?PR?UNIQUE_IDENTIFIER_UID?LINTECH                -----    -----      -----    -----      0011H    000BH
  +--> ?CO?LINTECH
  +--> ?PR?_DEBUG_TXT_TIBBO?TIBBO
  +--> ?PR?_DEBUGBUFFERMF?TIBBO
  +--> ?PR?_ESCRIBIRCADENASOFT_BUFFER?MAIN

?PR?_ANALIZA_UID_CARD?VERIFICADOR                -----    -----      -----    -----      0011H    0004H
  +--> ?CO?VERIFICADOR
  +--> ?PR?_DEBUG_TXT_TIBBO?TIBBO
  +--> ?PR?_DEBUGBUFFERMF?TIBBO
  +--> ?PR?_DEBUG_CHR_TIBBO?TIBBO

?PR?LOADVERIFY_EEPROM?LINTECH                    -----    -----      -----    -----      0011H    0010H
  +--> ?CO?LINTECH
  +--> ?PR?_DEBUG_TXT_TIBBO?TIBBO
  +--> ?PR?_DEBUGBUFFERMF?TIBBO
  +--> ?PR?_ESCRIBIRCADENASOFT_BUFFER?MAIN

?PR?POWER_OFF?LINTECH                            -----    -----      -----    -----      0011H    000BH
  +--> ?CO?LINTECH
  +--> ?PR?_DEBUG_TXT_TIBBO?TIBBO
  +--> ?PR?_DEBUGBUFFERMF?TIBBO
  +--> ?PR?_ESCRIBIRCADENASOFT_BUFFER?MAIN

?PR?AUT_CARD_CHECK_STATUS?LINTECH                -----    -----      -----    -----      0011H    000BH
  +--> ?CO?LINTECH
  +--> ?PR?_DEBUG_TXT_TIBBO?TIBBO
  +--> ?PR?_DEBUGBUFFERMF?TIBBO
  +--> ?PR?_ESCRIBIRCADENASOFT_BUFFER?MAIN

?PR?_RECIBE_PORT?PTO_PARALELO                    -----    -----      -----    -----      0001H    0008H
  +--> ?PR?OFF_TIMER0_INTERRUP?MAIN
  +--> ?PR?ON_TIMER0_INTERRUP?MAIN

?PR?_VALIDA_TRAMA_PTO?ACCESCAN                   -----    -----      -----    -----      0001H    000FH
  +--> ?PR?_RD_EEPROM?EEPROM
  +--> ?PR?_VALIDAR_CLK?CLOCK
  +--> ?PR?_BLOCK_WRITE_CLOCK_ASCII?CLOCK
  +--> ?PR?RELOJ_PANTALLA_LCD?PANTALLAS
  +--> ?PR?_PANTALLALCD?PANTALLAS
  +--> ?CO?ACCESCAN
  +--> ?PR?_DEBUG_TXT_TIBBO?TIBBO
  +--> ?PR?_BYTEHEX_DECIMAL?CLOCK
  +--> ?PR?_TWO_BYTEHEX_DECIMAL?CLOCK
  +--> ?PR?VALIDASENSORESPASO?IO_SENSORES
  +--> ?PR?_CMD_LPR_SALIDA_WIEGAND?ACCESCAN
  +--> ?PR?_PANTALLALCD_LINEA_2?PANTALLAS

?PR?_BLOCK_WRITE_CLOCK_ASCII?CLOCK               -----    -----      -----    -----      0010H    0003H
  +--> ?PR?_TWO_ONE?CLOCK
  +--> ?PR?_WR_CLK?CLOCK

?PR?_WR_CLK?CLOCK                                -----    -----      -----    -----      0013H    0002H
  +--> ?PR?_DELAY_20US?DELAY
BL51 BANKED LINKER/LOCATER V6.22.2.0                                                  10/02/2020  15:54:40  PAGE 19


  +--> ?PR?_EB_CLK?CLOCK

?PR?RELOJ_PANTALLA_LCD?PANTALLAS                 -----    -----      -----    -----      0010H    0014H
  +--> ?PR?_BLOCK_READ_CLOCK?CLOCK
  +--> ?PR?_LCD_TXT_NUM_CHAR?PANTALLAS
  +--> ?CO?PANTALLAS
  +--> ?PR?_STRLEN?STRLEN
  +--> ?PR?_BLOCK_READ_CLOCK_RASBERRY?CLOCK
  +--> ?PR?_STRCAT?STRCAT
  +--> ?PR?_RASPBERRY_DATA?PANTALLAS

?PR?_BLOCK_READ_CLOCK?CLOCK                      -----    -----      -----    -----      0024H    0003H
  +--> ?PR?_LEE_CLK?CLOCK

?PR?_LCD_TXT_NUM_CHAR?PANTALLAS                  -----    -----      -----    -----      0024H    0006H
  +--> ?PR?_TX_CHRLCD?PANTALLAS

?PR?_BLOCK_READ_CLOCK_RASBERRY?CLOCK             -----    -----      -----    -----      0024H    0003H
  +--> ?PR?_LEE_CLK?CLOCK

?PR?_CMD_LPR_SALIDA_WIEGAND?ACCESCAN             -----    -----      -----    -----      0010H    0022H
  +--> ?PR?DIR_BOARD_MONITOR?IO_SENSORES
  +--> ?PR?_BLOCK_READ_CLOCK_ASCII?CLOCK
  +--> ?PR?_MONITOR_CHR?ACCESCAN

?PR?_PANTALLALCD_LINEA_2?PANTALLAS               -----    -----      -----    -----      0010H    002AH
  +--> ?CO?PANTALLAS
  +--> ?PR?_LCD_TXT?PANTALLAS
  +--> ?PR?_STRLEN?STRLEN
  +--> ?PR?_TX_CHRLCD?PANTALLAS
  +--> ?PR?_STRCAT?STRCAT
  +--> ?PR?_RASPBERRY_DATA?PANTALLAS

?PR?_DEBUG_PTO_PARALELO?TIBBO                    -----    -----      -----    -----      0001H    0004H
  +--> ?CO?TIBBO
  +--> ?PR?_DEBUG_TXT_TIBBO?TIBBO
  +--> ?PR?_DEBUGBUFFERMF?TIBBO
  +--> ?PR?_DEBUG_CHR_TIBBO?TIBBO
  +--> ?PR?DEBUG_DIVIDIR_TEXTO?TIBBO

?PR?MSJ_LCD_INFORMATIVO?IO_SENSORES              -----    -----      -----    -----      0001H    0001H
  +--> ?PR?SEL_FUNCION?IO_SENSORES
  +--> ?PR?LOAD_AND_SEND_INFO_RELOJ?PTO_PARA...
  +--> ?PR?LOAD_AND_SEND_ID_COD?PTO_PARALELO
  +--> ?PR?_RD_EEPROM?EEPROM
  +--> ?PR?_SEND_PORTERR?PTO_PARALELO

?PR?LOAD_AND_SEND_INFO_RELOJ?PTO_PARA...         -----    -----      -----    -----      0002H    000BH
  +--> ?PR?_BLOCK_READ_CLOCK?CLOCK
  +--> ?PR?_LEE_CLK?CLOCK
  +--> ?PR?_SEND_PORT?PTO_PARALELO

?PR?LOAD_AND_SEND_ID_COD?PTO_PARALELO            -----    -----      -----    -----      0002H    0011H
  +--> ?CO?PTO_PARALELO
  +--> ?PR?PRINTF?PRINTF
  +--> ?PR?_SEND_PORT?PTO_PARALELO

BL51 BANKED LINKER/LOCATER V6.22.2.0                                                  10/02/2020  15:54:40  PAGE 20




SYMBOL TABLE OF MODULE:  .\Objects\verificador_v_01_raspberry (MAIN)

  VALUE           TYPE          NAME
  ----------------------------------

  -------         MODULE        MAIN
  C:0000H         SYMBOL        _ICE_DUMMY_
  D:0080H         PUBLIC        P0
  D:0090H         PUBLIC        P1
  C:AA96H         PUBLIC        timer0_int
  D:00B0H         PUBLIC        P3
  B:00A8H.7       PUBLIC        EA
  C:AE78H         PUBLIC        off_Timer0_Interrup
  X:010CH         PUBLIC        ValTimeOutCom
  X:010DH         PUBLIC        Buffer_Rta_Lintech
  X:013FH         PUBLIC        Timer_wait
  X:0140H         PUBLIC        g_cContByteRx
  B:0080H.0       PUBLIC        rx_ip
  B:0080H.3       PUBLIC        Atascado
  C:9B9EH         PUBLIC        main
  X:0141H         PUBLIC        Timer_tivo
  B:0090H.7       PUBLIC        lock
  I:0022H         PUBLIC        rbuf
  C:AE69H         PUBLIC        on_Timer0_Interrup
  I:0054H         PUBLIC        tbuf
  B:0090H.1       PUBLIC        DataIn
  D:0089H         PUBLIC        TMOD
  X:0143H         PUBLIC        Debug_Tibbo
  B:0021H.1       PUBLIC        prto_ready
  X:0144H         PUBLIC        Raspberry
  X:0145H         PUBLIC        SIN_COBRO
  X:0147H         PUBLIC        Tipo_Vehiculo
  B:00B0H.3       PUBLIC        busy
  C:ADDBH         PUBLIC        ini_timer
  B:00A8H.1       PUBLIC        ET0
  B:0088H.5       PUBLIC        TF0
  X:0148H         PUBLIC        COMPARACION_ACTIVA
  D:008CH         PUBLIC        TH0
  X:0149H         PUBLIC        ACK
  X:014AH         PUBLIC        g_cEstadoComSoft
  D:008AH         PUBLIC        TL0
  B:0088H.4       PUBLIC        TR0
  C:ADEBH         PUBLIC        inicia_board
  X:014BH         PUBLIC        T_GRACIA
  X:014DH         PUBLIC        COD_PARK
  B:0080H.7       PUBLIC        sel_com
  X:014FH         PUBLIC        STX_LINTECH
  C:AE0AH         PUBLIC        _getkey
  X:0150H         PUBLIC        g_cEstadoComSeqMF
  X:0151H         PUBLIC        ETX
  X:0152H         PUBLIC        ID_CLIENTE
  C:A64DH         PUBLIC        _EscribirCadenaSoft_buffer
  B:0021H.2       PUBLIC        buffer_ready
  C:A92DH         PUBLIC        _putchar
  B:0021H.3       PUBLIC        placa_ready
BL51 BANKED LINKER/LOCATER V6.22.2.0                                                  10/02/2020  15:54:40  PAGE 21


  -------         PROC          TIMER0_INT
  C:AA96H         LINE#         13
  C:AA9CH         LINE#         15
  C:AAA4H         LINE#         16
  C:AAA4H         LINE#         17
  C:AAA6H         LINE#         18
  C:AAA8H         LINE#         19
  C:AAAAH         LINE#         21
  C:AAAAH         LINE#         22
  C:AAB0H         LINE#         23
  C:AAB6H         LINE#         24
  C:AAC4H         LINE#         25
  C:AAC6H         LINE#         26
  C:AAC6H         LINE#         27
  -------         ENDPROC       TIMER0_INT
  -------         PROC          INI_TIMER
  C:ADDBH         LINE#         30
  C:ADDBH         LINE#         31
  C:ADDBH         LINE#         33
  C:ADE3H         LINE#         35
  C:ADE6H         LINE#         36
  C:ADE8H         LINE#         37
  C:ADEAH         LINE#         39
  -------         ENDPROC       INI_TIMER
  -------         PROC          ON_TIMER0_INTERRUP
  C:AE69H         LINE#         42
  C:AE69H         LINE#         43
  C:AE69H         LINE#         44
  C:AE6BH         LINE#         45
  C:AE6DH         LINE#         47
  -------         ENDPROC       ON_TIMER0_INTERRUP
  -------         PROC          OFF_TIMER0_INTERRUP
  C:AE78H         LINE#         50
  C:AE78H         LINE#         51
  C:AE78H         LINE#         52
  C:AE7AH         LINE#         54
  -------         ENDPROC       OFF_TIMER0_INTERRUP
  -------         PROC          _GETKEY
  -------         DO            
  D:0006H         SYMBOL        k
  -------         ENDDO         
  C:AE0AH         LINE#         62
  C:AE0AH         LINE#         63
  C:AE0AH         LINE#         67
  C:AE0AH         LINE#         68
  C:AE0DH         LINE#         69
  C:AE0DH         LINE#         70
  C:AE15H         LINE#         72
  C:AE15H         LINE#         73
  -------         ENDPROC       _GETKEY
  -------         PROC          _PUTCHAR
  X:00E0H         SYMBOL        c
  -------         DO            
  X:00E1H         SYMBOL        i
  -------         ENDDO         
  C:A92DH         LINE#         77
  C:A932H         LINE#         78
BL51 BANKED LINKER/LOCATER V6.22.2.0                                                  10/02/2020  15:54:40  PAGE 22


  C:A932H         LINE#         81
  C:A941H         LINE#         82
  C:A941H         LINE#         83
  C:A957H         LINE#         84
  C:A957H         LINE#         86
  C:A965H         LINE#         87
  C:A965H         LINE#         89
  C:A96AH         LINE#         90
  -------         ENDPROC       _PUTCHAR
  -------         PROC          _ESCRIBIRCADENASOFT_BUFFER
  X:0037H         SYMBOL        buffer
  X:003AH         SYMBOL        tamano_cadena
  -------         DO            
  X:003BH         SYMBOL        i
  X:003CH         SYMBOL        d
  -------         ENDDO         
  C:A64DH         LINE#         94
  C:A65BH         LINE#         95
  C:A65BH         LINE#         97
  C:A669H         LINE#         98
  C:A669H         LINE#         99
  C:A680H         LINE#         100
  C:A68AH         LINE#         101
  C:A692H         LINE#         102
  -------         ENDPROC       _ESCRIBIRCADENASOFT_BUFFER
  -------         PROC          INICIA_BOARD
  C:ADEBH         LINE#         139
  C:ADEBH         LINE#         140
  C:ADEBH         LINE#         141
  C:ADEEH         LINE#         142
  C:ADF1H         LINE#         143
  C:ADF4H         LINE#         144
  C:ADF6H         LINE#         145
  C:ADF8H         LINE#         146
  C:ADFAH         LINE#         148
  -------         ENDPROC       INICIA_BOARD
  -------         PROC          MAIN
  -------         DO            
  X:00E4H         SYMBOL        buffer
  X:0000H         SYMBOL        Length_trama
  -------         ENDDO         
  C:9B9EH         LINE#         158
  C:9B9EH         LINE#         159
  C:9B9EH         LINE#         167
  C:9BA1H         LINE#         168
  C:9BA4H         LINE#         169
  C:9BA7H         LINE#         170
  C:9BAAH         LINE#         171
  C:9BADH         LINE#         172
  C:9BAFH         LINE#         174
  C:9BB2H         LINE#         175
  C:9BB9H         LINE#         176
  C:9BBCH         LINE#         177
  C:9BC1H         LINE#         179
  C:9BC4H         LINE#         181
  C:9BC7H         LINE#         182
  C:9BC7H         LINE#         183
BL51 BANKED LINKER/LOCATER V6.22.2.0                                                  10/02/2020  15:54:40  PAGE 23


  C:9BCAH         LINE#         184
  C:9BCAH         LINE#         185
  C:9BCDH         LINE#         186
  C:9BD3H         LINE#         187
  C:9BD9H         LINE#         189
  C:9BD9H         LINE#         190
  C:9BD9H         LINE#         192
  C:9BDCH         LINE#         194
  C:9BDCH         LINE#         195
  C:9BDFH         LINE#         196
  C:9BDFH         LINE#         198
  C:9BEDH         LINE#         201
  C:9BEDH         LINE#         203
  C:9BF0H         LINE#         205
  C:9BF3H         LINE#         206
  C:9BF3H         LINE#         209
  C:9C02H         LINE#         212
  C:9C0BH         LINE#         215
  C:9C19H         LINE#         218
  C:9C19H         LINE#         220
  C:9C1BH         LINE#         222
  C:9C1BH         LINE#         223
  C:9C1EH         LINE#         224
  C:9C1EH         LINE#         225
  C:9C21H         LINE#         229
  -------         ENDPROC       MAIN
  -------         ENDMOD        MAIN

  -------         MODULE        ACCESCAN
  C:0000H         SYMBOL        _ICE_DUMMY_
  D:0080H         PUBLIC        P0
  D:0090H         PUBLIC        P1
  I:0011H         PUBLIC        placa
  B:0080H.2       PUBLIC        led_err_imp
  C:A82CH         PUBLIC        _Monitor_chr
  C:5E9BH         PUBLIC        _Cmd_LPR_Salida
  B:0080H.3       PUBLIC        Atascado
  B:0080H.0       PUBLIC        rx_ip
  B:0090H.7       PUBLIC        lock
  X:028CH         PUBLIC        USE_LPR
  C:45B0H         PUBLIC        _Valida_Trama_Pto
  C:9473H         PUBLIC        _recibe_cmd_Monitor
  C:8674H         PUBLIC        _Cmd_LPR_Salida_wiegand
  -------         PROC          _VALIDA_TRAMA_PTO
  X:0001H         SYMBOL        buffer
  X:0004H         SYMBOL        length_trama
  -------         DO            
  X:028BH         SYMBOL        cont
  X:0005H         SYMBOL        buff
  -------         ENDDO         
  C:45B0H         LINE#         122
  C:45BEH         LINE#         123
  C:45BEH         LINE#         127
  C:45CCH         LINE#         129
  C:4603H         LINE#         130
  C:4603H         LINE#         131
  C:4618H         LINE#         132
BL51 BANKED LINKER/LOCATER V6.22.2.0                                                  10/02/2020  15:54:40  PAGE 24


  C:4618H         LINE#         133
  C:462BH         LINE#         135
  C:462EH         LINE#         137
  C:462EH         LINE#         139
  C:462EH         LINE#         141
  C:4640H         LINE#         142
  C:4640H         LINE#         143
  C:4646H         LINE#         144
  C:4653H         LINE#         145
  C:4653H         LINE#         146
  C:4658H         LINE#         147
  C:465AH         LINE#         148
  C:465FH         LINE#         149
  C:4661H         LINE#         150
  C:4663H         LINE#         151
  C:4667H         LINE#         152
  C:4667H         LINE#         153
  C:4668H         LINE#         155
  C:4680H         LINE#         156
  C:4680H         LINE#         158
  C:468DH         LINE#         159
  C:468DH         LINE#         160
  C:468FH         LINE#         161
  C:4691H         LINE#         162
  C:4693H         LINE#         163
  C:4695H         LINE#         164
  C:4695H         LINE#         166
  C:46BBH         LINE#         167
  C:46BBH         LINE#         168
  C:46BFH         LINE#         169
  C:46C4H         LINE#         170
  C:46CDH         LINE#         171
  C:46D2H         LINE#         172
  C:46D2H         LINE#         175
  C:46D3H         LINE#         178
  C:46E5H         LINE#         179
  C:46E5H         LINE#         180
  C:46E7H         LINE#         181
  C:46EAH         LINE#         183
  C:46FCH         LINE#         184
  C:46FCH         LINE#         185
  C:46FEH         LINE#         186
  C:4701H         LINE#         188
  C:471BH         LINE#         189
  C:471BH         LINE#         190
  C:471DH         LINE#         191
  C:4720H         LINE#         194
  C:473AH         LINE#         195
  C:473AH         LINE#         196
  C:473CH         LINE#         197
  C:473EH         LINE#         200
  C:4758H         LINE#         201
  C:4758H         LINE#         202
  C:475AH         LINE#         203
  C:475CH         LINE#         207
  C:4776H         LINE#         208
  C:4776H         LINE#         209
BL51 BANKED LINKER/LOCATER V6.22.2.0                                                  10/02/2020  15:54:40  PAGE 25


  C:4778H         LINE#         210
  C:477AH         LINE#         213
  C:4794H         LINE#         214
  C:4794H         LINE#         215
  C:4796H         LINE#         216
  C:4798H         LINE#         218
  C:47B2H         LINE#         219
  C:47B2H         LINE#         220
  C:47B7H         LINE#         221
  C:47B7H         LINE#         223
  C:47E7H         LINE#         224
  C:47E7H         LINE#         225
  C:47F5H         LINE#         226
  C:47F8H         LINE#         229
  C:483BH         LINE#         230
  C:483BH         LINE#         232
  C:4850H         LINE#         233
  C:4856H         LINE#         234
  C:4880H         LINE#         237
  C:4888H         LINE#         238
  C:4888H         LINE#         241
  C:488FH         LINE#         242
  C:488FH         LINE#         243
  C:4894H         LINE#         244
  C:4894H         LINE#         245
  C:4896H         LINE#         247
  C:4896H         LINE#         248
  C:489FH         LINE#         249
  C:48A7H         LINE#         250
  C:48A7H         LINE#         255
  C:48A9H         LINE#         258
  C:48A9H         LINE#         261
  C:48B0H         LINE#         262
  C:48B0H         LINE#         263
  C:48B5H         LINE#         264
  C:48B5H         LINE#         265
  C:48C0H         LINE#         269
  C:48C0H         LINE#         270
  C:48C0H         LINE#         272
  -------         ENDPROC       _VALIDA_TRAMA_PTO
  -------         PROC          _RECIBE_CMD_MONITOR
  X:0001H         SYMBOL        buffer_cmd
  -------         DO            
  X:0004H         SYMBOL        j
  X:0005H         SYMBOL        NumDatos
  D:0005H         SYMBOL        time_out
  X:0006H         SYMBOL        MaxChrRx
  D:0006H         SYMBOL        contador
  -------         ENDDO         
  C:9473H         LINE#         278
  C:947EH         LINE#         279
  C:947EH         LINE#         283
  C:9483H         LINE#         284
  C:9487H         LINE#         286
  C:948FH         LINE#         287
  C:948FH         LINE#         288
  C:94A0H         LINE#         289
BL51 BANKED LINKER/LOCATER V6.22.2.0                                                  10/02/2020  15:54:40  PAGE 26


  C:94A0H         LINE#         290
  C:94A3H         LINE#         291
  C:94A4H         LINE#         292
  C:94AAH         LINE#         293
  C:94AAH         LINE#         294
  C:94AFH         LINE#         295
  C:94B8H         LINE#         296
  C:94B8H         LINE#         297
  C:94BAH         LINE#         298
  C:94C2H         LINE#         299
  C:94C2H         LINE#         300
  C:94C4H         LINE#         301
  C:94C9H         LINE#         302
  C:94CFH         LINE#         303
  C:94E1H         LINE#         304
  C:94EBH         LINE#         305
  C:94F3H         LINE#         307
  C:9502H         LINE#         310
  C:9502H         LINE#         311
  C:9507H         LINE#         312
  -------         ENDPROC       _RECIBE_CMD_MONITOR
  -------         PROC          _MONITOR_CHR
  X:003AH         SYMBOL        str
  X:003DH         SYMBOL        num_char
  -------         DO            
  X:003EH         SYMBOL        j
  -------         ENDDO         
  C:A82CH         LINE#         367
  C:A83AH         LINE#         368
  C:A83AH         LINE#         370
  C:A848H         LINE#         371
  C:A848H         LINE#         372
  C:A85AH         LINE#         373
  C:A864H         LINE#         374
  C:A86CH         LINE#         375
  -------         ENDPROC       _MONITOR_CHR
  -------         PROC          _CMD_LPR_SALIDA_WIEGAND
  X:0010H         SYMBOL        buffer
  -------         DO            
  X:0013H         SYMBOL        Buffer_Lpr
  X:0031H         SYMBOL        j
  -------         ENDDO         
  C:8674H         LINE#         380
  C:867FH         LINE#         381
  C:867FH         LINE#         383
  C:8685H         LINE#         384
  C:868AH         LINE#         385
  C:8692H         LINE#         386
  C:8696H         LINE#         387
  C:869FH         LINE#         388
  C:869FH         LINE#         389
  C:86B0H         LINE#         390
  C:86B2H         LINE#         392
  C:86B2H         LINE#         393
  C:86C3H         LINE#         394
  C:86C3H         LINE#         398
  C:86DAH         LINE#         399
BL51 BANKED LINKER/LOCATER V6.22.2.0                                                  10/02/2020  15:54:40  PAGE 27


  C:86DAH         LINE#         400
  C:86E9H         LINE#         401
  C:86F3H         LINE#         403
  C:86FBH         LINE#         404
  C:870FH         LINE#         406
  C:871FH         LINE#         407
  C:8730H         LINE#         408
  C:873DH         LINE#         412
  -------         ENDPROC       _CMD_LPR_SALIDA_WIEGAND
  -------         PROC          _CMD_LPR_SALIDA
  X:0015H         SYMBOL        buffer_S1_B0
  X:0018H         SYMBOL        buffer_S1_B
  -------         DO            
  X:001BH         SYMBOL        Buffer_Lpr
  X:0039H         SYMBOL        j
  -------         ENDDO         
  C:5E9BH         LINE#         417
  C:5EA6H         LINE#         418
  C:5EA6H         LINE#         422
  C:5EACH         LINE#         423
  C:5EB1H         LINE#         424
  C:5EB9H         LINE#         425
  C:5EBDH         LINE#         429
  C:5EC6H         LINE#         430
  C:5EC6H         LINE#         431
  C:5ED7H         LINE#         432
  C:5ED9H         LINE#         434
  C:5ED9H         LINE#         435
  C:5EEAH         LINE#         436
  C:5EEAH         LINE#         437
  C:5F02H         LINE#         438
  C:5F02H         LINE#         439
  C:5F17H         LINE#         440
  C:5F25H         LINE#         441
  C:5F33H         LINE#         442
  C:5F3FH         LINE#         443
  C:5F4DH         LINE#         444
  C:5F86H         LINE#         446
  C:5F88H         LINE#         448
  C:5F88H         LINE#         452
  C:5F88H         LINE#         454
  C:5FAAH         LINE#         455
  C:5FB4H         LINE#         456
  C:5FC4H         LINE#         458
  C:5FD7H         LINE#         459
  C:5FD7H         LINE#         461
  C:5FE5H         LINE#         464
  C:5FF3H         LINE#         468
  C:6000H         LINE#         470
  C:600EH         LINE#         472
  C:601FH         LINE#         475
  C:6033H         LINE#         477
  -------         ENDPROC       _CMD_LPR_SALIDA
  -------         ENDMOD        ACCESCAN

  -------         MODULE        CLOCK
  C:0000H         SYMBOL        _ICE_DUMMY_
BL51 BANKED LINKER/LOCATER V6.22.2.0                                                  10/02/2020  15:54:40  PAGE 28


  C:A8A1H         PUBLIC        _two_one
  D:0090H         PUBLIC        P1
  C:7505H         PUBLIC        _validar_clk
  C:AB57H         PUBLIC        _wr_clk
  C:6337H         PUBLIC        _check_fechaOut
  B:00D0H.7       PUBLIC        CY
  C:0003H         PUBLIC        p_ck
  C:8BE3H         PUBLIC        _check_fechaOut_2
  C:9508H         PUBLIC        _hex_ascii
  X:028DH         PUBLIC        data_clk
  C:AE32H         PUBLIC        cond_ini_clock
  C:88E1H         PUBLIC        _Block_read_Clock
  B:0090H.4       PUBLIC        sck
  C:900CH         PUBLIC        _Block_read_Clock_Hex
  C:64B0H         PUBLIC        _Block_read_clock_ascii
  C:A987H         PUBLIC        _hex_bcd
  C:ACD7H         PUBLIC        _bcd_hex
  C:A37BH         PUBLIC        _ByteHex_Decimal
  C:9754H         PUBLIC        _lee_clk
  C:3027H         PUBLIC        _analiza_tiempo
  B:0090H.5       PUBLIC        io
  C:97DAH         PUBLIC        _Block_write_clock_ascii
  B:0090H.6       PUBLIC        rst
  C:A8EEH         PUBLIC        _eb_clk
  C:5B19H         PUBLIC        _Block_read_Clock_Rasberry
  C:48C1H         PUBLIC        _Two_ByteHex_Decimal
  -------         PROC          P_CK
  C:0003H         LINE#         40
  C:0003H         LINE#         41
  C:0003H         LINE#         42
  C:0005H         LINE#         43
  C:0008H         LINE#         44
  C:000AH         LINE#         45
  -------         ENDPROC       P_CK
  -------         PROC          _EB_CLK
  X:00C8H         SYMBOL        dir_clk
  -------         DO            
  X:00C9H         SYMBOL        nbits
  -------         ENDDO         
  C:A8EEH         LINE#         47
  C:A8F3H         LINE#         49
  C:A8F8H         LINE#         50
  C:A8F8H         LINE#         51
  C:A901H         LINE#         52
  C:A904H         LINE#         53
  C:A904H         LINE#         54
  C:A906H         LINE#         55
  C:A908H         LINE#         57
  C:A908H         LINE#         58
  C:A90AH         LINE#         59
  C:A90AH         LINE#         60
  C:A90DH         LINE#         61
  C:A92CH         LINE#         62
  -------         ENDPROC       _EB_CLK
  C:974BH         SYMBOL        L?0180
  -------         PROC          L?0179
  -------         ENDPROC       L?0179
BL51 BANKED LINKER/LOCATER V6.22.2.0                                                  10/02/2020  15:54:40  PAGE 29


  C:974BH         SYMBOL        L?0180
  -------         PROC          _LEE_CLK
  X:00C5H         SYMBOL        dir_clk
  -------         DO            
  X:00C6H         SYMBOL        nbits
  -------         ENDDO         
  C:9754H         LINE#         64
  C:9759H         LINE#         66
  C:975BH         LINE#         67
  C:9762H         LINE#         68
  C:976AH         LINE#         69
  C:9783H         LINE#         70
  C:9783H         LINE#         71
  C:9786H         LINE#         72
  C:9786H         LINE#         73
  C:978DH         LINE#         74
  C:9797H         LINE#         75
  C:979CH         LINE#         76
  C:979CH         LINE#         77
  C:979CH         LINE#         78
  C:979FH         LINE#         79
  C:979FH         LINE#         80
  C:97A6H         LINE#         81
  C:97B7H         LINE#         82
  C:97B7H         LINE#         83
  C:97BFH         LINE#         84
  C:97BFH         LINE#         85
  C:97BFH         LINE#         86
  C:97C2H         LINE#         87
  C:97D2H         LINE#         88
  C:97D4H         LINE#         89
  C:97D9H         LINE#         90
  -------         ENDPROC       _LEE_CLK
  -------         PROC          _WR_CLK
  X:0013H         SYMBOL        dir_clk
  X:0014H         SYMBOL        byte
  C:AB57H         LINE#         92
  C:AB5FH         LINE#         93
  C:AB61H         LINE#         94
  C:AB68H         LINE#         95
  C:AB70H         LINE#         96
  C:AB79H         LINE#         97
  C:AB7CH         LINE#         98
  C:AB7EH         LINE#         100
  -------         ENDPROC       _WR_CLK
  C:A86DH         SYMBOL        L?0175
  C:A88BH         SYMBOL        L?0176
  -------         PROC          L?0174
  -------         ENDPROC       L?0174
  C:A86DH         SYMBOL        L?0175
  C:A88BH         SYMBOL        L?0176
  -------         PROC          _TWO_ONE
  D:0007H         SYMBOL        byte_h
  D:0005H         SYMBOL        byte_l
  -------         DO            
  D:0007H         SYMBOL        byte_out
  -------         ENDDO         
BL51 BANKED LINKER/LOCATER V6.22.2.0                                                  10/02/2020  15:54:40  PAGE 30


  C:A8A1H         LINE#         102
  C:A8A1H         LINE#         103
  C:A8A1H         LINE#         105
  C:A8A4H         LINE#         106
  C:A8A8H         LINE#         107
  C:A8ABH         LINE#         108
  C:A8ADH         LINE#         109
  C:A8ADH         LINE#         110
  -------         ENDPROC       _TWO_ONE
  -------         PROC          _VALIDAR_CLK
  D:0001H         SYMBOL        datos_clock
  -------         DO            
  D:0007H         SYMBOL        validador
  -------         ENDDO         
  C:7505H         LINE#         114
  C:7505H         LINE#         115
  C:7505H         LINE#         116
  C:7507H         LINE#         119
  C:751CH         LINE#         120
  C:751CH         LINE#         122
  C:7534H         LINE#         123
  C:7534H         LINE#         125
  C:754CH         LINE#         126
  C:754CH         LINE#         127
  C:7564H         LINE#         128
  C:7564H         LINE#         129
  C:757CH         LINE#         130
  C:757CH         LINE#         131
  C:7591H         LINE#         132
  C:7591H         LINE#         133
  C:75A3H         LINE#         134
  C:75A3H         LINE#         135
  C:75B5H         LINE#         136
  C:75B5H         LINE#         137
  C:75C7H         LINE#         138
  C:75C7H         LINE#         139
  C:75D9H         LINE#         140
  C:75D9H         LINE#         141
  C:75EBH         LINE#         142
  C:75EBH         LINE#         143
  C:75FBH         LINE#         144
  C:75FBH         LINE#         145
  C:75FBH         LINE#         146
  C:75FBH         LINE#         147
  C:75FCH         LINE#         149
  C:75FCH         LINE#         150
  C:75FEH         LINE#         151
  C:75FEH         LINE#         152
  C:75FFH         LINE#         154
  C:75FFH         LINE#         155
  C:7601H         LINE#         157
  C:7601H         LINE#         158
  C:7602H         LINE#         160
  C:7602H         LINE#         161
  C:7604H         LINE#         163
  C:7604H         LINE#         165
  C:7605H         LINE#         167
BL51 BANKED LINKER/LOCATER V6.22.2.0                                                  10/02/2020  15:54:40  PAGE 31


  C:7605H         LINE#         168
  C:7607H         LINE#         170
  C:7607H         LINE#         171
  C:7608H         LINE#         173
  C:7608H         LINE#         174
  C:760AH         LINE#         176
  C:760AH         LINE#         177
  C:760BH         LINE#         179
  C:760BH         LINE#         180
  C:760DH         LINE#         182
  C:760DH         LINE#         183
  C:760EH         LINE#         185
  C:760EH         LINE#         186
  C:7610H         LINE#         188
  C:7610H         LINE#         189
  C:7610H         LINE#         191
  C:7611H         LINE#         193
  C:7611H         LINE#         194
  C:7613H         LINE#         196
  C:7613H         LINE#         198
  C:7614H         LINE#         201
  C:7614H         LINE#         202
  C:7616H         LINE#         204
  C:7616H         LINE#         206
  C:7617H         LINE#         209
  C:7617H         LINE#         210
  C:7619H         LINE#         212
  C:7619H         LINE#         214
  C:7619H         LINE#         216
  -------         ENDPROC       _VALIDAR_CLK
  -------         PROC          _BLOCK_WRITE_CLOCK_ASCII
  X:0010H         SYMBOL        datos_clock
  C:97DAH         LINE#         222
  C:97E5H         LINE#         224
  C:97E5H         LINE#         228
  C:97EFH         LINE#         229
  C:97EFH         LINE#         230
  C:97EFH         LINE#         231
  C:97EFH         LINE#         233
  C:97F9H         LINE#         234
  C:9803H         LINE#         235
  C:980DH         LINE#         236
  C:980DH         LINE#         237
  C:980DH         LINE#         238
  C:980DH         LINE#         240
  C:9817H         LINE#         241
  C:9817H         LINE#         242
  C:9817H         LINE#         243
  C:9817H         LINE#         245
  C:9821H         LINE#         246
  C:9821H         LINE#         247
  C:9821H         LINE#         248
  C:9821H         LINE#         250
  C:982BH         LINE#         251
  C:982BH         LINE#         252
  C:982BH         LINE#         253
  C:982BH         LINE#         255
BL51 BANKED LINKER/LOCATER V6.22.2.0                                                  10/02/2020  15:54:40  PAGE 32


  C:9835H         LINE#         256
  C:983FH         LINE#         257
  C:9849H         LINE#         258
  C:9853H         LINE#         260
  -------         ENDPROC       _BLOCK_WRITE_CLOCK_ASCII
  -------         PROC          _BCD_HEX
  D:0007H         SYMBOL        l_data
  -------         DO            
  D:0006H         SYMBOL        temp
  D:0005H         SYMBOL        j
  -------         ENDDO         
  C:ACD7H         LINE#         266
  C:ACD7H         LINE#         267
  C:ACD7H         LINE#         269
  C:ACD9H         LINE#         270
  C:ACDDH         LINE#         271
  C:ACE0H         LINE#         272
  C:ACE2H         LINE#         273
  C:ACE2H         LINE#         274
  C:ACE6H         LINE#         275
  C:ACEDH         LINE#         276
  C:ACEDH         LINE#         277
  C:ACF1H         LINE#         278
  C:ACF4H         LINE#         279
  C:ACF4H         LINE#         280
  C:ACF4H         LINE#         281
  -------         ENDPROC       _BCD_HEX
  C:A978H         SYMBOL        L?0178
  -------         PROC          L?0177
  -------         ENDPROC       L?0177
  C:A978H         SYMBOL        L?0178
  -------         PROC          _HEX_BCD
  D:0007H         SYMBOL        byte
  -------         DO            
  D:0006H         SYMBOL        nibble_h
  D:0005H         SYMBOL        nibble_l
  D:0004H         SYMBOL        k
  D:0007H         SYMBOL        byte_out
  -------         ENDDO         
  C:A987H         LINE#         285
  C:A987H         LINE#         286
  C:A987H         LINE#         291
  C:A989H         LINE#         292
  C:A98AH         LINE#         294
  C:A990H         LINE#         295
  C:A990H         LINE#         296
  C:A991H         LINE#         297
  C:A996H         LINE#         298
  C:A996H         LINE#         299
  C:A997H         LINE#         300
  C:A998H         LINE#         301
  C:A998H         LINE#         302
  C:A99BH         LINE#         303
  C:A99FH         LINE#         304
  C:A9A2H         LINE#         305
  C:A9A5H         LINE#         306
  C:A9A7H         LINE#         307
BL51 BANKED LINKER/LOCATER V6.22.2.0                                                  10/02/2020  15:54:40  PAGE 33


  C:A9A7H         LINE#         309
  -------         ENDPROC       _HEX_BCD
  -------         PROC          _BYTEHEX_DECIMAL
  D:0001H         SYMBOL        buffer
  D:0005H         SYMBOL        valorhex
  -------         DO            
  X:003AH         SYMBOL        numero
  D:0007H         SYMBOL        centena
  D:0006H         SYMBOL        decena
  -------         ENDDO         
  C:A37BH         LINE#         315
  C:A37BH         LINE#         316
  C:A37BH         LINE#         319
  C:A37DH         LINE#         320
  C:A37EH         LINE#         321
  C:A383H         LINE#         323
  C:A390H         LINE#         324
  C:A390H         LINE#         325
  C:A394H         LINE#         326
  C:A395H         LINE#         327
  C:A397H         LINE#         328
  C:A39DH         LINE#         329
  C:A3A4H         LINE#         330
  C:A3B1H         LINE#         331
  C:A3B1H         LINE#         332
  C:A3B5H         LINE#         333
  C:A3B6H         LINE#         334
  C:A3B8H         LINE#         335
  C:A3BEH         LINE#         336
  C:A3C5H         LINE#         337
  C:A3CEH         LINE#         338
  C:A3D5H         LINE#         339
  -------         ENDPROC       _BYTEHEX_DECIMAL
  -------         PROC          _TWO_BYTEHEX_DECIMAL
  X:003AH         SYMBOL        buffer
  X:003DH         SYMBOL        id_h
  X:003EH         SYMBOL        id_l
  -------         DO            
  X:003FH         SYMBOL        valor
  D:0006H         SYMBOL        numero
  X:0041H         SYMBOL        temp
  X:0042H         SYMBOL        dmil
  X:0043H         SYMBOL        mil
  X:0044H         SYMBOL        centena
  X:0045H         SYMBOL        decena
  -------         ENDDO         
  C:48C1H         LINE#         346
  C:48CFH         LINE#         347
  C:48CFH         LINE#         351
  C:48D6H         LINE#         352
  C:48DAH         LINE#         353
  C:48DCH         LINE#         354
  C:48DEH         LINE#         355
  C:48E0H         LINE#         358
  C:48E5H         LINE#         359
  C:48E8H         LINE#         360
  C:48EEH         LINE#         362
BL51 BANKED LINKER/LOCATER V6.22.2.0                                                  10/02/2020  15:54:40  PAGE 34


  C:4949H         LINE#         363
  C:4951H         LINE#         364
  C:4954H         LINE#         365
  C:49AFH         LINE#         367
  C:49B7H         LINE#         368
  C:49BAH         LINE#         369
  C:49C0H         LINE#         370
  C:4A1BH         LINE#         371
  C:4A23H         LINE#         372
  C:4A26H         LINE#         373
  C:4A81H         LINE#         374
  C:4A81H         LINE#         376
  C:4A8AH         LINE#         377
  C:4A8AH         LINE#         378
  C:4A92H         LINE#         379
  C:4A98H         LINE#         380
  C:4A9AH         LINE#         381
  C:4AB0H         LINE#         382
  C:4ABAH         LINE#         383
  C:4AC3H         LINE#         384
  C:4AC3H         LINE#         385
  C:4ACBH         LINE#         386
  C:4AD1H         LINE#         387
  C:4AD3H         LINE#         388
  C:4AE9H         LINE#         389
  C:4AF3H         LINE#         390
  C:4AFCH         LINE#         391
  C:4AFCH         LINE#         392
  C:4B04H         LINE#         393
  C:4B0AH         LINE#         394
  C:4B0CH         LINE#         395
  C:4B22H         LINE#         396
  C:4B2CH         LINE#         397
  C:4B35H         LINE#         398
  C:4B35H         LINE#         399
  C:4B3DH         LINE#         400
  C:4B43H         LINE#         401
  C:4B45H         LINE#         402
  C:4B5BH         LINE#         403
  C:4B65H         LINE#         404
  C:4B78H         LINE#         405
  C:4B82H         LINE#         406
  -------         ENDPROC       _TWO_BYTEHEX_DECIMAL
  -------         PROC          _BLOCK_READ_CLOCK_ASCII
  X:0065H         SYMBOL        datos_clock
  -------         DO            
  D:0007H         SYMBOL        dato
  -------         ENDDO         
  C:64B0H         LINE#         412
  C:64BBH         LINE#         413
  C:64BBH         LINE#         419
  C:64C0H         LINE#         420
  C:64D8H         LINE#         421
  C:64E2H         LINE#         422
  C:64F7H         LINE#         423
  C:6501H         LINE#         426
  C:6506H         LINE#         427
BL51 BANKED LINKER/LOCATER V6.22.2.0                                                  10/02/2020  15:54:40  PAGE 35


  C:651EH         LINE#         428
  C:6528H         LINE#         429
  C:653DH         LINE#         430
  C:6540H         LINE#         433
  C:6543H         LINE#         434
  C:655BH         LINE#         435
  C:6565H         LINE#         436
  C:657AH         LINE#         437
  C:6584H         LINE#         441
  C:6589H         LINE#         442
  C:65A1H         LINE#         443
  C:65ABH         LINE#         444
  C:65C0H         LINE#         445
  C:65CAH         LINE#         448
  C:65CFH         LINE#         449
  C:65E7H         LINE#         450
  C:65F1H         LINE#         451
  C:6606H         LINE#         452
  C:6610H         LINE#         453
  -------         ENDPROC       _BLOCK_READ_CLOCK_ASCII
  -------         PROC          _BLOCK_READ_CLOCK_HEX
  X:00C2H         SYMBOL        datos_clock
  C:900CH         LINE#         456
  C:9017H         LINE#         457
  C:9017H         LINE#         460
  C:902EH         LINE#         461
  C:9038H         LINE#         463
  C:904FH         LINE#         464
  C:9052H         LINE#         466
  C:9067H         LINE#         467
  C:9071H         LINE#         469
  C:9088H         LINE#         470
  C:9092H         LINE#         472
  C:90A9H         LINE#         473
  -------         ENDPROC       _BLOCK_READ_CLOCK_HEX
  -------         PROC          _HEX_ASCII
  X:0071H         SYMBOL        datos
  X:0074H         SYMBOL        fecha_asii
  -------         DO            
  D:0007H         SYMBOL        dato
  -------         ENDDO         
  C:9508H         LINE#         476
  C:9513H         LINE#         477
  C:9513H         LINE#         481
  C:9516H         LINE#         482
  C:952EH         LINE#         483
  C:9543H         LINE#         484
  C:9543H         LINE#         486
  C:9546H         LINE#         487
  C:9561H         LINE#         488
  C:9569H         LINE#         489
  C:9569H         LINE#         491
  C:956CH         LINE#         492
  C:9587H         LINE#         493
  C:9592H         LINE#         495
  -------         ENDPROC       _HEX_ASCII
  -------         PROC          _BLOCK_READ_CLOCK_RASBERRY
BL51 BANKED LINKER/LOCATER V6.22.2.0                                                  10/02/2020  15:54:40  PAGE 36


  X:0024H         SYMBOL        datos_clock
  -------         DO            
  D:0007H         SYMBOL        dato
  -------         ENDDO         
  C:5B19H         LINE#         499
  C:5B24H         LINE#         500
  C:5B24H         LINE#         504
  C:5B29H         LINE#         505
  C:5B41H         LINE#         506
  C:5B4BH         LINE#         507
  C:5B60H         LINE#         508
  C:5B63H         LINE#         511
  C:5B66H         LINE#         512
  C:5B7EH         LINE#         513
  C:5B88H         LINE#         514
  C:5B9DH         LINE#         515
  C:5BA7H         LINE#         519
  C:5BACH         LINE#         520
  C:5BC4H         LINE#         521
  C:5BCEH         LINE#         522
  C:5BE3H         LINE#         523
  C:5BEDH         LINE#         526
  C:5BF2H         LINE#         527
  C:5C0AH         LINE#         528
  C:5C14H         LINE#         529
  C:5C29H         LINE#         530
  C:5C33H         LINE#         533
  C:5C38H         LINE#         534
  C:5C50H         LINE#         535
  C:5C5AH         LINE#         536
  C:5C6FH         LINE#         537
  C:5C79H         LINE#         539
  C:5C89H         LINE#         540
  C:5C93H         LINE#         542
  C:5C98H         LINE#         543
  C:5CB0H         LINE#         544
  C:5CBAH         LINE#         545
  C:5CCFH         LINE#         546
  C:5CD9H         LINE#         547
  -------         ENDPROC       _BLOCK_READ_CLOCK_RASBERRY
  -------         PROC          _BLOCK_READ_CLOCK
  X:0024H         SYMBOL        datos_clock
  C:88E1H         LINE#         554
  C:88ECH         LINE#         555
  C:88ECH         LINE#         557
  C:8900H         LINE#         558
  C:890AH         LINE#         560
  C:891EH         LINE#         561
  C:8921H         LINE#         563
  C:8933H         LINE#         564
  C:893DH         LINE#         566
  C:8951H         LINE#         567
  C:895BH         LINE#         569
  C:896FH         LINE#         570
  C:8979H         LINE#         572
  C:898DH         LINE#         573
  C:8997H         LINE#         574
BL51 BANKED LINKER/LOCATER V6.22.2.0                                                  10/02/2020  15:54:40  PAGE 37


  -------         ENDPROC       _BLOCK_READ_CLOCK
  -------         PROC          COND_INI_CLOCK
  C:AE32H         LINE#         577
  C:AE32H         LINE#         578
  C:AE32H         LINE#         579
  C:AE34H         LINE#         580
  C:AE36H         LINE#         581
  C:AE38H         LINE#         582
  -------         ENDPROC       COND_INI_CLOCK
  -------         PROC          _CHECK_FECHAOUT
  X:0013H         SYMBOL        buffer
  -------         DO            
  X:0016H         SYMBOL        temp
  X:0017H         SYMBOL        datos_clk
  -------         ENDDO         
  C:6337H         LINE#         592
  C:6342H         LINE#         593
  C:6342H         LINE#         594
  C:6346H         LINE#         600
  C:638FH         LINE#         601
  C:638FH         LINE#         603
  C:6394H         LINE#         605
  C:6397H         LINE#         607
  C:6397H         LINE#         609
  C:63A0H         LINE#         611
  C:63A8H         LINE#         612
  C:63A8H         LINE#         613
  C:63B1H         LINE#         615
  C:63B1H         LINE#         618
  C:63D4H         LINE#         619
  C:63D4H         LINE#         620
  C:63D4H         LINE#         621
  C:63D7H         LINE#         622
  C:63E1H         LINE#         623
  C:63E1H         LINE#         624
  C:6407H         LINE#         625
  C:6407H         LINE#         626
  C:6407H         LINE#         627
  C:640AH         LINE#         628
  C:6414H         LINE#         629
  C:6414H         LINE#         630
  C:643AH         LINE#         631
  C:643AH         LINE#         632
  C:643AH         LINE#         633
  C:643CH         LINE#         634
  C:6443H         LINE#         635
  C:6443H         LINE#         636
  C:6469H         LINE#         637
  C:6469H         LINE#         638
  C:6469H         LINE#         639
  C:646BH         LINE#         640
  C:6472H         LINE#         641
  C:6472H         LINE#         642
  C:6497H         LINE#         643
  C:6497H         LINE#         644
  C:649CH         LINE#         645
  C:649EH         LINE#         653
BL51 BANKED LINKER/LOCATER V6.22.2.0                                                  10/02/2020  15:54:40  PAGE 38


  C:649EH         LINE#         654
  C:649EH         LINE#         655
  C:649EH         LINE#         656
  C:64A0H         LINE#         658
  C:64A0H         LINE#         659
  C:64A0H         LINE#         660
  C:64A0H         LINE#         661
  C:64A2H         LINE#         663
  C:64A2H         LINE#         664
  C:64A2H         LINE#         665
  C:64A2H         LINE#         666
  C:64A4H         LINE#         668
  C:64A4H         LINE#         669
  C:64AAH         LINE#         671
  C:64AAH         LINE#         673
  C:64AAH         LINE#         674
  C:64AFH         LINE#         675
  -------         ENDPROC       _CHECK_FECHAOUT
  -------         PROC          _CHECK_FECHAOUT_2
  X:00B0H         SYMBOL        buffer
  -------         DO            
  X:00B3H         SYMBOL        fecha_inicio
  X:00B7H         SYMBOL        fecha_fin
  X:00BBH         SYMBOL        datos_clk
  X:00C1H         SYMBOL        temp
  -------         ENDDO         
  C:8BE3H         LINE#         676
  C:8BEEH         LINE#         677
  C:8BEEH         LINE#         683
  C:8BF7H         LINE#         684
  C:8C26H         LINE#         685
  C:8C6BH         LINE#         688
  C:8C8BH         LINE#         689
  C:8C8BH         LINE#         690
  C:8C91H         LINE#         691
  C:8C93H         LINE#         693
  C:8C93H         LINE#         694
  C:8C98H         LINE#         695
  C:8C98H         LINE#         699
  C:8C9DH         LINE#         700
  -------         ENDPROC       _CHECK_FECHAOUT_2
  -------         PROC          _ANALIZA_TIEMPO
  X:0011H         SYMBOL        buffer
  X:0014H         SYMBOL        Val_DctoMinutos
  -------         DO            
  X:0016H         SYMBOL        ano_inT
  B:0020H.0       SYMBOL        bisiesto
  X:0018H         SYMBOL        ano_out
  X:0019H         SYMBOL        mes_out
  X:001AH         SYMBOL        dia_out
  X:001BH         SYMBOL        hora_out
  X:001CH         SYMBOL        min_out
  X:001DH         SYMBOL        Horas_Dcto
  X:001EH         SYMBOL        Minutos_Dcto
  X:001FH         SYMBOL        Xtemp
  B:0020H.1       SYMBOL        Tiempo_Dcto
  -------         ENDDO         
BL51 BANKED LINKER/LOCATER V6.22.2.0                                                  10/02/2020  15:54:40  PAGE 39


  C:3027H         LINE#         702
  C:303AH         LINE#         703
  C:303AH         LINE#         707
  C:303CH         LINE#         712
  C:303EH         LINE#         714
  C:3099H         LINE#         715
  C:3099H         LINE#         720
  C:30ABH         LINE#         721
  C:30ABH         LINE#         722
  C:30BBH         LINE#         723
  C:30C5H         LINE#         725
  C:30C7H         LINE#         727
  C:30C7H         LINE#         728
  C:30CDH         LINE#         729
  C:30D2H         LINE#         730
  C:30D2H         LINE#         734
  C:30DCH         LINE#         735
  C:30DCH         LINE#         736
  C:30F4H         LINE#         737
  C:3100H         LINE#         738
  C:3100H         LINE#         740
  C:310AH         LINE#         741
  C:3118H         LINE#         743
  C:3125H         LINE#         744
  C:3131H         LINE#         745
  C:3131H         LINE#         746
  C:313BH         LINE#         747
  C:3149H         LINE#         749
  C:3156H         LINE#         750
  C:318BH         LINE#         751
  C:318BH         LINE#         752
  C:3198H         LINE#         753
  C:3198H         LINE#         754
  C:319CH         LINE#         755
  C:31B2H         LINE#         756
  C:31BBH         LINE#         757
  C:31BBH         LINE#         758
  C:31C3H         LINE#         759
  C:31C7H         LINE#         760
  C:31CAH         LINE#         767
  C:31CAH         LINE#         768
  C:31DFH         LINE#         769
  C:31DFH         LINE#         770
  C:31DFH         LINE#         771
  C:31E2H         LINE#         772
  C:3210H         LINE#         773
  C:3210H         LINE#         774
  C:321DH         LINE#         775
  C:321DH         LINE#         776
  C:3221H         LINE#         777
  C:3228H         LINE#         778
  C:3228H         LINE#         779
  C:322AH         LINE#         781
  C:322AH         LINE#         782
  C:3234H         LINE#         783
  C:3234H         LINE#         784
  C:3234H         LINE#         786
BL51 BANKED LINKER/LOCATER V6.22.2.0                                                  10/02/2020  15:54:40  PAGE 40


  C:3237H         LINE#         787
  C:3256H         LINE#         788
  C:3256H         LINE#         790
  C:326DH         LINE#         791
  C:326FH         LINE#         831
  C:3298H         LINE#         832
  C:3298H         LINE#         833
  C:329AH         LINE#         834
  C:329AH         LINE#         836
  C:329DH         LINE#         837
  C:329DH         LINE#         838
  C:32B6H         LINE#         839
  C:32B6H         LINE#         840
  C:32BDH         LINE#         841
  C:32C4H         LINE#         842
  C:32CBH         LINE#         844
  C:32CDH         LINE#         846
  C:32CDH         LINE#         847
  C:32D4H         LINE#         848
  C:32D9H         LINE#         849
  C:32E3H         LINE#         850
  C:32E3H         LINE#         851
  C:32E6H         LINE#         853
  C:32E6H         LINE#         854
  C:32F4H         LINE#         855
  C:32F4H         LINE#         856
  C:32F8H         LINE#         857
  C:330AH         LINE#         858
  C:330AH         LINE#         859
  C:330CH         LINE#         861
  C:330CH         LINE#         862
  C:3311H         LINE#         863
  C:3326H         LINE#         864
  C:3326H         LINE#         865
  C:3326H         LINE#         866
  C:3326H         LINE#         868
  C:3329H         LINE#         870
  C:3329H         LINE#         871
  C:332EH         LINE#         872
  C:3343H         LINE#         873
  C:3343H         LINE#         874
  C:3343H         LINE#         875
  C:3346H         LINE#         877
  C:3346H         LINE#         878
  C:335BH         LINE#         879
  C:3365H         LINE#         880
  C:3365H         LINE#         881
  C:3365H         LINE#         882
  C:3367H         LINE#         884
  C:3367H         LINE#         885
  C:337CH         LINE#         886
  C:3386H         LINE#         887
  C:3390H         LINE#         888
  C:3390H         LINE#         889
  C:3390H         LINE#         890
  C:3392H         LINE#         892
  C:3392H         LINE#         893
BL51 BANKED LINKER/LOCATER V6.22.2.0                                                  10/02/2020  15:54:40  PAGE 41


  C:33A7H         LINE#         894
  C:33B1H         LINE#         895
  C:33BBH         LINE#         896
  C:33C5H         LINE#         897
  C:33CCH         LINE#         898
  C:33CCH         LINE#         902
  C:33D6H         LINE#         903
  C:33D6H         LINE#         904
  C:33DCH         LINE#         905
  C:33EAH         LINE#         906
  C:33EAH         LINE#         907
  C:33F3H         LINE#         908
  C:3401H         LINE#         910
  C:3407H         LINE#         911
  C:342EH         LINE#         912
  C:342EH         LINE#         913
  C:343EH         LINE#         914
  C:343EH         LINE#         915
  C:3442H         LINE#         916
  C:3448H         LINE#         917
  C:3456H         LINE#         918
  C:3456H         LINE#         919
  C:3458H         LINE#         920
  C:345CH         LINE#         921
  C:345FH         LINE#         923
  C:345FH         LINE#         924
  C:3460H         LINE#         925
  C:3460H         LINE#         926
  C:3460H         LINE#         927
  C:3463H         LINE#         928
  C:347BH         LINE#         929
  C:347BH         LINE#         930
  C:3488H         LINE#         931
  C:3488H         LINE#         932
  C:348CH         LINE#         933
  C:3491H         LINE#         934
  C:3491H         LINE#         935
  C:3494H         LINE#         937
  C:3494H         LINE#         938
  C:3498H         LINE#         939
  C:3498H         LINE#         940
  C:3498H         LINE#         941
  C:349AH         LINE#         942
  C:34A3H         LINE#         943
  C:34A3H         LINE#         945
  C:34B8H         LINE#         946
  C:34BAH         LINE#         979
  C:34D9H         LINE#         980
  C:34D9H         LINE#         981
  C:34DBH         LINE#         982
  C:34DBH         LINE#         985
  C:34DEH         LINE#         986
  C:34DEH         LINE#         987
  C:34ECH         LINE#         988
  C:34ECH         LINE#         989
  C:34F0H         LINE#         990
  C:34F5H         LINE#         991
BL51 BANKED LINKER/LOCATER V6.22.2.0                                                  10/02/2020  15:54:40  PAGE 42


  C:34F5H         LINE#         992
  C:34F7H         LINE#         994
  C:34F7H         LINE#         995
  C:34FCH         LINE#         996
  C:3500H         LINE#         997
  C:3500H         LINE#         998
  C:3500H         LINE#         999
  C:3502H         LINE#         1001
  C:3502H         LINE#         1002
  C:350FH         LINE#         1003
  C:350FH         LINE#         1004
  C:3513H         LINE#         1005
  C:3519H         LINE#         1006
  C:351EH         LINE#         1007
  C:351EH         LINE#         1008
  C:351EH         LINE#         1010
  C:351EH         LINE#         1012
  C:351EH         LINE#         1013
  C:351EH         LINE#         1016
  C:3535H         LINE#         1017
  C:353FH         LINE#         1018
  C:3549H         LINE#         1019
  C:3553H         LINE#         1020
  C:355DH         LINE#         1022
  C:355DH         LINE#         1025
  -------         ENDPROC       _ANALIZA_TIEMPO
  -------         ENDMOD        CLOCK

  -------         MODULE        DELAY
  C:0000H         SYMBOL        _ICE_DUMMY_
  C:AA5CH         PUBLIC        _Delay_10ms
  C:AD6FH         PUBLIC        _Delay_20us
  C:AD12H         PUBLIC        _Delay_1ms
  C:AE7BH         PUBLIC        Delay
  -------         PROC          _DELAY_20US
  D:0006H         SYMBOL        cnt
  -------         DO            
  D:0004H         SYMBOL        i
  -------         ENDDO         
  C:AD6FH         LINE#         20
  C:AD6FH         LINE#         21
  C:AD6FH         LINE#         24
  C:AD79H         LINE#         26
  C:AD80H         LINE#         27
  -------         ENDPROC       _DELAY_20US
  -------         PROC          _DELAY_1MS
  D:0002H         SYMBOL        cnt
  -------         DO            
  D:0082H         SYMBOL        i
  -------         ENDDO         
  C:AD12H         LINE#         38
  C:AD16H         LINE#         39
  C:AD16H         LINE#         41
  C:AD2CH         LINE#         42
  -------         ENDPROC       _DELAY_1MS
  -------         PROC          _DELAY_10MS
  X:0012H         SYMBOL        cnt
BL51 BANKED LINKER/LOCATER V6.22.2.0                                                  10/02/2020  15:54:40  PAGE 43


  -------         DO            
  X:0014H         SYMBOL        i
  -------         ENDDO         
  C:AA5CH         LINE#         54
  C:AA64H         LINE#         55
  C:AA64H         LINE#         57
  C:AA95H         LINE#         58
  -------         ENDPROC       _DELAY_10MS
  -------         PROC          DELAY
  C:AE7BH         LINE#         60
  C:AE7BH         LINE#         62
  -------         ENDPROC       DELAY
  -------         ENDMOD        DELAY

  -------         MODULE        EEPROM
  C:0000H         SYMBOL        _ICE_DUMMY_
  D:0090H         PUBLIC        P1
  C:A101H         PUBLIC        _EscribirMemoria
  X:0282H         PUBLIC        l_chr
  C:AC3DH         PUBLIC        ackd
  B:0021H.6       PUBLIC        memory_flag
  B:00D0H.7       PUBLIC        CY
  C:AE63H         PUBLIC        p_me
  C:A488H         PUBLIC        variable_inicio
  C:AD89H         PUBLIC        start
  B:0090H.2       PUBLIC        sda
  C:AC5DH         PUBLIC        ack_lect
  B:0090H.3       PUBLIC        scl
  C:A9ACH         PUBLIC        _rd_eeprom
  C:AE20H         PUBLIC        stop
  X:0283H         PUBLIC        l_data_eeprom
  C:A449H         PUBLIC        _wr_eeprom
  C:A2B3H         PUBLIC        _LeerMemoria
  X:0284H         PUBLIC        byte_rd
  C:AC18H         PUBLIC        _e_d_m
  C:A4DEH         PUBLIC        l_d_m
  -------         PROC          L?0048
  -------         ENDPROC       L?0048
  -------         PROC          ACKD
  -------         DO            
  D:0006H         SYMBOL        i
  -------         ENDDO         
  C:AC3DH         LINE#         44
  C:AC3DH         LINE#         45
  C:AC3DH         LINE#         47
  C:AC3FH         LINE#         48
  C:AC41H         LINE#         49
  C:AC43H         LINE#         50
  C:AC46H         LINE#         51
  C:AC46H         LINE#         52
  C:AC49H         LINE#         53
  C:AC49H         LINE#         54
  C:AC4BH         LINE#         55
  C:AC4DH         LINE#         57
  C:AC4EH         LINE#         58
  C:AC4EH         LINE#         59
  C:AC59H         LINE#         61
BL51 BANKED LINKER/LOCATER V6.22.2.0                                                  10/02/2020  15:54:40  PAGE 44


  C:AC59H         LINE#         62
  C:AC59H         LINE#         64
  C:AC59H         LINE#         65
  -------         ENDPROC       ACKD
  -------         PROC          L?0050
  -------         ENDPROC       L?0050
  -------         PROC          ACK_LECT
  -------         DO            
  D:0006H         SYMBOL        i
  -------         ENDDO         
  C:AC5DH         LINE#         68
  C:AC5DH         LINE#         69
  C:AC5DH         LINE#         71
  C:AC5FH         LINE#         72
  C:AC61H         LINE#         73
  C:AC63H         LINE#         74
  C:AC66H         LINE#         75
  C:AC66H         LINE#         76
  C:AC69H         LINE#         77
  C:AC69H         LINE#         78
  C:AC6BH         LINE#         79
  C:AC6DH         LINE#         80
  C:AC6EH         LINE#         81
  C:AC6EH         LINE#         82
  C:AC79H         LINE#         83
  -------         ENDPROC       ACK_LECT
  -------         PROC          P_ME
  C:AE63H         LINE#         85
  C:AE63H         LINE#         86
  C:AE63H         LINE#         87
  C:AE65H         LINE#         88
  C:AE66H         LINE#         89
  C:AE68H         LINE#         90
  -------         ENDPROC       P_ME
  -------         PROC          _E_D_M
  D:0007H         SYMBOL        a_serial_eeprom
  -------         DO            
  D:0006H         SYMBOL        nbits
  -------         ENDDO         
  C:AC18H         LINE#         92
  C:AC18H         LINE#         93
  C:AC18H         LINE#         95
  C:AC24H         LINE#         96
  C:AC24H         LINE#         97
  C:AC28H         LINE#         98
  C:AC2BH         LINE#         99
  C:AC2BH         LINE#         100
  C:AC2DH         LINE#         101
  C:AC2FH         LINE#         103
  C:AC2FH         LINE#         104
  C:AC31H         LINE#         105
  C:AC31H         LINE#         106
  C:AC33H         LINE#         107
  C:AC36H         LINE#         108
  C:AC39H         LINE#         110
  -------         ENDPROC       _E_D_M
  -------         PROC          L?0049
BL51 BANKED LINKER/LOCATER V6.22.2.0                                                  10/02/2020  15:54:40  PAGE 45


  -------         ENDPROC       L?0049
  -------         PROC          START
  C:AD89H         LINE#         112
  C:AD89H         LINE#         113
  C:AD89H         LINE#         114
  C:AD8BH         LINE#         115
  C:AD8DH         LINE#         116
  C:AD8EH         LINE#         117
  C:AD90H         LINE#         118
  C:AD92H         LINE#         120
  -------         ENDPROC       START
  -------         PROC          STOP
  C:AE20H         LINE#         122
  C:AE20H         LINE#         123
  C:AE20H         LINE#         124
  C:AE22H         LINE#         125
  C:AE24H         LINE#         126
  C:AE26H         LINE#         127
  C:AE28H         LINE#         129
  -------         ENDPROC       STOP
  -------         PROC          L_D_M
  -------         DO            
  D:0003H         SYMBOL        nbits
  -------         ENDDO         
  C:A4DEH         LINE#         131
  C:A4DEH         LINE#         132
  C:A4DEH         LINE#         134
  C:A4EBH         LINE#         135
  C:A4EBH         LINE#         136
  C:A4EDH         LINE#         137
  C:A4F0H         LINE#         138
  C:A4F0H         LINE#         139
  C:A4F7H         LINE#         140
  C:A500H         LINE#         141
  C:A500H         LINE#         142
  C:A504H         LINE#         143
  C:A506H         LINE#         144
  C:A506H         LINE#         145
  C:A506H         LINE#         146
  C:A509H         LINE#         147
  C:A509H         LINE#         148
  C:A510H         LINE#         149
  C:A51AH         LINE#         150
  C:A51AH         LINE#         151
  C:A51EH         LINE#         152
  C:A520H         LINE#         153
  C:A520H         LINE#         154
  C:A520H         LINE#         155
  C:A523H         LINE#         156
  C:A525H         LINE#         157
  C:A52AH         LINE#         158
  -------         ENDPROC       L_D_M
  -------         PROC          L?0045
  -------         ENDPROC       L?0045
  -------         PROC          _WR_EEPROM
  D:0002H         SYMBOL        control
  D:0004H         SYMBOL        Dir
BL51 BANKED LINKER/LOCATER V6.22.2.0                                                  10/02/2020  15:54:40  PAGE 46


  D:0003H         SYMBOL        data_eeprom
  -------         DO            
  D:0005H         SYMBOL        dir_h
  D:0001H         SYMBOL        dir_l
  -------         ENDDO         
  C:A449H         LINE#         164
  C:A44BH         LINE#         165
  C:A44BH         LINE#         167
  C:A44FH         LINE#         168
  C:A44FH         LINE#         169
  C:A44FH         LINE#         172
  C:A44FH         LINE#         173
  C:A44FH         LINE#         175
  C:A452H         LINE#         176
  C:A454H         LINE#         177
  C:A457H         LINE#         178
  C:A459H         LINE#         179
  C:A45CH         LINE#         180
  C:A461H         LINE#         181
  C:A464H         LINE#         182
  C:A469H         LINE#         183
  C:A46CH         LINE#         184
  C:A46FH         LINE#         185
  C:A476H         LINE#         187
  C:A478H         LINE#         188
  C:A47AH         LINE#         189
  C:A481H         LINE#         190
  -------         ENDPROC       _WR_EEPROM
  C:A9A8H         SYMBOL        L?0047
  -------         PROC          L?0046
  -------         ENDPROC       L?0046
  C:A9A8H         SYMBOL        L?0047
  -------         PROC          _RD_EEPROM
  D:0003H         SYMBOL        control
  D:0004H         SYMBOL        Dir
  -------         DO            
  D:0005H         SYMBOL        dir_h
  D:0002H         SYMBOL        dir_l
  -------         ENDDO         
  C:A9ACH         LINE#         228
  C:A9AEH         LINE#         229
  C:A9AEH         LINE#         232
  C:A9B2H         LINE#         233
  C:A9B2H         LINE#         234
  C:A9B2H         LINE#         236
  C:A9B2H         LINE#         237
  C:A9B2H         LINE#         239
  C:A9B5H         LINE#         240
  C:A9B7H         LINE#         241
  C:A9BAH         LINE#         242
  C:A9BCH         LINE#         243
  C:A9BFH         LINE#         244
  C:A9C4H         LINE#         245
  C:A9C7H         LINE#         246
  C:A9CAH         LINE#         247
  C:A9D0H         LINE#         248
  C:A9D3H         LINE#         249
BL51 BANKED LINKER/LOCATER V6.22.2.0                                                  10/02/2020  15:54:40  PAGE 47


  C:A9D5H         LINE#         250
  C:A9D8H         LINE#         251
  C:A9DBH         LINE#         252
  C:A9DDH         LINE#         253
  C:A9DFH         LINE#         254
  C:A9E4H         LINE#         255
  -------         ENDPROC       _RD_EEPROM
  -------         PROC          VARIABLE_INICIO
  C:A488H         LINE#         259
  C:A488H         LINE#         260
  C:A488H         LINE#         262
  C:A498H         LINE#         263
  C:A4A5H         LINE#         264
  C:A4B2H         LINE#         265
  C:A4BFH         LINE#         266
  C:A4C9H         LINE#         268
  C:A4D3H         LINE#         269
  C:A4DDH         LINE#         270
  -------         ENDPROC       VARIABLE_INICIO
  -------         PROC          _LEERMEMORIA
  X:00B0H         SYMBOL        addres
  X:00B2H         SYMBOL        res
  -------         DO            
  D:0007H         SYMBOL        i
  -------         ENDDO         
  C:A2B3H         LINE#         274
  C:A2C4H         LINE#         275
  C:A2C4H         LINE#         277
  C:A2C4H         LINE#         278
  C:A2E0H         LINE#         279
  C:A2EFH         LINE#         280
  C:A2FDH         LINE#         281
  C:A307H         LINE#         282
  C:A30AH         LINE#         283
  -------         ENDPROC       _LEERMEMORIA
  -------         PROC          _ESCRIBIRMEMORIA
  X:0071H         SYMBOL        addres
  X:0073H         SYMBOL        res
  C:A101H         LINE#         285
  C:A112H         LINE#         286
  C:A112H         LINE#         289
  C:A122H         LINE#         290
  C:A129H         LINE#         291
  C:A12CH         LINE#         293
  C:A13AH         LINE#         294
  C:A144H         LINE#         295
  C:A146H         LINE#         296
  C:A149H         LINE#         297
  C:A157H         LINE#         298
  C:A161H         LINE#         299
  -------         ENDPROC       _ESCRIBIRMEMORIA
  -------         ENDMOD        EEPROM

  -------         MODULE        IO_SENSORES
  C:0000H         SYMBOL        _ICE_DUMMY_
  D:0090H         PUBLIC        P1
  D:00B0H         PUBLIC        P3
BL51 BANKED LINKER/LOCATER V6.22.2.0                                                  10/02/2020  15:54:40  PAGE 48


  C:A7A7H         PUBLIC        Dir_board
  B:0090H.1       PUBLIC        DataIn
  C:AD93H         PUBLIC        Dir_Board_Monitor
  C:AE40H         PUBLIC        sel_Auto
  C:A01BH         PUBLIC        ValidaSensoresPaso
  B:00B0H.3       PUBLIC        busy
  C:AC99H         PUBLIC        ValidaSensores_Out
  C:AC7AH         PUBLIC        ValidaSensor
  C:AE4EH         PUBLIC        sel_Sensor1
  C:AE47H         PUBLIC        sel_Sensor2
  B:00B0H.5       PUBLIC        sel_A
  B:00B0H.6       PUBLIC        sel_B
  B:00B0H.7       PUBLIC        sel_C
  C:9D28H         PUBLIC        msj_lcd_informativo
  C:AE55H         PUBLIC        sel_Dir1
  C:AE5CH         PUBLIC        sel_Dir2
  C:AE39H         PUBLIC        sel_Funcion
  -------         PROC          SEL_FUNCION
  C:AE39H         LINE#         31
  C:AE39H         LINE#         32
  C:AE39H         LINE#         33
  C:AE3BH         LINE#         34
  C:AE3DH         LINE#         35
  C:AE3FH         LINE#         36
  -------         ENDPROC       SEL_FUNCION
  -------         PROC          SEL_AUTO
  C:AE40H         LINE#         38
  C:AE40H         LINE#         39
  C:AE40H         LINE#         40
  C:AE42H         LINE#         41
  C:AE44H         LINE#         42
  C:AE46H         LINE#         43
  -------         ENDPROC       SEL_AUTO
  -------         PROC          SEL_SENSOR2
  C:AE47H         LINE#         54
  C:AE47H         LINE#         55
  C:AE47H         LINE#         56
  C:AE49H         LINE#         57
  C:AE4BH         LINE#         58
  C:AE4DH         LINE#         59
  -------         ENDPROC       SEL_SENSOR2
  -------         PROC          SEL_SENSOR1
  C:AE4EH         LINE#         61
  C:AE4EH         LINE#         62
  C:AE4EH         LINE#         63
  C:AE50H         LINE#         64
  C:AE52H         LINE#         65
  C:AE54H         LINE#         66
  -------         ENDPROC       SEL_SENSOR1
  -------         PROC          SEL_DIR1
  C:AE55H         LINE#         68
  C:AE55H         LINE#         69
  C:AE55H         LINE#         70
  C:AE57H         LINE#         71
  C:AE59H         LINE#         72
  C:AE5BH         LINE#         73
  -------         ENDPROC       SEL_DIR1
BL51 BANKED LINKER/LOCATER V6.22.2.0                                                  10/02/2020  15:54:40  PAGE 49


  -------         PROC          SEL_DIR2
  C:AE5CH         LINE#         75
  C:AE5CH         LINE#         76
  C:AE5CH         LINE#         77
  C:AE5EH         LINE#         78
  C:AE60H         LINE#         79
  C:AE62H         LINE#         80
  -------         ENDPROC       SEL_DIR2
  -------         PROC          VALIDASENSOR
  -------         DO            
  D:0007H         SYMBOL        Valido
  D:0004H         SYMBOL        Tmin
  -------         ENDDO         
  C:AC7AH         LINE#         82
  C:AC7AH         LINE#         83
  C:AC7AH         LINE#         85
  C:AC7CH         LINE#         86
  C:AC80H         LINE#         87
  C:AC8BH         LINE#         88
  C:AC8BH         LINE#         89
  C:AC90H         LINE#         90
  C:AC94H         LINE#         91
  C:AC94H         LINE#         92
  C:AC96H         LINE#         93
  C:AC96H         LINE#         94
  C:AC98H         LINE#         95
  C:AC98H         LINE#         96
  -------         ENDPROC       VALIDASENSOR
  -------         PROC          DIR_BOARD
  -------         DO            
  X:0037H         SYMBOL        Board
  D:0007H         SYMBOL        Board_High
  -------         ENDDO         
  C:A7A7H         LINE#         100
  C:A7A7H         LINE#         101
  C:A7A7H         LINE#         102
  C:A7ADH         LINE#         104
  C:A7B0H         LINE#         105
  C:A7B3H         LINE#         106
  C:A7B3H         LINE#         107
  C:A7B6H         LINE#         108
  C:A7B6H         LINE#         109
  C:A7B9H         LINE#         110
  C:A7BCH         LINE#         111
  C:A7BCH         LINE#         112
  C:A7C3H         LINE#         113
  C:A7C3H         LINE#         114
  C:A7CBH         LINE#         115
  C:A7CBH         LINE#         116
  C:A7D3H         LINE#         118
  C:A7D6H         LINE#         119
  C:A7D6H         LINE#         120
  C:A7DCH         LINE#         121
  C:A7DCH         LINE#         122
  C:A7DEH         LINE#         123
  C:A7E0H         LINE#         124
  C:A7E2H         LINE#         125
BL51 BANKED LINKER/LOCATER V6.22.2.0                                                  10/02/2020  15:54:40  PAGE 50


  C:A7E2H         LINE#         127
  C:A7E2H         LINE#         128
  C:A7E9H         LINE#         129
  -------         ENDPROC       DIR_BOARD
  -------         PROC          DIR_BOARD_MONITOR
  -------         DO            
  D:0007H         SYMBOL        Board_High
  -------         ENDDO         
  C:AD93H         LINE#         130
  C:AD93H         LINE#         131
  C:AD93H         LINE#         134
  C:AD9CH         LINE#         135
  C:AD9FH         LINE#         136
  C:AD9FH         LINE#         137
  C:ADA2H         LINE#         138
  C:ADA2H         LINE#         139
  C:ADA4H         LINE#         140
  C:ADA4H         LINE#         141
  C:ADA4H         LINE#         142
  C:ADA4H         LINE#         143
  -------         ENDPROC       DIR_BOARD_MONITOR
  -------         PROC          VALIDASENSORESPASO
  C:A01BH         LINE#         151
  C:A01BH         LINE#         152
  C:A01BH         LINE#         154
  C:A01EH         LINE#         155
  C:A021H         LINE#         156
  C:A021H         LINE#         157
  C:A02FH         LINE#         158
  C:A02FH         LINE#         159
  C:A032H         LINE#         160
  C:A035H         LINE#         161
  C:A038H         LINE#         162
  C:A03DH         LINE#         163
  C:A03DH         LINE#         164
  C:A044H         LINE#         165
  C:A048H         LINE#         166
  C:A04AH         LINE#         168
  C:A04AH         LINE#         170
  C:A04AH         LINE#         171
  C:A051H         LINE#         172
  C:A056H         LINE#         173
  C:A058H         LINE#         174
  C:A058H         LINE#         177
  C:A058H         LINE#         179
  C:A05BH         LINE#         180
  C:A060H         LINE#         181
  C:A060H         LINE#         183
  C:A067H         LINE#         184
  C:A06DH         LINE#         185
  C:A070H         LINE#         186
  C:A070H         LINE#         188
  C:A070H         LINE#         189
  C:A074H         LINE#         190
  C:A076H         LINE#         191
  C:A076H         LINE#         194
  C:A076H         LINE#         195
BL51 BANKED LINKER/LOCATER V6.22.2.0                                                  10/02/2020  15:54:40  PAGE 51


  C:A076H         LINE#         197
  C:A076H         LINE#         198
  C:A07FH         LINE#         199
  C:A082H         LINE#         200
  C:A082H         LINE#         201
  C:A082H         LINE#         202
  C:A082H         LINE#         203
  C:A08BH         LINE#         204
  C:A08DH         LINE#         205
  C:A08DH         LINE#         207
  -------         ENDPROC       VALIDASENSORESPASO
  -------         PROC          VALIDASENSORES_OUT
  -------         DO            
  D:0006H         SYMBOL        valido
  -------         ENDDO         
  C:AC99H         LINE#         209
  C:AC99H         LINE#         210
  C:AC99H         LINE#         211
  C:AC9BH         LINE#         213
  C:AC9EH         LINE#         214
  C:ACA1H         LINE#         215
  C:ACA1H         LINE#         216
  C:ACB0H         LINE#         217
  C:ACB0H         LINE#         218
  C:ACB0H         LINE#         219
  C:ACB2H         LINE#         220
  C:ACB2H         LINE#         222
  C:ACB2H         LINE#         223
  C:ACB2H         LINE#         224
  C:ACB5H         LINE#         225
  C:ACB5H         LINE#         226
  C:ACB5H         LINE#         228
  C:ACB5H         LINE#         229
  C:ACB5H         LINE#         230
  C:ACB7H         LINE#         231
  C:ACB7H         LINE#         232
  -------         ENDPROC       VALIDASENSORES_OUT
  -------         PROC          MSJ_LCD_INFORMATIVO
  -------         DO            
  X:0001H         SYMBOL        info
  X:028EH         SYMBOL        toggle
  -------         ENDDO         
  C:9D28H         LINE#         239
  C:9D28H         LINE#         240
  C:9D28H         LINE#         241
  C:9D2DH         LINE#         243
  C:9D30H         LINE#         244
  C:9D33H         LINE#         245
  C:9D33H         LINE#         246
  C:9D3FH         LINE#         247
  C:9D3FH         LINE#         248
  C:9D42H         LINE#         249
  C:9D42H         LINE#         250
  C:9D44H         LINE#         251
  C:9D47H         LINE#         252
  C:9D4DH         LINE#         253
  C:9D4DH         LINE#         254
BL51 BANKED LINKER/LOCATER V6.22.2.0                                                  10/02/2020  15:54:40  PAGE 52


  C:9D4FH         LINE#         255
  C:9D5DH         LINE#         256
  C:9D5DH         LINE#         257
  C:9D60H         LINE#         258
  C:9D60H         LINE#         259
  C:9D62H         LINE#         260
  C:9D65H         LINE#         261
  C:9D6BH         LINE#         262
  C:9D6BH         LINE#         263
  C:9D6DH         LINE#         264
  C:9D7BH         LINE#         265
  C:9D7BH         LINE#         266
  C:9D7EH         LINE#         267
  C:9D7EH         LINE#         268
  C:9D80H         LINE#         269
  C:9D8EH         LINE#         270
  C:9D8EH         LINE#         271
  C:9D90H         LINE#         272
  C:9D97H         LINE#         274
  C:9D9CH         LINE#         275
  C:9D9CH         LINE#         277
  C:9D9CH         LINE#         279
  C:9D9CH         LINE#         281
  C:9D9FH         LINE#         282
  C:9DA2H         LINE#         283
  C:9DA2H         LINE#         284
  C:9DA7H         LINE#         285
  C:9DA7H         LINE#         287
  -------         ENDPROC       MSJ_LCD_INFORMATIVO
  -------         ENDMOD        IO_SENSORES

  -------         MODULE        PANTALLAS
  C:0000H         SYMBOL        _ICE_DUMMY_
  D:0080H         PUBLIC        P0
  C:9FA4H         PUBLIC        Reloj_Pantalla_Lcd
  C:3E4DH         PUBLIC        _PantallaLCD
  C:A727H         PUBLIC        _LCD_txt
  C:A3D9H         PUBLIC        _Raspberry_data
  C:ABB0H         PUBLIC        _tx_chrlcd
  C:3E41H         SYMBOL        _?ix1000
  C:3E47H         SYMBOL        _?ix1001
  C:A693H         PUBLIC        _LCD_txt_num_char
  X:01BBH         PUBLIC        malloc_memoria
  C:6785H         PUBLIC        _PantallaLCD_LINEA_2
  B:0098H.4       PUBLIC        REN
  B:0080H.7       PUBLIC        sel_com
  -------         PROC          _PANTALLALCD
  X:002EH         SYMBOL        cod_msg
  -------         DO            
  X:002FH         SYMBOL        Ini_LCD_Line_one
  X:0035H         SYMBOL        num_chr
  X:0036H         SYMBOL        msjpantalla
  -------         ENDDO         
  C:3E4DH         LINE#         63
  C:3E52H         LINE#         64
  C:3E52H         LINE#         66
  C:3E65H         LINE#         73
BL51 BANKED LINKER/LOCATER V6.22.2.0                                                  10/02/2020  15:54:40  PAGE 53


  C:3E70H         LINE#         74
  C:3E7FH         LINE#         76
  C:3E81H         LINE#         78
  C:3E8AH         LINE#         79
  C:3E8AH         LINE#         80
  C:3E94H         LINE#         82
  C:3ED5H         LINE#         83
  C:3ED5H         LINE#         85
  C:3ED5H         LINE#         86
  C:3EE3H         LINE#         87
  C:3EE9H         LINE#         88
  C:3EECH         LINE#         89
  C:3EF2H         LINE#         90
  C:3EF5H         LINE#         92
  C:3EF5H         LINE#         94
  C:3F03H         LINE#         95
  C:3F09H         LINE#         96
  C:3F0CH         LINE#         97
  C:3F12H         LINE#         98
  C:3F15H         LINE#         100
  C:3F15H         LINE#         102
  C:3F23H         LINE#         103
  C:3F29H         LINE#         104
  C:3F2CH         LINE#         105
  C:3F32H         LINE#         106
  C:3F35H         LINE#         107
  C:3F35H         LINE#         108
  C:3F43H         LINE#         109
  C:3F49H         LINE#         110
  C:3F4CH         LINE#         111
  C:3F52H         LINE#         112
  C:3F55H         LINE#         113
  C:3F55H         LINE#         114
  C:3F63H         LINE#         115
  C:3F69H         LINE#         116
  C:3F6CH         LINE#         117
  C:3F72H         LINE#         118
  C:3F75H         LINE#         119
  C:3F75H         LINE#         120
  C:3F83H         LINE#         121
  C:3F89H         LINE#         122
  C:3F8CH         LINE#         123
  C:3F92H         LINE#         124
  C:3F95H         LINE#         125
  C:3F95H         LINE#         127
  C:3FA3H         LINE#         128
  C:3FA9H         LINE#         129
  C:3FACH         LINE#         130
  C:3FB2H         LINE#         131
  C:3FB5H         LINE#         132
  C:3FB5H         LINE#         138
  C:3FB5H         LINE#         139
  C:3FC3H         LINE#         140
  C:3FC9H         LINE#         141
  C:3FCCH         LINE#         142
  C:3FD2H         LINE#         143
  C:3FD5H         LINE#         144
BL51 BANKED LINKER/LOCATER V6.22.2.0                                                  10/02/2020  15:54:40  PAGE 54


  C:3FD5H         LINE#         145
  C:3FE3H         LINE#         146
  C:3FE9H         LINE#         147
  C:3FECH         LINE#         148
  C:3FF2H         LINE#         149
  C:3FF5H         LINE#         151
  C:3FF5H         LINE#         152
  C:4003H         LINE#         153
  C:4009H         LINE#         154
  C:400CH         LINE#         155
  C:4012H         LINE#         156
  C:4015H         LINE#         158
  C:4015H         LINE#         159
  C:4023H         LINE#         160
  C:4029H         LINE#         161
  C:402CH         LINE#         162
  C:4032H         LINE#         163
  C:4035H         LINE#         168
  C:4035H         LINE#         170
  C:4043H         LINE#         171
  C:4049H         LINE#         172
  C:404CH         LINE#         173
  C:4052H         LINE#         174
  C:4055H         LINE#         175
  C:4055H         LINE#         177
  C:4063H         LINE#         178
  C:4069H         LINE#         179
  C:406CH         LINE#         180
  C:4072H         LINE#         181
  C:4075H         LINE#         182
  C:4075H         LINE#         184
  C:4083H         LINE#         185
  C:4089H         LINE#         186
  C:408CH         LINE#         187
  C:4092H         LINE#         188
  C:4094H         LINE#         189
  C:4094H         LINE#         191
  C:40A2H         LINE#         192
  C:40A8H         LINE#         193
  C:40ABH         LINE#         194
  C:40B1H         LINE#         195
  C:40B3H         LINE#         197
  C:40B3H         LINE#         199
  C:40C1H         LINE#         200
  C:40C7H         LINE#         201
  C:40CAH         LINE#         202
  C:40D0H         LINE#         203
  C:40D2H         LINE#         205
  C:40D2H         LINE#         206
  C:40E0H         LINE#         207
  C:40E6H         LINE#         208
  C:40E9H         LINE#         209
  C:40F4H         LINE#         210
  C:40F4H         LINE#         211
  C:40F4H         LINE#         213
  C:40F4H         LINE#         214
  C:40F4H         LINE#         215
BL51 BANKED LINKER/LOCATER V6.22.2.0                                                  10/02/2020  15:54:40  PAGE 55


  C:40F6H         LINE#         217
  C:40F7H         LINE#         219
  C:40F7H         LINE#         220
  C:40F9H         LINE#         221
  C:4143H         LINE#         222
  C:4143H         LINE#         225
  C:4143H         LINE#         226
  C:415AH         LINE#         227
  C:4166H         LINE#         228
  C:4169H         LINE#         229
  C:4169H         LINE#         231
  C:416FH         LINE#         232
  C:4172H         LINE#         234
  C:4172H         LINE#         236
  C:4178H         LINE#         237
  C:417BH         LINE#         238
  C:417BH         LINE#         239
  C:4181H         LINE#         240
  C:4184H         LINE#         241
  C:4184H         LINE#         242
  C:418AH         LINE#         243
  C:418CH         LINE#         244
  C:418CH         LINE#         245
  C:4192H         LINE#         246
  C:4194H         LINE#         247
  C:4194H         LINE#         249
  C:419AH         LINE#         250
  C:419CH         LINE#         251
  C:419CH         LINE#         252
  C:41A2H         LINE#         253
  C:41A4H         LINE#         255
  C:41A4H         LINE#         256
  C:41AAH         LINE#         257
  C:41ACH         LINE#         259
  C:41ACH         LINE#         260
  C:41B2H         LINE#         261
  C:41B4H         LINE#         263
  C:41B4H         LINE#         264
  C:41BAH         LINE#         265
  C:41BCH         LINE#         267
  C:41BCH         LINE#         268
  C:41C2H         LINE#         269
  C:41C4H         LINE#         273
  C:41C4H         LINE#         275
  C:41CAH         LINE#         276
  C:41CCH         LINE#         277
  C:41CCH         LINE#         279
  C:41D2H         LINE#         280
  C:41D4H         LINE#         281
  C:41D4H         LINE#         283
  C:41DAH         LINE#         285
  C:41DCH         LINE#         286
  C:41DCH         LINE#         288
  C:41E2H         LINE#         289
  C:41E4H         LINE#         290
  C:41E4H         LINE#         292
  C:41EAH         LINE#         293
BL51 BANKED LINKER/LOCATER V6.22.2.0                                                  10/02/2020  15:54:40  PAGE 56


  C:41ECH         LINE#         295
  C:41ECH         LINE#         297
  C:41F2H         LINE#         298
  C:41F4H         LINE#         299
  C:41F4H         LINE#         300
  C:41FAH         LINE#         301
  C:41FCH         LINE#         302
  C:41FCH         LINE#         303
  C:4202H         LINE#         304
  C:4204H         LINE#         305
  C:4204H         LINE#         306
  C:420DH         LINE#         307
  C:420DH         LINE#         309
  C:420DH         LINE#         311
  C:420DH         LINE#         312
  C:420DH         LINE#         313
  C:4218H         LINE#         314
  C:421FH         LINE#         315
  C:4221H         LINE#         316
  C:4221H         LINE#         320
  -------         ENDPROC       _PANTALLALCD
  -------         PROC          _PANTALLALCD_LINEA_2
  X:0010H         SYMBOL        cod_msg
  X:0011H         SYMBOL        buffer
  -------         DO            
  X:0014H         SYMBOL        Ini_LCD_Line_one
  X:001AH         SYMBOL        num_chr
  X:001BH         SYMBOL        buf
  -------         ENDDO         
  C:6785H         LINE#         321
  C:6793H         LINE#         322
  C:6793H         LINE#         324
  C:67A6H         LINE#         331
  C:67A8H         LINE#         333
  C:67B1H         LINE#         334
  C:67B1H         LINE#         337
  C:67BFH         LINE#         338
  C:67BFH         LINE#         340
  C:67BFH         LINE#         341
  C:67C2H         LINE#         342
  C:67D0H         LINE#         343
  C:67E5H         LINE#         344
  C:67EBH         LINE#         345
  C:67F1H         LINE#         346
  C:67F7H         LINE#         347
  C:67F7H         LINE#         348
  C:67F9H         LINE#         349
  C:67F9H         LINE#         350
  C:67FCH         LINE#         351
  C:680AH         LINE#         352
  C:681FH         LINE#         353
  C:6825H         LINE#         354
  C:682BH         LINE#         355
  C:6836H         LINE#         356
  C:6846H         LINE#         357
  C:6846H         LINE#         358
  C:6846H         LINE#         360
BL51 BANKED LINKER/LOCATER V6.22.2.0                                                  10/02/2020  15:54:40  PAGE 57


  C:6846H         LINE#         362
  C:6846H         LINE#         363
  C:6848H         LINE#         364
  C:6849H         LINE#         366
  C:6849H         LINE#         367
  C:684BH         LINE#         368
  C:6859H         LINE#         369
  C:6859H         LINE#         370
  C:6859H         LINE#         372
  C:6868H         LINE#         373
  C:6868H         LINE#         374
  C:6868H         LINE#         375
  C:6868H         LINE#         377
  C:686AH         LINE#         379
  C:686AH         LINE#         380
  C:6879H         LINE#         381
  C:688CH         LINE#         382
  C:68A6H         LINE#         383
  C:68C4H         LINE#         384
  C:68DBH         LINE#         385
  C:68E4H         LINE#         386
  C:68E4H         LINE#         387
  C:68E4H         LINE#         389
  C:68E4H         LINE#         390
  C:68E4H         LINE#         391
  C:68E6H         LINE#         392
  C:68E6H         LINE#         395
  -------         ENDPROC       _PANTALLALCD_LINEA_2
  C:ABA7H         SYMBOL        L?0118
  C:ABAAH         SYMBOL        L?0119
  -------         PROC          L?0117
  -------         ENDPROC       L?0117
  C:ABA7H         SYMBOL        L?0118
  C:ABAAH         SYMBOL        L?0119
  -------         PROC          _TX_CHRLCD
  D:0007H         SYMBOL        data_com
  X:003FH         SYMBOL        enable_char_add
  -------         DO            
  X:0040H         SYMBOL        d
  -------         ENDDO         
  C:ABB0H         LINE#         401
  C:ABB5H         LINE#         402
  C:ABB5H         LINE#         404
  C:ABBDH         LINE#         405
  C:ABCDH         LINE#         407
  -------         ENDPROC       _TX_CHRLCD
  -------         PROC          L?0120
  -------         ENDPROC       L?0120
  -------         PROC          _LCD_TXT
  X:003AH         SYMBOL        msg
  X:003DH         SYMBOL        enable_char_add
  -------         DO            
  X:003EH         SYMBOL        i
  -------         ENDDO         
  C:A727H         LINE#         414
  C:A735H         LINE#         415
  C:A735H         LINE#         418
BL51 BANKED LINKER/LOCATER V6.22.2.0                                                  10/02/2020  15:54:40  PAGE 58


  C:A752H         LINE#         419
  C:A752H         LINE#         420
  C:A75AH         LINE#         421
  C:A762H         LINE#         422
  -------         ENDPROC       _LCD_TXT
  -------         PROC          _LCD_TXT_NUM_CHAR
  X:0024H         SYMBOL        msg
  X:0027H         SYMBOL        length_char
  X:0028H         SYMBOL        enable_char_add
  -------         DO            
  X:0029H         SYMBOL        i
  -------         ENDDO         
  C:A693H         LINE#         429
  C:A6A1H         LINE#         430
  C:A6A1H         LINE#         433
  C:A6B4H         LINE#         434
  C:A6B4H         LINE#         435
  C:A6D0H         LINE#         436
  C:A6D8H         LINE#         437
  -------         ENDPROC       _LCD_TXT_NUM_CHAR
  -------         PROC          _RASPBERRY_DATA
  X:003AH         SYMBOL        msg
  -------         DO            
  X:01BAH         SYMBOL        i
  X:003DH         SYMBOL        lenth_cadena
  D:0007H         SYMBOL        d
  -------         ENDDO         
  C:A3D9H         LINE#         442
  C:A3E4H         LINE#         443
  C:A3E4H         LINE#         448
  C:A3ECH         LINE#         450
  C:A3FEH         LINE#         451
  C:A3FEH         LINE#         452
  C:A410H         LINE#         453
  C:A41AH         LINE#         454
  C:A426H         LINE#         455
  C:A426H         LINE#         457
  C:A429H         LINE#         460
  C:A431H         LINE#         464
  -------         ENDPROC       _RASPBERRY_DATA
  -------         PROC          RELOJ_PANTALLA_LCD
  -------         DO            
  X:0010H         SYMBOL        Ini_Clock_LCD
  D:0007H         SYMBOL        lendtrama
  -------         ENDDO         
  C:9FA4H         LINE#         473
  C:9FA4H         LINE#         474
  C:9FA4H         LINE#         479
  C:9FAAH         LINE#         480
  C:9FAAH         LINE#         481
  C:9FACH         LINE#         482
  C:9FB5H         LINE#         486
  C:9FB7H         LINE#         487
  C:9FC7H         LINE#         489
  C:9FC9H         LINE#         490
  C:9FCBH         LINE#         492
  C:9FCCH         LINE#         494
BL51 BANKED LINKER/LOCATER V6.22.2.0                                                  10/02/2020  15:54:40  PAGE 59


  C:9FCCH         LINE#         495
  C:9FCEH         LINE#         496
  C:9FD3H         LINE#         497
  C:9FE2H         LINE#         498
  C:9FEBH         LINE#         500
  C:9FF8H         LINE#         501
  C:A00FH         LINE#         502
  C:A018H         LINE#         503
  C:A01AH         LINE#         504
  C:A01AH         LINE#         505
  -------         ENDPROC       RELOJ_PANTALLA_LCD
  -------         ENDMOD        PANTALLAS

  -------         MODULE        PROG
  C:0000H         SYMBOL        _ICE_DUMMY_
  C:5738H         PUBLIC        Prog_fecha_vencimiento
  C:6E0CH         PUBLIC        Prog_Sin_Cobro
  C:73ECH         PUBLIC        _Ver_Horario_Desde_Hasta
  C:7B39H         PUBLIC        Prog_debug
  C:7F29H         PUBLIC        dcto_caja
  C:96CEH         PUBLIC        _GetOption
  X:020FH         PUBLIC        validacion
  X:0218H         PUBLIC        cursor
  C:72D2H         PUBLIC        _Prog_Horarios_on_off
  C:9B17H         PUBLIC        Show
  C:4222H         PUBLIC        Ver_Prog
  C:AACDH         PUBLIC        Addr_Horarios
  C:7D31H         PUBLIC        Prog_Comparacion_Activa
  C:8C9EH         PUBLIC        prog_id_cliente
  C:A7F2H         PUBLIC        _ValidarClave
  C:5115H         PUBLIC        menu
  C:7C35H         PUBLIC        Prog_Use_Lpr
  C:A319H         PUBLIC        _ListaComandos
  C:115BH         SYMBOL        _?ix1000
  C:1166H         SYMBOL        _?ix1001
  C:1176H         SYMBOL        _?ix1002
  C:1186H         SYMBOL        _?ix1003
  C:6A48H         PUBLIC        Prog_Horarios
  C:118AH         SYMBOL        _?ix1004
  C:118EH         SYMBOL        _?ix1005
  C:8025H         PUBLIC        Prog_Apb_Mensual
  C:532FH         PUBLIC        _hash_id
  C:4E5EH         PUBLIC        _Prog_Horario_dias
  C:8B26H         PUBLIC        Prog_tiempo_gracia
  C:9DB0H         PUBLIC        _IngresaDato
  C:A576H         PUBLIC        First_Clave
  X:022CH         PUBLIC        comandos
  C:AD2DH         PUBLIC        DisplayCursor
  C:8A69H         PUBLIC        prog_cod_park
  C:6F4AH         PUBLIC        Ver_Horario
  C:71AAH         PUBLIC        _Ver_Horario_dias
  C:553EH         PUBLIC        _Prog_Horario_Desde_Hasta
  C:7E2DH         PUBLIC        tipo_pantalla
  C:83E4H         PUBLIC        Prog_Address_High_Board
  C:A8B4H         PUBLIC        _GetCMD
  -------         PROC          _HASH_ID
  X:0071H         SYMBOL        clave
BL51 BANKED LINKER/LOCATER V6.22.2.0                                                  10/02/2020  15:54:40  PAGE 60


  -------         DO            
  X:0074H         SYMBOL        len_clave
  X:0075H         SYMBOL        i
  X:020BH         SYMBOL        temp
  X:020DH         SYMBOL        temp1
  X:0076H         SYMBOL        aleatorio
  X:0081H         SYMBOL        suma
  X:0091H         SYMBOL        xxor
  X:00A1H         SYMBOL        usuario1
  X:00ACH         SYMBOL        vencimiento_password
  -------         ENDDO         
  C:532FH         LINE#         112
  C:533AH         LINE#         113
  C:533AH         LINE#         116
  C:534DH         LINE#         117
  C:5360H         LINE#         118
  C:5373H         LINE#         122
  C:5380H         LINE#         123
  C:5394H         LINE#         125
  C:5394H         LINE#         126
  C:539DH         LINE#         127
  C:53A9H         LINE#         128
  C:53ABH         LINE#         130
  C:53ABH         LINE#         131
  C:53BAH         LINE#         132
  C:53BAH         LINE#         134
  C:53CDH         LINE#         135
  C:53E1H         LINE#         136
  C:53E1H         LINE#         137
  C:540DH         LINE#         138
  C:5418H         LINE#         139
  C:5425H         LINE#         140
  C:5443H         LINE#         141
  C:544EH         LINE#         142
  C:545BH         LINE#         143
  C:547FH         LINE#         144
  C:5487H         LINE#         145
  C:5487H         LINE#         146
  C:548CH         LINE#         147
  C:548CH         LINE#         148
  C:54A5H         LINE#         149
  C:54A5H         LINE#         150
  C:54B1H         LINE#         152
  C:54B1H         LINE#         153
  C:54C0H         LINE#         154
  C:54C0H         LINE#         155
  C:54CCH         LINE#         156
  C:54CCH         LINE#         157
  C:54E5H         LINE#         158
  C:54E5H         LINE#         159
  C:54F0H         LINE#         160
  C:54F0H         LINE#         161
  C:5509H         LINE#         162
  C:5509H         LINE#         163
  C:5514H         LINE#         164
  C:5514H         LINE#         165
  C:5529H         LINE#         167
BL51 BANKED LINKER/LOCATER V6.22.2.0                                                  10/02/2020  15:54:40  PAGE 61


  C:5532H         LINE#         168
  C:5537H         LINE#         169
  C:553DH         LINE#         170
  -------         ENDPROC       _HASH_ID
  -------         PROC          _LISTACOMANDOS
  X:005AH         SYMBOL        cmd
  -------         DO            
  X:005DH         SYMBOL        buf
  X:0060H         SYMBOL        i
  -------         ENDDO         
  C:A319H         LINE#         177
  C:A324H         LINE#         178
  C:A324H         LINE#         182
  C:A337H         LINE#         183
  C:A337H         LINE#         184
  C:A34FH         LINE#         185
  C:A36AH         LINE#         186
  C:A370H         LINE#         187
  C:A378H         LINE#         189
  C:A37AH         LINE#         190
  -------         ENDPROC       _LISTACOMANDOS
  -------         PROC          L?0254
  -------         ENDPROC       L?0254
  -------         PROC          _VALIDARCLAVE
  X:0071H         SYMBOL        buffer
  -------         DO            
  X:0074H         SYMBOL        buf
  -------         ENDDO         
  C:A7F2H         LINE#         196
  C:A7FDH         LINE#         197
  C:A7FDH         LINE#         200
  C:A80CH         LINE#         201
  C:A827H         LINE#         202
  C:A829H         LINE#         205
  C:A82BH         LINE#         206
  -------         ENDPROC       _VALIDARCLAVE
  -------         PROC          L?0255
  -------         ENDPROC       L?0255
  -------         PROC          _GETCMD
  X:0071H         SYMBOL        in
  -------         DO            
  X:0074H         SYMBOL        tokens
  -------         ENDDO         
  C:A8B4H         LINE#         213
  C:A8BFH         LINE#         214
  C:A8BFH         LINE#         215
  C:A8D2H         LINE#         216
  -------         ENDPROC       _GETCMD
  -------         PROC          L?0253
  -------         ENDPROC       L?0253
  -------         PROC          _GETOPTION
  X:005AH         SYMBOL        in
  -------         DO            
  X:005DH         SYMBOL        tokensSpace
  X:0061H         SYMBOL        tokensQuote
  -------         ENDDO         
  C:96CEH         LINE#         222
BL51 BANKED LINKER/LOCATER V6.22.2.0                                                  10/02/2020  15:54:40  PAGE 62


  C:96D9H         LINE#         223
  C:96D9H         LINE#         224
  C:96ECH         LINE#         225
  C:96FFH         LINE#         228
  C:9711H         LINE#         229
  C:971DH         LINE#         232
  C:9724H         LINE#         233
  C:9731H         LINE#         235
  C:974AH         LINE#         236
  -------         ENDPROC       _GETOPTION
  -------         PROC          DISPLAYCURSOR
  C:AD2DH         LINE#         241
  C:AD2DH         LINE#         242
  C:AD2DH         LINE#         243
  -------         ENDPROC       DISPLAYCURSOR
  C:9DACH         SYMBOL        L?0252
  -------         PROC          L?0251
  -------         ENDPROC       L?0251
  C:9DACH         SYMBOL        L?0252
  -------         PROC          _INGRESADATO
  X:0085H         SYMBOL        buffer
  X:0088H         SYMBOL        modo
  -------         DO            
  D:0006H         SYMBOL        i
  -------         ENDDO         
  C:9DB0H         LINE#         250
  C:9DBEH         LINE#         251
  C:9DBEH         LINE#         256
  C:9DBEH         LINE#         257
  C:9DD0H         LINE#         258
  C:9DD6H         LINE#         259
  C:9DD6H         LINE#         260
  C:9DF1H         LINE#         261
  C:9DF3H         LINE#         263
  C:9DF3H         LINE#         264
  C:9DF8H         LINE#         265
  C:9DF8H         LINE#         266
  C:9E09H         LINE#         267
  C:9E13H         LINE#         268
  C:9E22H         LINE#         270
  C:9E27H         LINE#         274
  -------         ENDPROC       _INGRESADATO
  -------         PROC          PROG_ID_CLIENTE
  -------         DO            
  X:005AH         SYMBOL        buffer
  X:0064H         SYMBOL        dataee
  -------         ENDDO         
  C:8C9EH         LINE#         291
  C:8C9EH         LINE#         292
  C:8C9EH         LINE#         296
  C:8CB0H         LINE#         297
  C:8CCDH         LINE#         299
  C:8CE4H         LINE#         301
  C:8CEDH         LINE#         302
  C:8CF4H         LINE#         303
  C:8D05H         LINE#         304
  C:8D0EH         LINE#         306
BL51 BANKED LINKER/LOCATER V6.22.2.0                                                  10/02/2020  15:54:40  PAGE 63


  C:8D20H         LINE#         307
  C:8D3DH         LINE#         308
  -------         ENDPROC       PROG_ID_CLIENTE
  -------         PROC          PROG_COD_PARK
  -------         DO            
  X:005AH         SYMBOL        buffer
  X:0064H         SYMBOL        dataee
  -------         ENDDO         
  C:8A69H         LINE#         313
  C:8A69H         LINE#         314
  C:8A69H         LINE#         318
  C:8A7CH         LINE#         319
  C:8A99H         LINE#         321
  C:8AB0H         LINE#         323
  C:8AB9H         LINE#         324
  C:8AC4H         LINE#         325
  C:8AD5H         LINE#         326
  C:8ADFH         LINE#         328
  C:8AF2H         LINE#         329
  C:8B0FH         LINE#         330
  -------         ENDPROC       PROG_COD_PARK
  -------         PROC          PROG_TIEMPO_GRACIA
  -------         DO            
  X:005AH         SYMBOL        buffer
  X:0064H         SYMBOL        dataee
  -------         ENDDO         
  C:8B26H         LINE#         335
  C:8B26H         LINE#         336
  C:8B26H         LINE#         340
  C:8B39H         LINE#         341
  C:8B56H         LINE#         343
  C:8B6DH         LINE#         345
  C:8B76H         LINE#         346
  C:8B81H         LINE#         347
  C:8B92H         LINE#         348
  C:8B9CH         LINE#         350
  C:8BAFH         LINE#         351
  C:8BCCH         LINE#         352
  -------         ENDPROC       PROG_TIEMPO_GRACIA
  -------         PROC          PROG_SIN_COBRO
  -------         DO            
  X:005AH         SYMBOL        buffer
  X:0064H         SYMBOL        dataee
  -------         ENDDO         
  C:6E0CH         LINE#         358
  C:6E0CH         LINE#         359
  C:6E0CH         LINE#         365
  C:6E1FH         LINE#         366
  C:6E3CH         LINE#         367
  C:6E46H         LINE#         368
  C:6E46H         LINE#         369
  C:6E59H         LINE#         370
  C:6E5BH         LINE#         371
  C:6E67H         LINE#         372
  C:6E67H         LINE#         373
  C:6E7AH         LINE#         374
  C:6E7CH         LINE#         376
BL51 BANKED LINKER/LOCATER V6.22.2.0                                                  10/02/2020  15:54:40  PAGE 64


  C:6E7CH         LINE#         377
  C:6E93H         LINE#         378
  C:6E93H         LINE#         380
  C:6E9CH         LINE#         381
  C:6EA7H         LINE#         382
  C:6EB8H         LINE#         383
  C:6EC2H         LINE#         385
  C:6ED5H         LINE#         386
  C:6EF2H         LINE#         387
  C:6EFCH         LINE#         388
  C:6EFCH         LINE#         389
  C:6F0FH         LINE#         390
  C:6F11H         LINE#         391
  C:6F1DH         LINE#         392
  C:6F1DH         LINE#         393
  C:6F30H         LINE#         394
  C:6F32H         LINE#         396
  C:6F32H         LINE#         397
  C:6F49H         LINE#         398
  C:6F49H         LINE#         400
  -------         ENDPROC       PROG_SIN_COBRO
  -------         PROC          PROG_DEBUG
  -------         DO            
  X:005AH         SYMBOL        buffer
  X:0064H         SYMBOL        dataee
  -------         ENDDO         
  C:7B39H         LINE#         406
  C:7B39H         LINE#         407
  C:7B39H         LINE#         412
  C:7B4CH         LINE#         413
  C:7B69H         LINE#         414
  C:7B73H         LINE#         415
  C:7B73H         LINE#         416
  C:7B86H         LINE#         417
  C:7B88H         LINE#         419
  C:7B88H         LINE#         420
  C:7B9FH         LINE#         421
  C:7B9FH         LINE#         423
  C:7BA8H         LINE#         424
  C:7BB3H         LINE#         425
  C:7BC4H         LINE#         426
  C:7BCEH         LINE#         428
  C:7BE1H         LINE#         429
  C:7BFEH         LINE#         430
  C:7C08H         LINE#         431
  C:7C08H         LINE#         432
  C:7C1BH         LINE#         433
  C:7C1DH         LINE#         435
  C:7C1DH         LINE#         436
  C:7C34H         LINE#         437
  C:7C34H         LINE#         438
  -------         ENDPROC       PROG_DEBUG
  -------         PROC          PROG_USE_LPR
  -------         DO            
  X:005AH         SYMBOL        buffer
  X:0064H         SYMBOL        dataee
  -------         ENDDO         
BL51 BANKED LINKER/LOCATER V6.22.2.0                                                  10/02/2020  15:54:40  PAGE 65


  C:7C35H         LINE#         443
  C:7C35H         LINE#         444
  C:7C35H         LINE#         449
  C:7C48H         LINE#         450
  C:7C65H         LINE#         451
  C:7C6FH         LINE#         452
  C:7C6FH         LINE#         453
  C:7C82H         LINE#         454
  C:7C84H         LINE#         456
  C:7C84H         LINE#         457
  C:7C9BH         LINE#         458
  C:7C9BH         LINE#         460
  C:7CA4H         LINE#         461
  C:7CAFH         LINE#         462
  C:7CC0H         LINE#         463
  C:7CCAH         LINE#         465
  C:7CDDH         LINE#         466
  C:7CFAH         LINE#         467
  C:7D04H         LINE#         468
  C:7D04H         LINE#         469
  C:7D17H         LINE#         470
  C:7D19H         LINE#         472
  C:7D19H         LINE#         473
  C:7D30H         LINE#         474
  C:7D30H         LINE#         475
  -------         ENDPROC       PROG_USE_LPR
  -------         PROC          PROG_COMPARACION_ACTIVA
  -------         DO            
  X:005AH         SYMBOL        buffer
  X:0064H         SYMBOL        dataee
  -------         ENDDO         
  C:7D31H         LINE#         479
  C:7D31H         LINE#         480
  C:7D31H         LINE#         485
  C:7D44H         LINE#         486
  C:7D61H         LINE#         487
  C:7D6BH         LINE#         488
  C:7D6BH         LINE#         489
  C:7D7EH         LINE#         490
  C:7D80H         LINE#         492
  C:7D80H         LINE#         493
  C:7D97H         LINE#         494
  C:7D97H         LINE#         496
  C:7DA0H         LINE#         497
  C:7DABH         LINE#         498
  C:7DBCH         LINE#         499
  C:7DC6H         LINE#         501
  C:7DD9H         LINE#         502
  C:7DF6H         LINE#         503
  C:7E00H         LINE#         504
  C:7E00H         LINE#         505
  C:7E13H         LINE#         506
  C:7E15H         LINE#         508
  C:7E15H         LINE#         509
  C:7E2CH         LINE#         510
  C:7E2CH         LINE#         511
  -------         ENDPROC       PROG_COMPARACION_ACTIVA
BL51 BANKED LINKER/LOCATER V6.22.2.0                                                  10/02/2020  15:54:40  PAGE 66


  -------         PROC          TIPO_PANTALLA
  -------         DO            
  X:005AH         SYMBOL        buffer
  X:0064H         SYMBOL        dataee
  -------         ENDDO         
  C:7E2DH         LINE#         517
  C:7E2DH         LINE#         518
  C:7E2DH         LINE#         523
  C:7E40H         LINE#         524
  C:7E5DH         LINE#         525
  C:7E67H         LINE#         526
  C:7E67H         LINE#         527
  C:7E7AH         LINE#         528
  C:7E7CH         LINE#         530
  C:7E7CH         LINE#         531
  C:7E93H         LINE#         532
  C:7E93H         LINE#         534
  C:7E9CH         LINE#         535
  C:7EA7H         LINE#         536
  C:7EB8H         LINE#         537
  C:7EC2H         LINE#         539
  C:7ED5H         LINE#         540
  C:7EF2H         LINE#         541
  C:7EFCH         LINE#         542
  C:7EFCH         LINE#         543
  C:7F0FH         LINE#         544
  C:7F11H         LINE#         546
  C:7F11H         LINE#         547
  C:7F28H         LINE#         548
  C:7F28H         LINE#         550
  -------         ENDPROC       TIPO_PANTALLA
  -------         PROC          DCTO_CAJA
  -------         DO            
  X:005AH         SYMBOL        buffer
  X:0064H         SYMBOL        dataee
  -------         ENDDO         
  C:7F29H         LINE#         556
  C:7F29H         LINE#         557
  C:7F29H         LINE#         562
  C:7F3CH         LINE#         563
  C:7F59H         LINE#         564
  C:7F63H         LINE#         565
  C:7F63H         LINE#         566
  C:7F76H         LINE#         567
  C:7F78H         LINE#         569
  C:7F78H         LINE#         570
  C:7F8FH         LINE#         571
  C:7F8FH         LINE#         573
  C:7F98H         LINE#         574
  C:7FA3H         LINE#         575
  C:7FB4H         LINE#         576
  C:7FBEH         LINE#         578
  C:7FD1H         LINE#         579
  C:7FEEH         LINE#         580
  C:7FF8H         LINE#         581
  C:7FF8H         LINE#         582
  C:800BH         LINE#         583
BL51 BANKED LINKER/LOCATER V6.22.2.0                                                  10/02/2020  15:54:40  PAGE 67


  C:800DH         LINE#         585
  C:800DH         LINE#         586
  C:8024H         LINE#         587
  C:8024H         LINE#         588
  -------         ENDPROC       DCTO_CAJA
  -------         PROC          PROG_APB_MENSUAL
  -------         DO            
  X:005AH         SYMBOL        buffer
  X:0064H         SYMBOL        dataee
  -------         ENDDO         
  C:8025H         LINE#         589
  C:8025H         LINE#         590
  C:8025H         LINE#         595
  C:8038H         LINE#         596
  C:8055H         LINE#         597
  C:805FH         LINE#         598
  C:805FH         LINE#         599
  C:8072H         LINE#         600
  C:8074H         LINE#         602
  C:8074H         LINE#         603
  C:808BH         LINE#         604
  C:808BH         LINE#         606
  C:8094H         LINE#         607
  C:809FH         LINE#         608
  C:80B0H         LINE#         609
  C:80BAH         LINE#         611
  C:80CDH         LINE#         612
  C:80EAH         LINE#         613
  C:80F4H         LINE#         614
  C:80F4H         LINE#         615
  C:8107H         LINE#         616
  C:8109H         LINE#         618
  C:8109H         LINE#         619
  C:8120H         LINE#         620
  C:8120H         LINE#         621
  -------         ENDPROC       PROG_APB_MENSUAL
  -------         PROC          PROG_ADDRESS_HIGH_BOARD
  -------         DO            
  X:005AH         SYMBOL        buffer
  X:0064H         SYMBOL        dataee
  -------         ENDDO         
  C:83E4H         LINE#         622
  C:83E4H         LINE#         623
  C:83E4H         LINE#         628
  C:83F7H         LINE#         629
  C:8414H         LINE#         630
  C:841EH         LINE#         631
  C:841EH         LINE#         632
  C:8422H         LINE#         633
  C:8424H         LINE#         635
  C:8424H         LINE#         636
  C:843BH         LINE#         637
  C:843BH         LINE#         639
  C:8444H         LINE#         640
  C:844FH         LINE#         641
  C:8460H         LINE#         642
  C:846AH         LINE#         644
BL51 BANKED LINKER/LOCATER V6.22.2.0                                                  10/02/2020  15:54:40  PAGE 68


  C:847DH         LINE#         645
  C:849AH         LINE#         646
  C:84A4H         LINE#         647
  C:84A4H         LINE#         648
  C:84A8H         LINE#         649
  C:84AAH         LINE#         651
  C:84AAH         LINE#         652
  C:84C1H         LINE#         653
  C:84C1H         LINE#         654
  -------         ENDPROC       PROG_ADDRESS_HIGH_BOARD
  -------         PROC          ADDR_HORARIOS
  -------         DO            
  X:0088H         SYMBOL        ee_addr_horario
  -------         ENDDO         
  C:AACDH         LINE#         655
  C:AACDH         LINE#         656
  C:AACDH         LINE#         659
  C:AAD3H         LINE#         660
  C:AAD7H         LINE#         661
  C:AADBH         LINE#         662
  C:AADFH         LINE#         663
  C:AAE3H         LINE#         664
  C:AAE7H         LINE#         665
  C:AAEBH         LINE#         666
  C:AAEFH         LINE#         667
  C:AAF3H         LINE#         668
  C:AAF7H         LINE#         669
  C:AAFAH         LINE#         670
  C:AB00H         LINE#         671
  -------         ENDPROC       ADDR_HORARIOS
  -------         PROC          _PROG_HORARIOS_ON_OFF
  X:0075H         SYMBOL        addr
  -------         DO            
  X:0077H         SYMBOL        buffer
  X:0081H         SYMBOL        dataee
  X:0083H         SYMBOL        habilitado
  -------         ENDDO         
  C:72D2H         LINE#         672
  C:72DCH         LINE#         673
  C:72DCH         LINE#         676
  C:72EBH         LINE#         677
  C:7308H         LINE#         678
  C:7312H         LINE#         679
  C:7312H         LINE#         680
  C:7325H         LINE#         681
  C:7327H         LINE#         683
  C:7327H         LINE#         684
  C:733EH         LINE#         685
  C:733EH         LINE#         686
  C:7347H         LINE#         687
  C:7352H         LINE#         688
  C:7363H         LINE#         689
  C:7372H         LINE#         691
  C:7389H         LINE#         692
  C:73A6H         LINE#         693
  C:73B3H         LINE#         694
  C:73B3H         LINE#         695
BL51 BANKED LINKER/LOCATER V6.22.2.0                                                  10/02/2020  15:54:40  PAGE 69


  C:73B6H         LINE#         696
  C:73C9H         LINE#         697
  C:73CBH         LINE#         699
  C:73CBH         LINE#         700
  C:73D0H         LINE#         701
  C:73E5H         LINE#         702
  C:73E5H         LINE#         703
  C:73EBH         LINE#         704
  -------         ENDPROC       _PROG_HORARIOS_ON_OFF
  -------         PROC          _PROG_HORARIO_DESDE_HASTA
  X:0075H         SYMBOL        addr
  -------         DO            
  X:0077H         SYMBOL        buffer
  D:0007H         SYMBOL        dataee
  -------         ENDDO         
  C:553EH         LINE#         705
  C:5546H         LINE#         706
  C:5546H         LINE#         711
  C:554FH         LINE#         712
  C:5552H         LINE#         713
  C:555BH         LINE#         714
  C:5573H         LINE#         715
  C:5586H         LINE#         716
  C:5594H         LINE#         717
  C:55ACH         LINE#         718
  C:55BFH         LINE#         719
  C:55CDH         LINE#         720
  C:55E5H         LINE#         721
  C:55F8H         LINE#         722
  C:5606H         LINE#         723
  C:561EH         LINE#         724
  C:5631H         LINE#         725
  C:563FH         LINE#         729
  C:5648H         LINE#         730
  C:564BH         LINE#         732
  C:5654H         LINE#         734
  C:566CH         LINE#         735
  C:567FH         LINE#         736
  C:568DH         LINE#         737
  C:56A5H         LINE#         738
  C:56B8H         LINE#         739
  C:56C6H         LINE#         740
  C:56DEH         LINE#         741
  C:56F1H         LINE#         742
  C:56FFH         LINE#         743
  C:5717H         LINE#         744
  C:572AH         LINE#         745
  -------         ENDPROC       _PROG_HORARIO_DESDE_HASTA
  -------         PROC          _VER_HORARIO_DESDE_HASTA
  X:0088H         SYMBOL        addr
  -------         DO            
  D:0007H         SYMBOL        dataee
  -------         ENDDO         
  C:73ECH         LINE#         747
  C:73F4H         LINE#         748
  C:73F4H         LINE#         750
  C:73FDH         LINE#         751
BL51 BANKED LINKER/LOCATER V6.22.2.0                                                  10/02/2020  15:54:40  PAGE 70


  C:7410H         LINE#         752
  C:741EH         LINE#         753
  C:7431H         LINE#         754
  C:743FH         LINE#         755
  C:7452H         LINE#         756
  C:7460H         LINE#         757
  C:7473H         LINE#         758
  C:7481H         LINE#         760
  C:7494H         LINE#         761
  C:74A2H         LINE#         763
  C:74B5H         LINE#         764
  C:74C3H         LINE#         766
  C:74D6H         LINE#         767
  C:74E4H         LINE#         769
  C:74F7H         LINE#         770
  -------         ENDPROC       _VER_HORARIO_DESDE_HASTA
  -------         PROC          _PROG_HORARIO_DIAS
  X:0075H         SYMBOL        addr
  -------         DO            
  X:0077H         SYMBOL        buffer
  X:0081H         SYMBOL        dataee
  X:0082H         SYMBOL        j
  X:0083H         SYMBOL        temp
  -------         ENDDO         
  C:4E5EH         LINE#         772
  C:4E66H         LINE#         773
  C:4E66H         LINE#         777
  C:4E6FH         LINE#         778
  C:4E78H         LINE#         779
  C:4E81H         LINE#         780
  C:4E8CH         LINE#         783
  C:4E95H         LINE#         785
  C:4EABH         LINE#         786
  C:4EABH         LINE#         788
  C:4EBEH         LINE#         789
  C:4EBEH         LINE#         790
  C:4EC7H         LINE#         792
  C:4EDCH         LINE#         793
  C:4EF4H         LINE#         794
  C:4F01H         LINE#         795
  C:4F01H         LINE#         797
  C:4F17H         LINE#         798
  C:4F17H         LINE#         799
  C:4F20H         LINE#         800
  C:4F35H         LINE#         801
  C:4F4DH         LINE#         802
  C:4F5AH         LINE#         803
  C:4F5AH         LINE#         805
  C:4F70H         LINE#         806
  C:4F70H         LINE#         807
  C:4F79H         LINE#         808
  C:4F8EH         LINE#         809
  C:4FA6H         LINE#         810
  C:4FB3H         LINE#         811
  C:4FB3H         LINE#         813
  C:4FC9H         LINE#         814
  C:4FC9H         LINE#         815
BL51 BANKED LINKER/LOCATER V6.22.2.0                                                  10/02/2020  15:54:40  PAGE 71


  C:4FD2H         LINE#         816
  C:4FE7H         LINE#         817
  C:4FFFH         LINE#         818
  C:500CH         LINE#         819
  C:500CH         LINE#         821
  C:5022H         LINE#         822
  C:5022H         LINE#         823
  C:502BH         LINE#         824
  C:5040H         LINE#         825
  C:5058H         LINE#         826
  C:5065H         LINE#         827
  C:5065H         LINE#         829
  C:507BH         LINE#         830
  C:507BH         LINE#         831
  C:5084H         LINE#         832
  C:5099H         LINE#         833
  C:50B1H         LINE#         834
  C:50BEH         LINE#         835
  C:50BEH         LINE#         837
  C:50D4H         LINE#         838
  C:50D4H         LINE#         839
  C:50DDH         LINE#         840
  C:50ECH         LINE#         841
  C:50FEH         LINE#         842
  C:510BH         LINE#         843
  C:510BH         LINE#         844
  C:5114H         LINE#         846
  -------         ENDPROC       _PROG_HORARIO_DIAS
  -------         PROC          _VER_HORARIO_DIAS
  X:0088H         SYMBOL        addr
  -------         DO            
  X:008AH         SYMBOL        dataee
  -------         ENDDO         
  C:71AAH         LINE#         847
  C:71B2H         LINE#         848
  C:71B2H         LINE#         851
  C:71C2H         LINE#         852
  C:71C8H         LINE#         853
  C:71C8H         LINE#         854
  C:71CCH         LINE#         855
  C:71CEH         LINE#         857
  C:71CEH         LINE#         858
  C:71D5H         LINE#         859
  C:71D5H         LINE#         862
  C:71EDH         LINE#         863
  C:71F3H         LINE#         864
  C:71F3H         LINE#         865
  C:71F7H         LINE#         866
  C:71F9H         LINE#         868
  C:71F9H         LINE#         869
  C:7200H         LINE#         870
  C:7200H         LINE#         873
  C:7218H         LINE#         874
  C:721EH         LINE#         875
  C:721EH         LINE#         876
  C:7222H         LINE#         877
  C:7224H         LINE#         879
BL51 BANKED LINKER/LOCATER V6.22.2.0                                                  10/02/2020  15:54:40  PAGE 72


  C:7224H         LINE#         880
  C:722BH         LINE#         881
  C:722BH         LINE#         883
  C:7243H         LINE#         884
  C:7249H         LINE#         885
  C:7249H         LINE#         886
  C:724DH         LINE#         887
  C:724FH         LINE#         889
  C:724FH         LINE#         890
  C:7256H         LINE#         891
  C:7256H         LINE#         893
  C:726EH         LINE#         894
  C:7274H         LINE#         895
  C:7274H         LINE#         896
  C:7278H         LINE#         897
  C:727AH         LINE#         899
  C:727AH         LINE#         900
  C:7281H         LINE#         901
  C:7281H         LINE#         904
  C:7299H         LINE#         905
  C:729FH         LINE#         906
  C:729FH         LINE#         907
  C:72A3H         LINE#         908
  C:72A5H         LINE#         910
  C:72A5H         LINE#         911
  C:72ACH         LINE#         912
  C:72ACH         LINE#         914
  C:72BEH         LINE#         915
  C:72C4H         LINE#         916
  C:72C4H         LINE#         917
  C:72C8H         LINE#         918
  C:72CAH         LINE#         920
  C:72CAH         LINE#         921
  C:72D1H         LINE#         922
  C:72D1H         LINE#         923
  -------         ENDPROC       _VER_HORARIO_DIAS
  -------         PROC          PROG_HORARIOS
  -------         DO            
  X:005AH         SYMBOL        buffer
  X:0064H         SYMBOL        ee_addr_horario
  X:006FH         SYMBOL        addr
  X:0071H         SYMBOL        temp
  X:0073H         SYMBOL        dataee
  X:0074H         SYMBOL        j
  -------         ENDDO         
  C:6A48H         LINE#         924
  C:6A48H         LINE#         925
  C:6A48H         LINE#         934
  C:6A54H         LINE#         938
  C:6A5DH         LINE#         939
  C:6A68H         LINE#         941
  C:6A77H         LINE#         945
  C:6A8DH         LINE#         946
  C:6A93H         LINE#         950
  C:6AA1H         LINE#         951
  C:6AA9H         LINE#         952
  C:6AA9H         LINE#         954
BL51 BANKED LINKER/LOCATER V6.22.2.0                                                  10/02/2020  15:54:40  PAGE 73


  C:6AB8H         LINE#         955
  C:6ACCH         LINE#         956
  C:6ACCH         LINE#         957
  C:6AE0H         LINE#         958
  C:6AE8H         LINE#         960
  C:6AF8H         LINE#         963
  C:6AFBH         LINE#         967
  C:6B06H         LINE#         970
  C:6B0FH         LINE#         971
  C:6B1AH         LINE#         972
  C:6B29H         LINE#         973
  C:6B3CH         LINE#         975
  C:6B54H         LINE#         976
  C:6B6EH         LINE#         977
  C:6B76H         LINE#         978
  C:6B76H         LINE#         980
  C:6B84H         LINE#         981
  C:6B8CH         LINE#         982
  C:6B8CH         LINE#         983
  C:6B8CH         LINE#         985
  -------         ENDPROC       PROG_HORARIOS
  -------         PROC          PROG_FECHA_VENCIMIENTO
  -------         DO            
  X:005AH         SYMBOL        buffer
  X:0065H         SYMBOL        cmd
  X:0068H         SYMBOL        fecha
  X:006FH         SYMBOL        dataee
  -------         ENDDO         
  C:5738H         LINE#         986
  C:5738H         LINE#         987
  C:5738H         LINE#         994
  C:5745H         LINE#         995
  C:575CH         LINE#         998
  C:5773H         LINE#         1000
  C:5773H         LINE#         1001
  C:577CH         LINE#         1002
  C:5789H         LINE#         1003
  C:57A0H         LINE#         1004
  C:57B2H         LINE#         1005
  C:57BBH         LINE#         1010
  C:57C6H         LINE#         1011
  C:57DAH         LINE#         1012
  C:57E7H         LINE#         1014
  C:57F0H         LINE#         1017
  C:57F9H         LINE#         1018
  C:5804H         LINE#         1019
  C:581BH         LINE#         1021
  C:5823H         LINE#         1022
  C:582BH         LINE#         1023
  C:582EH         LINE#         1025
  C:583FH         LINE#         1026
  C:5850H         LINE#         1028
  C:585FH         LINE#         1029
  C:5867H         LINE#         1030
  C:586FH         LINE#         1031
  C:5872H         LINE#         1032
  C:5883H         LINE#         1033
BL51 BANKED LINKER/LOCATER V6.22.2.0                                                  10/02/2020  15:54:40  PAGE 74


  C:5894H         LINE#         1034
  C:58A3H         LINE#         1035
  C:58ABH         LINE#         1036
  C:58B3H         LINE#         1037
  C:58B6H         LINE#         1038
  C:58C7H         LINE#         1039
  C:58D8H         LINE#         1040
  C:58E7H         LINE#         1041
  C:58F2H         LINE#         1043
  C:58FFH         LINE#         1045
  C:5916H         LINE#         1046
  -------         ENDPROC       PROG_FECHA_VENCIMIENTO
  -------         PROC          VER_HORARIO
  -------         DO            
  X:006DH         SYMBOL        buffer
  X:0077H         SYMBOL        ee_addr_horario
  X:0082H         SYMBOL        conta
  X:0083H         SYMBOL        addr
  X:0085H         SYMBOL        temp
  X:0087H         SYMBOL        dataee
  -------         ENDDO         
  C:6F4AH         LINE#         1049
  C:6F4AH         LINE#         1050
  C:6F4AH         LINE#         1059
  C:6F56H         LINE#         1060
  C:6F6CH         LINE#         1061
  C:6F6CH         LINE#         1063
  C:6F7CH         LINE#         1066
  C:6F95H         LINE#         1067
  C:6F9BH         LINE#         1070
  C:6FA9H         LINE#         1071
  C:6FB8H         LINE#         1072
  C:6FD2H         LINE#         1073
  C:6FDDH         LINE#         1074
  C:6FDDH         LINE#         1075
  C:6FE6H         LINE#         1077
  C:6FEFH         LINE#         1078
  C:6FFFH         LINE#         1079
  C:7002H         LINE#         1081
  C:700DH         LINE#         1082
  C:7025H         LINE#         1083
  C:703FH         LINE#         1084
  C:7049H         LINE#         1085
  C:7049H         LINE#         1086
  C:7050H         LINE#         1088
  C:705EH         LINE#         1089
  C:7066H         LINE#         1090
  C:7068H         LINE#         1092
  C:7068H         LINE#         1093
  C:706CH         LINE#         1094
  C:706CH         LINE#         1095
  C:706EH         LINE#         1097
  C:706EH         LINE#         1098
  C:7077H         LINE#         1099
  C:7077H         LINE#         1101
  C:7080H         LINE#         1104
  -------         ENDPROC       VER_HORARIO
BL51 BANKED LINKER/LOCATER V6.22.2.0                                                  10/02/2020  15:54:40  PAGE 75


  -------         PROC          VER_PROG
  -------         DO            
  X:005AH         SYMBOL        buffer
  X:0064H         SYMBOL        dataee
  X:0066H         SYMBOL        fecha
  -------         ENDDO         
  C:4222H         LINE#         1105
  C:4222H         LINE#         1106
  C:4222H         LINE#         1112
  C:4234H         LINE#         1113
  C:4251H         LINE#         1115
  C:4268H         LINE#         1117
  C:427BH         LINE#         1118
  C:4298H         LINE#         1120
  C:42AFH         LINE#         1122
  C:42C2H         LINE#         1123
  C:42DFH         LINE#         1125
  C:42F6H         LINE#         1127
  C:4309H         LINE#         1128
  C:4326H         LINE#         1129
  C:4330H         LINE#         1130
  C:4330H         LINE#         1131
  C:4336H         LINE#         1132
  C:4338H         LINE#         1133
  C:4344H         LINE#         1134
  C:4344H         LINE#         1135
  C:434DH         LINE#         1136
  C:434DH         LINE#         1139
  C:4360H         LINE#         1140
  C:437DH         LINE#         1141
  C:438BH         LINE#         1142
  C:438BH         LINE#         1143
  C:438FH         LINE#         1144
  C:4391H         LINE#         1146
  C:4391H         LINE#         1147
  C:4398H         LINE#         1148
  C:4398H         LINE#         1150
  C:43ABH         LINE#         1151
  C:43C8H         LINE#         1152
  C:43D4H         LINE#         1153
  C:43D4H         LINE#         1154
  C:43D8H         LINE#         1155
  C:43DAH         LINE#         1157
  C:43DAH         LINE#         1158
  C:43E1H         LINE#         1159
  C:43E1H         LINE#         1161
  C:43F4H         LINE#         1162
  C:4411H         LINE#         1163
  C:441DH         LINE#         1164
  C:441DH         LINE#         1165
  C:4421H         LINE#         1166
  C:4423H         LINE#         1168
  C:4423H         LINE#         1169
  C:442AH         LINE#         1170
  C:442AH         LINE#         1173
  C:443DH         LINE#         1174
  C:445AH         LINE#         1175
BL51 BANKED LINKER/LOCATER V6.22.2.0                                                  10/02/2020  15:54:40  PAGE 76


  C:4466H         LINE#         1176
  C:4466H         LINE#         1177
  C:446AH         LINE#         1178
  C:446CH         LINE#         1180
  C:446CH         LINE#         1181
  C:4473H         LINE#         1182
  C:4473H         LINE#         1184
  C:4486H         LINE#         1185
  C:44A3H         LINE#         1186
  C:44ADH         LINE#         1187
  C:44ADH         LINE#         1188
  C:44C0H         LINE#         1189
  C:44C2H         LINE#         1191
  C:44C2H         LINE#         1192
  C:44D9H         LINE#         1193
  C:44D9H         LINE#         1195
  C:44ECH         LINE#         1196
  C:4509H         LINE#         1197
  C:4515H         LINE#         1198
  C:4515H         LINE#         1199
  C:4519H         LINE#         1200
  C:451BH         LINE#         1202
  C:451BH         LINE#         1203
  C:4522H         LINE#         1204
  C:4522H         LINE#         1206
  C:4535H         LINE#         1207
  C:4552H         LINE#         1208
  C:455CH         LINE#         1209
  C:455CH         LINE#         1210
  C:4572H         LINE#         1211
  C:4572H         LINE#         1215
  C:4575H         LINE#         1218
  C:4582H         LINE#         1220
  C:4599H         LINE#         1221
  -------         ENDPROC       VER_PROG
  -------         PROC          SHOW
  C:9B17H         LINE#         1226
  C:9B17H         LINE#         1227
  C:9B17H         LINE#         1228
  C:9B20H         LINE#         1229
  C:9B29H         LINE#         1230
  C:9B32H         LINE#         1231
  C:9B3BH         LINE#         1232
  C:9B44H         LINE#         1233
  C:9B4DH         LINE#         1234
  C:9B56H         LINE#         1235
  C:9B5FH         LINE#         1236
  C:9B68H         LINE#         1237
  C:9B71H         LINE#         1238
  C:9B7AH         LINE#         1239
  C:9B83H         LINE#         1240
  C:9B8CH         LINE#         1241
  C:9B95H         LINE#         1242
  -------         ENDPROC       SHOW
  -------         PROC          FIRST_CLAVE
  -------         DO            
  X:005AH         SYMBOL        clave
BL51 BANKED LINKER/LOCATER V6.22.2.0                                                  10/02/2020  15:54:40  PAGE 77


  -------         ENDDO         
  C:A576H         LINE#         1248
  C:A576H         LINE#         1249
  C:A576H         LINE#         1253
  C:A57FH         LINE#         1254
  C:A584H         LINE#         1255
  C:A596H         LINE#         1256
  C:A5A3H         LINE#         1257
  C:A5A9H         LINE#         1258
  C:A5ACH         LINE#         1259
  C:A5AFH         LINE#         1260
  C:A5B1H         LINE#         1262
  -------         ENDPROC       FIRST_CLAVE
  -------         PROC          MENU
  -------         DO            
  X:0001H         SYMBOL        cmd
  X:0004H         SYMBOL        option1
  X:0007H         SYMBOL        option2
  X:000AH         SYMBOL        opt_buffer
  X:0032H         SYMBOL        buffer
  -------         ENDDO         
  C:5115H         LINE#         1270
  C:5115H         LINE#         1271
  C:5115H         LINE#         1280
  C:511EH         LINE#         1281
  C:512AH         LINE#         1282
  C:512AH         LINE#         1283
  C:512DH         LINE#         1284
  C:5137H         LINE#         1287
  C:5137H         LINE#         1290
  C:5137H         LINE#         1291
  C:5140H         LINE#         1292
  C:514DH         LINE#         1293
  C:5152H         LINE#         1294
  C:5168H         LINE#         1295
  C:517AH         LINE#         1296
  C:5183H         LINE#         1301
  C:518EH         LINE#         1302
  C:519CH         LINE#         1303
  C:51A9H         LINE#         1304
  C:51B2H         LINE#         1308
  C:51B5H         LINE#         1309
  C:51B5H         LINE#         1310
  C:51B5H         LINE#         1311
  C:51B8H         LINE#         1314
  C:51C3H         LINE#         1315
  C:51D1H         LINE#         1316
  C:51E5H         LINE#         1317
  C:51F9H         LINE#         1322
  C:520FH         LINE#         1323
  C:520FH         LINE#         1325
  C:521EH         LINE#         1326
  C:5220H         LINE#         1327
  C:5230H         LINE#         1328
  C:5230H         LINE#         1330
  C:523FH         LINE#         1331
  C:525DH         LINE#         1332
BL51 BANKED LINKER/LOCATER V6.22.2.0                                                  10/02/2020  15:54:40  PAGE 78


  C:525DH         LINE#         1338
  C:5270H         LINE#         1339
  C:5270H         LINE#         1340
  C:52B3H         LINE#         1341
  C:52B3H         LINE#         1342
  C:52B3H         LINE#         1343
  C:52B6H         LINE#         1345
  C:52B9H         LINE#         1347
  C:52B9H         LINE#         1348
  C:52BCH         LINE#         1349
  C:52BFH         LINE#         1351
  C:52BFH         LINE#         1353
  C:52C2H         LINE#         1355
  C:52C5H         LINE#         1357
  C:52C5H         LINE#         1358
  C:52C8H         LINE#         1360
  C:52CBH         LINE#         1362
  C:52CBH         LINE#         1363
  C:52CEH         LINE#         1364
  C:52D1H         LINE#         1365
  C:52D1H         LINE#         1366
  C:52D4H         LINE#         1367
  C:52D7H         LINE#         1368
  C:52D7H         LINE#         1369
  C:52DAH         LINE#         1371
  C:52DDH         LINE#         1372
  C:52DDH         LINE#         1373
  C:52E0H         LINE#         1374
  C:52E3H         LINE#         1376
  C:52E3H         LINE#         1377
  C:52E6H         LINE#         1378
  C:52E9H         LINE#         1379
  C:52E9H         LINE#         1380
  C:52ECH         LINE#         1381
  C:52EFH         LINE#         1382
  C:52EFH         LINE#         1383
  C:52F2H         LINE#         1384
  C:52F5H         LINE#         1385
  C:52F5H         LINE#         1386
  C:52F8H         LINE#         1387
  C:52FBH         LINE#         1389
  C:52FBH         LINE#         1391
  C:52FEH         LINE#         1392
  C:5301H         LINE#         1393
  C:5301H         LINE#         1395
  C:5304H         LINE#         1396
  C:5307H         LINE#         1397
  C:5307H         LINE#         1400
  C:5307H         LINE#         1401
  C:5307H         LINE#         1402
  C:530AH         LINE#         1403
  C:530DH         LINE#         1406
  C:530DH         LINE#         1407
  C:532BH         LINE#         1408
  C:532EH         LINE#         1409
  C:532EH         LINE#         1410
  C:532EH         LINE#         1411
BL51 BANKED LINKER/LOCATER V6.22.2.0                                                  10/02/2020  15:54:40  PAGE 79


  C:532EH         LINE#         1412
  -------         ENDPROC       MENU
  -------         ENDMOD        PROG

  -------         MODULE        PTO_PARALELO
  C:0000H         SYMBOL        _ICE_DUMMY_
  D:0080H         PUBLIC        P0
  D:00A0H         PUBLIC        P2
  D:00B0H         PUBLIC        P3
  B:0080H.2       PUBLIC        led_err_imp
  C:761AH         PUBLIC        load_and_send_id_cod
  C:933DH         PUBLIC        _recibe_port
  B:00B0H.2       PUBLIC        ready
  B:0080H.6       PUBLIC        rx_in_data
  C:ADA5H         PUBLIC        Pulso_Bus
  C:997FH         PUBLIC        _send_portERR
  B:00B0H.3       PUBLIC        busy
  C:AB01H         PUBLIC        load_and_send_info_reloj
  C:8D54H         PUBLIC        _send_port
  B:00B0H.4       PUBLIC        port_clk
  C:4B91H         PUBLIC        _Trama_pto_Paralelo_new
  C:793CH         PUBLIC        _Trama_pto_Paralelo_P
  C:AE16H         PUBLIC        cond_ini_pto
  -------         PROC          _RECIBE_PORT
  X:0001H         SYMBOL        buffer_port
  -------         DO            
  D:0006H         SYMBOL        count
  X:0004H         SYMBOL        time_out
  X:0005H         SYMBOL        num_data
  X:0006H         SYMBOL        T_ANCHO
  X:0008H         SYMBOL        data_temp
  -------         ENDDO         
  C:933DH         LINE#         46
  C:9348H         LINE#         47
  C:9348H         LINE#         51
  C:9351H         LINE#         52
  C:9354H         LINE#         55
  C:9357H         LINE#         56
  C:9357H         LINE#         58
  C:935AH         LINE#         59
  C:935FH         LINE#         60
  C:9361H         LINE#         61
  C:9365H         LINE#         62
  C:9367H         LINE#         65
  C:936CH         LINE#         66
  C:9375H         LINE#         67
  C:9375H         LINE#         68
  C:9378H         LINE#         69
  C:9378H         LINE#         71
  C:937DH         LINE#         72
  C:9381H         LINE#         73
  C:9381H         LINE#         74
  C:9383H         LINE#         75
  C:9385H         LINE#         76
  C:9385H         LINE#         77
  C:9385H         LINE#         79
  C:9385H         LINE#         80
BL51 BANKED LINKER/LOCATER V6.22.2.0                                                  10/02/2020  15:54:40  PAGE 80


  C:9392H         LINE#         81
  C:9392H         LINE#         83
  C:9395H         LINE#         84
  C:9395H         LINE#         86
  C:939BH         LINE#         88
  C:939DH         LINE#         89
  C:93B1H         LINE#         90
  C:93BBH         LINE#         91
  C:93C1H         LINE#         92
  C:93C7H         LINE#         93
  C:93C9H         LINE#         94
  C:93C9H         LINE#         95
  C:93C9H         LINE#         96
  C:93C9H         LINE#         97
  C:93C9H         LINE#         99
  C:93CCH         LINE#         100
  C:93CEH         LINE#         101
  C:93D0H         LINE#         102
  C:93D0H         LINE#         103
  C:93D3H         LINE#         105
  C:93D8H         LINE#         106
  -------         ENDPROC       _RECIBE_PORT
  -------         PROC          _SEND_PORT
  X:003BH         SYMBOL        buffer_port
  X:003EH         SYMBOL        length_char
  -------         DO            
  X:003FH         SYMBOL        cont
  X:0043H         SYMBOL        timeOut
  X:0044H         SYMBOL        length
  -------         ENDDO         
  C:8D54H         LINE#         113
  C:8D62H         LINE#         114
  C:8D62H         LINE#         119
  C:8D66H         LINE#         121
  C:8D68H         LINE#         122
  C:8D6AH         LINE#         123
  C:8D6CH         LINE#         124
  C:8D71H         LINE#         125
  C:8D73H         LINE#         126
  C:8D7DH         LINE#         128
  C:8D86H         LINE#         129
  C:8D86H         LINE#         130
  C:8D88H         LINE#         131
  C:8D8AH         LINE#         132
  C:8DAEH         LINE#         133
  C:8DC2H         LINE#         134
  C:8DC2H         LINE#         135
  C:8DC5H         LINE#         136
  C:8DC7H         LINE#         137
  C:8DC7H         LINE#         138
  C:8DC9H         LINE#         139
  C:8DD2H         LINE#         140
  C:8DD2H         LINE#         144
  C:8DD2H         LINE#         146
  C:8DE2H         LINE#         147
  C:8DE5H         LINE#         148
  C:8DEFH         LINE#         150
BL51 BANKED LINKER/LOCATER V6.22.2.0                                                  10/02/2020  15:54:40  PAGE 81


  C:8DF5H         LINE#         151
  C:8DF8H         LINE#         153
  C:8DF8H         LINE#         154
  C:8DFBH         LINE#         155
  C:8DFDH         LINE#         156
  C:8DFFH         LINE#         157
  C:8E01H         LINE#         158
  -------         ENDPROC       _SEND_PORT
  -------         PROC          _TRAMA_PTO_PARALELO_P
  D:0001H         SYMBOL        buffer_S1_B0
  X:0014H         SYMBOL        buffer_S1_B2
  X:0017H         SYMBOL        cmd
  -------         DO            
  X:025CH         SYMBOL        Buffer_port
  X:0018H         SYMBOL        j
  -------         ENDDO         
  C:793CH         LINE#         226
  C:793CH         LINE#         227
  C:793CH         LINE#         230
  C:7942H         LINE#         231
  C:7947H         LINE#         232
  C:794FH         LINE#         233
  C:7953H         LINE#         235
  C:7953H         LINE#         236
  C:796AH         LINE#         237
  C:7971H         LINE#         238
  C:7976H         LINE#         239
  C:7980H         LINE#         240
  C:7993H         LINE#         242
  C:7993H         LINE#         243
  C:79A7H         LINE#         244
  C:79C3H         LINE#         245
  C:79C3H         LINE#         258
  C:79D7H         LINE#         261
  C:79EDH         LINE#         262
  C:79EDH         LINE#         263
  C:79FEH         LINE#         264
  C:7A00H         LINE#         266
  C:7A00H         LINE#         267
  C:7A11H         LINE#         268
  C:7A11H         LINE#         271
  C:7A13H         LINE#         273
  C:7A21H         LINE#         274
  C:7A24H         LINE#         276
  C:7A38H         LINE#         277
  -------         ENDPROC       _TRAMA_PTO_PARALELO_P
  -------         PROC          _TRAMA_PTO_PARALELO_NEW
  D:0001H         SYMBOL        buffer_S1_B0
  X:0018H         SYMBOL        buffer_S1_B2
  X:001BH         SYMBOL        cmd
  -------         DO            
  X:001CH         SYMBOL        Buffer_port
  X:003AH         SYMBOL        j
  -------         ENDDO         
  C:4B91H         LINE#         285
  C:4B91H         LINE#         286
  C:4B91H         LINE#         288
BL51 BANKED LINKER/LOCATER V6.22.2.0                                                  10/02/2020  15:54:40  PAGE 82


  C:4B97H         LINE#         290
  C:4B9BH         LINE#         291
  C:4BA3H         LINE#         294
  C:4BA3H         LINE#         295
  C:4BBAH         LINE#         296
  C:4BC1H         LINE#         297
  C:4BC6H         LINE#         299
  C:4BDCH         LINE#         301
  C:4BDCH         LINE#         302
  C:4BEDH         LINE#         303
  C:4C09H         LINE#         304
  C:4C0BH         LINE#         306
  C:4C0BH         LINE#         307
  C:4C1CH         LINE#         308
  C:4C30H         LINE#         309
  C:4C30H         LINE#         311
  C:4C4AH         LINE#         312
  C:4C4AH         LINE#         313
  C:4C4DH         LINE#         314
  C:4C4FH         LINE#         316
  C:4C4FH         LINE#         317
  C:4C52H         LINE#         318
  C:4C52H         LINE#         320
  C:4C66H         LINE#         321
  C:4C7FH         LINE#         322
  C:4C9BH         LINE#         323
  C:4CB7H         LINE#         324
  C:4CD3H         LINE#         325
  C:4CEFH         LINE#         326
  C:4D03H         LINE#         328
  C:4D13H         LINE#         330
  C:4D37H         LINE#         331
  C:4D5BH         LINE#         332
  C:4D7FH         LINE#         333
  C:4DA3H         LINE#         334
  C:4DC7H         LINE#         338
  C:4DDBH         LINE#         341
  C:4DF1H         LINE#         342
  C:4DF1H         LINE#         343
  C:4E02H         LINE#         344
  C:4E04H         LINE#         346
  C:4E04H         LINE#         347
  C:4E15H         LINE#         348
  C:4E15H         LINE#         349
  C:4E29H         LINE#         352
  C:4E2BH         LINE#         353
  C:4E2EH         LINE#         354
  C:4E3CH         LINE#         356
  C:4E3FH         LINE#         357
  C:4E48H         LINE#         358
  C:4E5BH         LINE#         359
  -------         ENDPROC       _TRAMA_PTO_PARALELO_NEW
  -------         PROC          PULSO_BUS
  C:ADA5H         LINE#         367
  C:ADA5H         LINE#         368
  C:ADA5H         LINE#         369
  C:ADA7H         LINE#         370
BL51 BANKED LINKER/LOCATER V6.22.2.0                                                  10/02/2020  15:54:40  PAGE 83


  C:ADAEH         LINE#         371
  C:ADB0H         LINE#         372
  -------         ENDPROC       PULSO_BUS
  -------         PROC          _SEND_PORTERR
  X:002EH         SYMBOL        cod_err
  -------         DO            
  X:002FH         SYMBOL        timeOut
  X:0030H         SYMBOL        cont
  -------         ENDDO         
  C:997FH         LINE#         377
  C:9985H         LINE#         378
  C:9985H         LINE#         382
  C:9987H         LINE#         383
  C:9989H         LINE#         384
  C:998CH         LINE#         385
  C:9994H         LINE#         387
  C:9996H         LINE#         388
  C:9998H         LINE#         389
  C:99A1H         LINE#         390
  C:99A1H         LINE#         391
  C:99C3H         LINE#         392
  C:99D7H         LINE#         393
  C:99D7H         LINE#         394
  C:99DCH         LINE#         395
  C:99DCH         LINE#         396
  C:99DEH         LINE#         397
  C:99E7H         LINE#         398
  C:99E7H         LINE#         399
  C:99EDH         LINE#         400
  C:99F0H         LINE#         401
  C:99F0H         LINE#         402
  C:99F2H         LINE#         403
  C:99F4H         LINE#         404
  C:99F6H         LINE#         406
  C:99F9H         LINE#         408
  C:9A00H         LINE#         409
  -------         ENDPROC       _SEND_PORTERR
  -------         PROC          COND_INI_PTO
  C:AE16H         LINE#         415
  C:AE16H         LINE#         416
  C:AE16H         LINE#         418
  C:AE18H         LINE#         419
  C:AE1AH         LINE#         420
  C:AE1CH         LINE#         421
  C:AE1FH         LINE#         422
  -------         ENDPROC       COND_INI_PTO
  -------         PROC          LOAD_AND_SEND_INFO_RELOJ
  -------         DO            
  X:0002H         SYMBOL        buffer_info
  -------         ENDDO         
  C:AB01H         LINE#         427
  C:AB01H         LINE#         428
  C:AB01H         LINE#         431
  C:AB07H         LINE#         433
  C:AB0BH         LINE#         435
  C:AB14H         LINE#         436
  C:AB1EH         LINE#         437
BL51 BANKED LINKER/LOCATER V6.22.2.0                                                  10/02/2020  15:54:40  PAGE 84


  C:AB22H         LINE#         441
  -------         ENDPROC       LOAD_AND_SEND_INFO_RELOJ
  -------         PROC          LOAD_AND_SEND_ID_COD
  -------         DO            
  X:0002H         SYMBOL        buffer_info
  X:000DH         SYMBOL        buf
  X:0011H         SYMBOL        i
  X:0012H         SYMBOL        k
  -------         ENDDO         
  C:761AH         LINE#         448
  C:761AH         LINE#         449
  C:761AH         LINE#         453
  C:761FH         LINE#         455
  C:7625H         LINE#         456
  C:7629H         LINE#         457
  C:764FH         LINE#         458
  C:7655H         LINE#         459
  C:7655H         LINE#         460
  C:7666H         LINE#         461
  C:7666H         LINE#         462
  C:7675H         LINE#         463
  C:767BH         LINE#         464
  C:767DH         LINE#         465
  C:7695H         LINE#         467
  C:769DH         LINE#         470
  C:76C3H         LINE#         472
  C:76C8H         LINE#         473
  C:76C8H         LINE#         474
  C:76D9H         LINE#         475
  C:76D9H         LINE#         476
  C:76E8H         LINE#         477
  C:76EEH         LINE#         478
  C:7708H         LINE#         479
  C:7710H         LINE#         482
  C:7721H         LINE#         483
  -------         ENDPROC       LOAD_AND_SEND_ID_COD
  -------         ENDMOD        PTO_PARALELO

  -------         MODULE        TIBBO
  C:0000H         SYMBOL        _ICE_DUMMY_
  C:A6D9H         PUBLIC        _Debug_HexDec
  C:A769H         PUBLIC        _Debug_txt_Tibbo
  D:0080H         PUBLIC        P0
  D:0090H         PUBLIC        P1
  C:915AH         PUBLIC        _Debug_Fecha_actual
  B:0090H.0       PUBLIC        txd2
  B:00A8H.7       PUBLIC        EA
  C:A52EH         PUBLIC        _tx_aux
  B:0080H.0       PUBLIC        rx_ip
  C:AE29H         PUBLIC        Debug_Dividir_texto
  C:AE73H         PUBLIC        cond_ini_tibbo
  C:AD44H         PUBLIC        time_mbit
  C:9A07H         PUBLIC        rx_Data
  C:ACBEH         PUBLIC        time_bit
  C:A5BEH         PUBLIC        _Debug_pto_paralelo
  C:A08EH         PUBLIC        _DebugBufferMF
  C:A606H         PUBLIC        _Debug_chr_Tibbo
BL51 BANKED LINKER/LOCATER V6.22.2.0                                                  10/02/2020  15:54:40  PAGE 85


  C:ACB8H         SYMBOL        L?0066
  -------         PROC          L?0065
  -------         ENDPROC       L?0065
  C:ACB8H         SYMBOL        L?0066
  -------         PROC          TIME_BIT
  -------         DO            
  D:0007H         SYMBOL        j
  -------         ENDDO         
  C:ACBEH         LINE#         18
  C:ACBEH         LINE#         19
  C:ACBEH         LINE#         22
  C:ACCAH         LINE#         23
  C:ACCAH         LINE#         24
  C:ACCBH         LINE#         25
  C:ACCCH         LINE#         26
  C:ACCDH         LINE#         27
  C:ACCEH         LINE#         28
  C:ACCFH         LINE#         29
  C:ACD0H         LINE#         30
  C:ACD1H         LINE#         31
  C:ACD2H         LINE#         32
  C:ACD3H         LINE#         37
  C:ACD6H         LINE#         38
  -------         ENDPROC       TIME_BIT
  -------         PROC          TIME_MBIT
  -------         DO            
  D:0007H         SYMBOL        j
  -------         ENDDO         
  C:AD44H         LINE#         41
  C:AD44H         LINE#         42
  C:AD44H         LINE#         44
  C:AD50H         LINE#         45
  C:AD50H         LINE#         46
  C:AD51H         LINE#         47
  C:AD52H         LINE#         48
  C:AD53H         LINE#         49
  C:AD54H         LINE#         50
  C:AD55H         LINE#         51
  C:AD56H         LINE#         52
  C:AD57H         LINE#         53
  C:AD5AH         LINE#         55
  -------         ENDPROC       TIME_MBIT
  -------         PROC          L?0067
  -------         ENDPROC       L?0067
  -------         PROC          _TX_AUX
  D:0006H         SYMBOL        caracter
  -------         DO            
  D:0004H         SYMBOL        j
  D:0005H         SYMBOL        temporal
  D:0006H         SYMBOL        bitTX
  -------         ENDDO         
  C:A52EH         LINE#         60
  C:A530H         LINE#         61
  C:A530H         LINE#         64
  C:A532H         LINE#         65
  C:A534H         LINE#         66
  C:A537H         LINE#         67
BL51 BANKED LINKER/LOCATER V6.22.2.0                                                  10/02/2020  15:54:40  PAGE 86


  C:A538H         LINE#         68
  C:A539H         LINE#         69
  C:A53BH         LINE#         70
  C:A53FH         LINE#         71
  C:A541H         LINE#         72
  C:A541H         LINE#         73
  C:A543H         LINE#         74
  C:A545H         LINE#         76
  C:A545H         LINE#         77
  C:A547H         LINE#         78
  C:A547H         LINE#         79
  C:A54AH         LINE#         80
  C:A556H         LINE#         81
  C:A556H         LINE#         82
  C:A55AH         LINE#         83
  C:A55DH         LINE#         84
  C:A55FH         LINE#         85
  C:A55FH         LINE#         86
  C:A561H         LINE#         87
  C:A563H         LINE#         89
  C:A563H         LINE#         90
  C:A565H         LINE#         91
  C:A565H         LINE#         92
  C:A568H         LINE#         93
  C:A56BH         LINE#         94
  C:A56DH         LINE#         95
  C:A570H         LINE#         96
  C:A573H         LINE#         98
  C:A575H         LINE#         99
  -------         ENDPROC       _TX_AUX
  -------         PROC          _DEBUG_HEXDEC
  D:0007H         SYMBOL        xfc
  -------         DO            
  X:0015H         SYMBOL        valor
  D:0006H         SYMBOL        centena
  D:0003H         SYMBOL        decena
  D:0002H         SYMBOL        unidad
  -------         ENDDO         
  C:A6D9H         LINE#         102
  C:A6D9H         LINE#         103
  C:A6D9H         LINE#         106
  C:A6E0H         LINE#         108
  C:A6E1H         LINE#         109
  C:A6E2H         LINE#         110
  C:A6E3H         LINE#         112
  C:A6EBH         LINE#         113
  C:A6EBH         LINE#         114
  C:A6F5H         LINE#         115
  C:A6F5H         LINE#         116
  C:A6F9H         LINE#         117
  C:A6FAH         LINE#         118
  C:A6FCH         LINE#         119
  C:A706H         LINE#         120
  C:A706H         LINE#         121
  C:A70AH         LINE#         122
  C:A70BH         LINE#         123
  C:A70DH         LINE#         124
BL51 BANKED LINKER/LOCATER V6.22.2.0                                                  10/02/2020  15:54:40  PAGE 87


  C:A70FH         LINE#         125
  C:A713H         LINE#         126
  C:A717H         LINE#         127
  C:A71EH         LINE#         129
  C:A71EH         LINE#         130
  -------         ENDPROC       _DEBUG_HEXDEC
  -------         PROC          _DEBUG_CHR_TIBBO
  D:0003H         SYMBOL        Dat
  -------         DO            
  D:0007H         SYMBOL        temp
  -------         ENDDO         
  C:A606H         LINE#         135
  C:A608H         LINE#         136
  C:A608H         LINE#         139
  C:A610H         LINE#         140
  C:A610H         LINE#         141
  C:A617H         LINE#         142
  C:A62AH         LINE#         144
  C:A62DH         LINE#         146
  C:A631H         LINE#         147
  C:A644H         LINE#         148
  C:A647H         LINE#         149
  C:A64CH         LINE#         151
  C:A64CH         LINE#         152
  -------         ENDPROC       _DEBUG_CHR_TIBBO
  -------         PROC          _DEBUGBUFFERMF
  X:003BH         SYMBOL        str
  X:003EH         SYMBOL        num_char
  X:003FH         SYMBOL        io
  -------         DO            
  X:0040H         SYMBOL        j
  -------         ENDDO         
  C:A08EH         LINE#         159
  C:A09CH         LINE#         160
  C:A09CH         LINE#         164
  C:A0A4H         LINE#         165
  C:A0A4H         LINE#         167
  C:A0B3H         LINE#         168
  C:A0B3H         LINE#         169
  C:A0B7H         LINE#         170
  C:A0C0H         LINE#         171
  C:A0D2H         LINE#         172
  C:A0D2H         LINE#         173
  C:A0E4H         LINE#         174
  C:A0EEH         LINE#         175
  C:A0F6H         LINE#         177
  C:A0FBH         LINE#         178
  C:A100H         LINE#         180
  C:A100H         LINE#         182
  -------         ENDPROC       _DEBUGBUFFERMF
  -------         PROC          L?0068
  -------         ENDPROC       L?0068
  -------         PROC          _DEBUG_TXT_TIBBO
  X:0041H         SYMBOL        str
  -------         DO            
  X:0044H         SYMBOL        i
  -------         ENDDO         
BL51 BANKED LINKER/LOCATER V6.22.2.0                                                  10/02/2020  15:54:40  PAGE 88


  C:A769H         LINE#         187
  C:A774H         LINE#         188
  C:A774H         LINE#         190
  C:A777H         LINE#         193
  C:A77FH         LINE#         194
  C:A77FH         LINE#         195
  C:A79BH         LINE#         196
  C:A79BH         LINE#         197
  C:A79EH         LINE#         198
  C:A7A6H         LINE#         200
  C:A7A6H         LINE#         201
  -------         ENDPROC       _DEBUG_TXT_TIBBO
  -------         PROC          DEBUG_DIVIDIR_TEXTO
  C:AE29H         LINE#         203
  C:AE29H         LINE#         204
  C:AE29H         LINE#         205
  -------         ENDPROC       DEBUG_DIVIDIR_TEXTO
  -------         PROC          RX_DATA
  -------         DO            
  D:0006H         SYMBOL        temporal
  -------         ENDDO         
  C:9A07H         LINE#         211
  C:9A07H         LINE#         212
  C:9A07H         LINE#         215
  C:9A09H         LINE#         216
  C:9A0CH         LINE#         218
  C:9A0FH         LINE#         220
  C:9A1BH         LINE#         221
  C:9A1BH         LINE#         223
  C:9A1EH         LINE#         225
  C:9A2AH         LINE#         226
  C:9A2AH         LINE#         228
  C:9A2DH         LINE#         230
  C:9A39H         LINE#         231
  C:9A39H         LINE#         233
  C:9A3CH         LINE#         235
  C:9A48H         LINE#         236
  C:9A48H         LINE#         238
  C:9A4BH         LINE#         240
  C:9A57H         LINE#         241
  C:9A57H         LINE#         243
  C:9A5AH         LINE#         245
  C:9A66H         LINE#         246
  C:9A66H         LINE#         248
  C:9A69H         LINE#         250
  C:9A75H         LINE#         251
  C:9A75H         LINE#         253
  C:9A78H         LINE#         254
  C:9A86H         LINE#         256
  C:9A89H         LINE#         257
  C:9A8CH         LINE#         258
  C:9A8CH         LINE#         259
  C:9A8CH         LINE#         261
  C:9A8EH         LINE#         263
  -------         ENDPROC       RX_DATA
  -------         PROC          _DEBUG_FECHA_ACTUAL
  X:001DH         SYMBOL        buffer
BL51 BANKED LINKER/LOCATER V6.22.2.0                                                  10/02/2020  15:54:40  PAGE 89


  C:915AH         LINE#         264
  C:9165H         LINE#         265
  C:9165H         LINE#         266
  C:916EH         LINE#         267
  C:9183H         LINE#         268
  C:9188H         LINE#         269
  C:91A0H         LINE#         270
  C:91A5H         LINE#         271
  C:91BDH         LINE#         272
  C:91C2H         LINE#         273
  C:91DAH         LINE#         274
  C:91DFH         LINE#         275
  C:91F7H         LINE#         276
  -------         ENDPROC       _DEBUG_FECHA_ACTUAL
  -------         PROC          COND_INI_TIBBO
  C:AE73H         LINE#         281
  C:AE73H         LINE#         282
  C:AE73H         LINE#         284
  C:AE75H         LINE#         285
  C:AE77H         LINE#         286
  -------         ENDPROC       COND_INI_TIBBO
  -------         PROC          _DEBUG_PTO_PARALELO
  X:0001H         SYMBOL        buffer
  X:0004H         SYMBOL        Length_trama
  C:A5BEH         LINE#         287
  C:A5CCH         LINE#         288
  C:A5CCH         LINE#         290
  C:A5D5H         LINE#         291
  C:A5ECH         LINE#         292
  C:A5EFH         LINE#         293
  C:A5F8H         LINE#         294
  C:A600H         LINE#         295
  C:A603H         LINE#         296
  -------         ENDPROC       _DEBUG_PTO_PARALELO
  -------         ENDMOD        TIBBO

  -------         MODULE        UART
  C:0000H         SYMBOL        _ICE_DUMMY_
  C:ABCEH         PUBLIC        com_getchar
  C:ADB7H         PUBLIC        com_rbuflen
  C:ADC9H         PUBLIC        com_tbuflen
  B:00A8H.4       PUBLIC        ES
  B:0098H.0       PUBLIC        RI
  C:AA21H         PUBLIC        _com_putchar
  B:0098H.1       PUBLIC        TI
  B:0021H.4       PUBLIC        aSk
  B:00B8H.4       PUBLIC        PS
  D:000DH         SYMBOL        r_in
  D:000EH         SYMBOL        r_out
  D:000FH         SYMBOL        t_in
  D:0010H         SYMBOL        t_out
  D:0099H         PUBLIC        SBUF
  D:0087H         PUBLIC        PCON
  D:0089H         PUBLIC        TMOD
  B:0021H.5       SYMBOL        ti_restart
  B:00A8H.3       PUBLIC        ET1
  D:008DH         PUBLIC        TH1
BL51 BANKED LINKER/LOCATER V6.22.2.0                                                  10/02/2020  15:54:40  PAGE 90


  B:0098H.7       PUBLIC        SM0
  B:0098H.6       PUBLIC        SM1
  D:008BH         PUBLIC        TL1
  B:0098H.5       PUBLIC        SM2
  B:0088H.6       PUBLIC        TR1
  C:AB2DH         PUBLIC        com_initialize
  B:0098H.4       PUBLIC        REN
  C:AB7FH         PUBLIC        com_baudrate
  C:5CE8H         SYMBOL        com_isr
  X:0287H         PUBLIC        error_rx
  -------         PROC          COM_ISR
  -------         DO            
  X:0285H         SYMBOL        cDatoRx
  D:0006H         SYMBOL        k
  D:0007H         SYMBOL        bcc
  X:0286H         SYMBOL        num_datos
  -------         ENDDO         
  C:5CE8H         LINE#         95
  C:5CFDH         LINE#         108
  C:5D03H         LINE#         109
  C:5D03H         LINE#         111
  C:5D05H         LINE#         112
  C:5D0BH         LINE#         113
  C:5D1BH         LINE#         114
  C:5D1BH         LINE#         115
  C:5D26H         LINE#         116
  C:5D28H         LINE#         118
  C:5D28H         LINE#         119
  C:5D38H         LINE#         120
  C:5D38H         LINE#         121
  C:5D3DH         LINE#         122
  C:5D3DH         LINE#         123
  C:5D54H         LINE#         124
  C:5D54H         LINE#         128
  C:5D54H         LINE#         131
  C:5D63H         LINE#         132
  C:5D63H         LINE#         133
  C:5D65H         LINE#         134
  C:5D6DH         LINE#         135
  C:5D72H         LINE#         137
  C:5D72H         LINE#         138
  C:5D75H         LINE#         142
  C:5D75H         LINE#         143
  C:5D75H         LINE#         144
  C:5D8DH         LINE#         145
  C:5D9CH         LINE#         146
  C:5D9CH         LINE#         147
  C:5D9CH         LINE#         148
  C:5D9EH         LINE#         150
  C:5D9EH         LINE#         151
  C:5DA0H         LINE#         152
  C:5DA0H         LINE#         153
  C:5DA0H         LINE#         154
  C:5DA3H         LINE#         158
  C:5DA3H         LINE#         160
  C:5DACH         LINE#         161
  C:5DACH         LINE#         163
BL51 BANKED LINKER/LOCATER V6.22.2.0                                                  10/02/2020  15:54:40  PAGE 91


  C:5DB2H         LINE#         164
  C:5DC5H         LINE#         165
  C:5DC5H         LINE#         166
  C:5DC8H         LINE#         168
  C:5DC8H         LINE#         169
  C:5DDDH         LINE#         170
  C:5DE3H         LINE#         171
  C:5DE3H         LINE#         173
  C:5DE6H         LINE#         177
  C:5DE6H         LINE#         179
  C:5DFEH         LINE#         180
  C:5E04H         LINE#         181
  C:5E07H         LINE#         182
  C:5E07H         LINE#         184
  C:5E1FH         LINE#         185
  C:5E1FH         LINE#         186
  C:5E20H         LINE#         187
  C:5E2DH         LINE#         188
  C:5E2DH         LINE#         189
  C:5E3AH         LINE#         190
  C:5E3DH         LINE#         191
  C:5E4BH         LINE#         192
  C:5E4BH         LINE#         193
  C:5E4DH         LINE#         194
  C:5E52H         LINE#         195
  C:5E54H         LINE#         196
  C:5E58H         LINE#         198
  C:5E5AH         LINE#         200
  C:5E5AH         LINE#         201
  C:5E5AH         LINE#         202
  C:5E5AH         LINE#         203
  C:5E5CH         LINE#         205
  C:5E5CH         LINE#         206
  C:5E5CH         LINE#         207
  C:5E5CH         LINE#         209
  C:5E5EH         LINE#         211
  C:5E5EH         LINE#         212
  C:5E64H         LINE#         213
  C:5E64H         LINE#         215
  C:5E66H         LINE#         220
  C:5E66H         LINE#         221
  C:5E6BH         LINE#         222
  C:5E6BH         LINE#         223
  C:5E6BH         LINE#         224
  C:5E6BH         LINE#         229
  C:5E6EH         LINE#         230
  C:5E6EH         LINE#         231
  C:5E70H         LINE#         233
  C:5E76H         LINE#         234
  C:5E76H         LINE#         235
  C:5E80H         LINE#         236
  C:5E82H         LINE#         237
  C:5E84H         LINE#         238
  C:5E86H         LINE#         240
  C:5E86H         LINE#         241
  C:5E88H         LINE#         242
  C:5E88H         LINE#         243
BL51 BANKED LINKER/LOCATER V6.22.2.0                                                  10/02/2020  15:54:40  PAGE 92


  C:5E88H         LINE#         245
  -------         ENDPROC       COM_ISR
  -------         PROC          COM_INITIALIZE
  C:AB2DH         LINE#         261
  C:AB34H         LINE#         262
  C:AB34H         LINE#         266
  C:AB37H         LINE#         271
  C:AB3AH         LINE#         272
  C:AB3CH         LINE#         274
  C:AB3EH         LINE#         275
  C:AB40H         LINE#         280
  C:AB44H         LINE#         281
  C:AB46H         LINE#         282
  C:AB48H         LINE#         284
  C:AB4AH         LINE#         285
  C:AB4CH         LINE#         286
  C:AB4EH         LINE#         288
  C:AB50H         LINE#         289
  C:AB52H         LINE#         290
  -------         ENDPROC       COM_INITIALIZE
  -------         PROC          COM_BAUDRATE
  C:AB7FH         LINE#         296
  C:AB86H         LINE#         298
  C:AB86H         LINE#         302
  C:AB88H         LINE#         303
  C:AB8BH         LINE#         304
  C:AB8DH         LINE#         309
  C:AB8FH         LINE#         310
  C:AB91H         LINE#         312
  C:AB94H         LINE#         314
  C:AB97H         LINE#         315
  C:AB9AH         LINE#         317
  C:AB9DH         LINE#         318
  C:ABA0H         LINE#         319
  C:ABA2H         LINE#         320
  -------         ENDPROC       COM_BAUDRATE
  -------         PROC          _COM_PUTCHAR
  X:00E3H         SYMBOL        c
  C:AA21H         LINE#         326
  C:AA2DH         LINE#         328
  C:AA2DH         LINE#         332
  C:AA3AH         LINE#         333
  C:AA3EH         LINE#         339
  C:AA4CH         LINE#         340
  C:AA4EH         LINE#         342
  C:AA51H         LINE#         343
  C:AA51H         LINE#         344
  C:AA53H         LINE#         345
  C:AA55H         LINE#         346
  C:AA55H         LINE#         348
  C:AA57H         LINE#         349
  -------         ENDPROC       _COM_PUTCHAR
  -------         PROC          COM_GETCHAR
  C:ABCEH         LINE#         355
  C:ABD5H         LINE#         356
  C:ABD5H         LINE#         357
  C:ABDBH         LINE#         358
BL51 BANKED LINKER/LOCATER V6.22.2.0                                                  10/02/2020  15:54:40  PAGE 93


  C:ABE1H         LINE#         360
  C:ABEFH         LINE#         361
  -------         ENDPROC       COM_GETCHAR
  -------         PROC          COM_RBUFLEN
  C:ADB7H         LINE#         367
  C:ADBEH         LINE#         368
  C:ADBEH         LINE#         369
  C:ADC4H         LINE#         370
  -------         ENDPROC       COM_RBUFLEN
  -------         PROC          COM_TBUFLEN
  C:ADC9H         LINE#         376
  C:ADD0H         LINE#         377
  C:ADD0H         LINE#         378
  C:ADD6H         LINE#         379
  -------         ENDPROC       COM_TBUFLEN
  -------         ENDMOD        UART

  -------         MODULE        VERIFICADOR
  C:0000H         SYMBOL        _ICE_DUMMY_
  D:0080H         PUBLIC        P0
  D:0090H         PUBLIC        P1
  D:00B0H         PUBLIC        P3
  B:00B0H.2       PUBLIC        ready
  C:6B8DH         PUBLIC        Secuencia_inicio_expedidor
  C:859DH         PUBLIC        _Analiza_Uid_Card
  B:0080H.3       PUBLIC        Atascado
  C:7839H         PUBLIC        _Bloque_Horario
  B:0090H.7       PUBLIC        lock
  C:A1DDH         PUBLIC        _Valida_Mismo_Dia
  C:772AH         PUBLIC        _Responde_Lectura_Tarjeta_Sector1_Bloque0
  C:8E08H         PUBLIC        error_rx_pto
  C:6041H         PUBLIC        _Responde_Lectura_Tarjeta_Sector1_Bloque1
  C:592DH         PUBLIC        _Responde_Lectura_Tarjeta_Sector1_Bloque2
  C:A170H         PUBLIC        Validar_Pago
  C:ABF4H         PUBLIC        Trama_Validacion_P_N
  C:7A3BH         PUBLIC        _Armar_Trama_Pto_Paralelo_Expedidor_Mensual
  C:1192H         PUBLIC        SecuenciaExpedidor
  B:00B0H.3       PUBLIC        busy
  C:8121H         PUBLIC        _Horarios
  C:8EB7H         PUBLIC        _Hora_Maxima
  X:01A8H         PUBLIC        buffer_S_B
  X:01B9H         SYMBOL        Estado
  C:98F5H         PUBLIC        _En_Horario
  -------         PROC          TRAMA_VALIDACION_P_N
  -------         DO            
  D:0007H         SYMBOL        Trama_Validacion_P_N
  -------         ENDDO         
  C:ABF4H         LINE#         401
  C:ABF4H         LINE#         402
  C:ABF4H         LINE#         403
  C:ABF6H         LINE#         405
  C:AC01H         LINE#         406
  C:AC01H         LINE#         407
  C:AC04H         LINE#         408
  C:AC04H         LINE#         409
  C:AC06H         LINE#         412
  C:AC0EH         LINE#         413
BL51 BANKED LINKER/LOCATER V6.22.2.0                                                  10/02/2020  15:54:40  PAGE 94


  C:AC0EH         LINE#         415
  C:AC10H         LINE#         417
  C:AC11H         LINE#         418
  C:AC12H         LINE#         419
  C:AC12H         LINE#         421
  C:AC12H         LINE#         423
  C:AC12H         LINE#         425
  C:AC12H         LINE#         427
  C:AC14H         LINE#         429
  C:AC14H         LINE#         430
  C:AC15H         LINE#         432
  C:AC15H         LINE#         434
  C:AC17H         LINE#         436
  C:AC17H         LINE#         438
  C:AC17H         LINE#         440
  C:AC17H         LINE#         441
  -------         ENDPROC       TRAMA_VALIDACION_P_N
  -------         PROC          ERROR_RX_PTO
  -------         DO            
  X:0154H         SYMBOL        cont_error_rx
  X:0011H         SYMBOL        error_rx_pto
  -------         ENDDO         
  C:8E08H         LINE#         458
  C:8E08H         LINE#         459
  C:8E08H         LINE#         461
  C:8E0DH         LINE#         465
  C:8E16H         LINE#         466
  C:8E1EH         LINE#         467
  C:8E27H         LINE#         468
  C:8E2FH         LINE#         469
  C:8E38H         LINE#         470
  C:8E3BH         LINE#         472
  C:8E3BH         LINE#         473
  C:8E41H         LINE#         474
  C:8E4BH         LINE#         475
  C:8E4BH         LINE#         476
  C:8E4DH         LINE#         477
  C:8E54H         LINE#         478
  C:8E59H         LINE#         479
  C:8E5FH         LINE#         480
  C:8E63H         LINE#         481
  C:8E65H         LINE#         482
  C:8E6BH         LINE#         483
  C:8E6BH         LINE#         484
  C:8E6DH         LINE#         486
  C:8E6DH         LINE#         487
  C:8E73H         LINE#         488
  C:8E73H         LINE#         489
  C:8E73H         LINE#         490
  C:8E75H         LINE#         492
  C:8E75H         LINE#         493
  C:8E83H         LINE#         494
  C:8E96H         LINE#         495
  C:8E96H         LINE#         496
  C:8E97H         LINE#         497
  C:8E9DH         LINE#         498
  C:8EA2H         LINE#         499
BL51 BANKED LINKER/LOCATER V6.22.2.0                                                  10/02/2020  15:54:40  PAGE 95


  C:8EA4H         LINE#         500
  C:8EA4H         LINE#         501
  C:8EA6H         LINE#         503
  C:8EA6H         LINE#         504
  C:8EA7H         LINE#         505
  C:8EABH         LINE#         506
  C:8EB1H         LINE#         507
  C:8EB1H         LINE#         508
  C:8EB1H         LINE#         509
  C:8EB6H         LINE#         510
  -------         ENDPROC       ERROR_RX_PTO
  -------         PROC          SECUENCIA_INICIO_EXPEDIDOR
  -------         DO            
  X:0001H         SYMBOL        temp
  -------         ENDDO         
  C:6B8DH         LINE#         517
  C:6B8DH         LINE#         518
  C:6B8DH         LINE#         522
  C:6BADH         LINE#         523
  C:6BADH         LINE#         524
  C:6BADH         LINE#         526
  C:6BAFH         LINE#         527
  C:6BB4H         LINE#         528
  C:6BBAH         LINE#         531
  C:6BBCH         LINE#         532
  C:6BBCH         LINE#         543
  C:6BBCH         LINE#         545
  C:6BCAH         LINE#         546
  C:6BCAH         LINE#         547
  C:6BD6H         LINE#         548
  C:6BD6H         LINE#         549
  C:6BDCH         LINE#         550
  C:6BDFH         LINE#         551
  C:6BE7H         LINE#         552
  C:6BE7H         LINE#         553
  C:6BEEH         LINE#         554
  C:6C02H         LINE#         555
  C:6C02H         LINE#         556
  C:6C04H         LINE#         558
  C:6C04H         LINE#         560
  C:6C0BH         LINE#         561
  C:6C11H         LINE#         562
  C:6C11H         LINE#         563
  C:6C14H         LINE#         565
  C:6C14H         LINE#         566
  C:6C1DH         LINE#         567
  C:6C31H         LINE#         568
  C:6C37H         LINE#         569
  C:6C37H         LINE#         570
  C:6C3AH         LINE#         571
  C:6C3AH         LINE#         577
  C:6C3AH         LINE#         579
  C:6C3DH         LINE#         580
  C:6C43H         LINE#         584
  C:6C45H         LINE#         585
  C:6C45H         LINE#         595
  C:6C45H         LINE#         597
BL51 BANKED LINKER/LOCATER V6.22.2.0                                                  10/02/2020  15:54:40  PAGE 96


  C:6C53H         LINE#         598
  C:6C53H         LINE#         599
  C:6C5FH         LINE#         600
  C:6C5FH         LINE#         601
  C:6C65H         LINE#         602
  C:6C67H         LINE#         603
  C:6C6FH         LINE#         604
  C:6C6FH         LINE#         605
  C:6C76H         LINE#         606
  C:6C8AH         LINE#         607
  C:6C8AH         LINE#         608
  C:6C8CH         LINE#         610
  C:6C8CH         LINE#         613
  C:6C93H         LINE#         614
  C:6C99H         LINE#         615
  C:6C99H         LINE#         616
  C:6C9BH         LINE#         618
  C:6C9BH         LINE#         619
  C:6CA4H         LINE#         620
  C:6CB8H         LINE#         621
  C:6CBDH         LINE#         622
  C:6CBDH         LINE#         624
  C:6CBFH         LINE#         625
  C:6CBFH         LINE#         631
  C:6CBFH         LINE#         633
  C:6CC5H         LINE#         634
  C:6CC5H         LINE#         637
  C:6CC5H         LINE#         638
  C:6CCCH         LINE#         639
  C:6CCCH         LINE#         640
  C:6CCCH         LINE#         641
  -------         ENDPROC       SECUENCIA_INICIO_EXPEDIDOR
  -------         PROC          _HORARIOS
  X:0011H         SYMBOL        Horario
  -------         DO            
  X:0012H         SYMBOL        Estado_Horario
  X:0013H         SYMBOL        Addr_horarios
  X:001EH         SYMBOL        dia_semana
  X:001FH         SYMBOL        EE_dia_semana
  X:0020H         SYMBOL        addr
  -------         ENDDO         
  C:8121H         LINE#         652
  C:8126H         LINE#         653
  C:8126H         LINE#         659
  C:812BH         LINE#         660
  C:812BH         LINE#         662
  C:8137H         LINE#         664
  C:8150H         LINE#         668
  C:8163H         LINE#         669
  C:8163H         LINE#         671
  C:816DH         LINE#         672
  C:8176H         LINE#         673
  C:817EH         LINE#         674
  C:8187H         LINE#         677
  C:81ACH         LINE#         678
  C:81B5H         LINE#         679
  C:81BDH         LINE#         680
BL51 BANKED LINKER/LOCATER V6.22.2.0                                                  10/02/2020  15:54:40  PAGE 97


  C:81C6H         LINE#         682
  C:81D0H         LINE#         683
  C:81D0H         LINE#         685
  C:81DEH         LINE#         686
  C:81E0H         LINE#         688
  C:81E0H         LINE#         690
  C:81E9H         LINE#         691
  C:81EEH         LINE#         692
  C:81EEH         LINE#         693
  C:81F0H         LINE#         695
  C:81F0H         LINE#         697
  C:81F5H         LINE#         698
  C:81FAH         LINE#         699
  C:8200H         LINE#         701
  C:8200H         LINE#         703
  C:8202H         LINE#         705
  C:8202H         LINE#         708
  C:8207H         LINE#         710
  C:8210H         LINE#         711
  C:8210H         LINE#         712
  C:8215H         LINE#         713
  -------         ENDPROC       _HORARIOS
  -------         PROC          _HORA_MAXIMA
  X:002EH         SYMBOL        addr
  -------         DO            
  X:0030H         SYMBOL        Hora_High
  X:0031H         SYMBOL        Minuto_High
  X:0032H         SYMBOL        HoraIni
  X:0033H         SYMBOL        MinutoIni
  X:0034H         SYMBOL        Hora_Prog
  -------         ENDDO         
  C:8EB7H         LINE#         714
  C:8EBFH         LINE#         715
  C:8EBFH         LINE#         720
  C:8ED4H         LINE#         721
  C:8EF4H         LINE#         722
  C:8F11H         LINE#         723
  C:8F31H         LINE#         724
  C:8F39H         LINE#         725
  C:8F41H         LINE#         726
  C:8F4AH         LINE#         728
  C:8F62H         LINE#         729
  -------         ENDPROC       _HORA_MAXIMA
  -------         PROC          _EN_HORARIO
  X:0029H         SYMBOL        HoraNow
  D:0004H         SYMBOL        Hora_Prog
  X:002BH         SYMBOL        addr
  -------         DO            
  X:002DH         SYMBOL        Estado_Horario
  -------         ENDDO         
  C:98F5H         LINE#         730
  C:9903H         LINE#         731
  C:9903H         LINE#         734
  C:9910H         LINE#         735
  C:9910H         LINE#         738
  C:9919H         LINE#         739
  C:992EH         LINE#         742
BL51 BANKED LINKER/LOCATER V6.22.2.0                                                  10/02/2020  15:54:40  PAGE 98


  C:993DH         LINE#         743
  C:993DH         LINE#         744
  C:9940H         LINE#         745
  C:9949H         LINE#         746
  C:994FH         LINE#         747
  C:9951H         LINE#         749
  C:9951H         LINE#         750
  C:9954H         LINE#         751
  C:9959H         LINE#         752
  C:995FH         LINE#         753
  C:995FH         LINE#         754
  C:995FH         LINE#         756
  C:9961H         LINE#         758
  C:9961H         LINE#         759
  C:9966H         LINE#         760
  C:996BH         LINE#         761
  C:9974H         LINE#         762
  C:9979H         LINE#         764
  C:9979H         LINE#         765
  C:997EH         LINE#         766
  -------         ENDPROC       _EN_HORARIO
  -------         PROC          _BLOQUE_HORARIO
  X:0022H         SYMBOL        addr
  -------         DO            
  X:0024H         SYMBOL        Estado_Horario
  X:0025H         SYMBOL        HoraNow
  X:0027H         SYMBOL        Hora_Prog
  -------         ENDDO         
  C:7839H         LINE#         768
  C:7841H         LINE#         769
  C:7841H         LINE#         775
  C:784AH         LINE#         776
  C:7852H         LINE#         777
  C:785AH         LINE#         778
  C:7863H         LINE#         779
  C:7891H         LINE#         784
  C:789AH         LINE#         785
  C:78AFH         LINE#         786
  C:78C7H         LINE#         787
  C:78C9H         LINE#         788
  C:78C9H         LINE#         791
  C:78E1H         LINE#         792
  C:78E1H         LINE#         793
  C:78EAH         LINE#         794
  C:7905H         LINE#         795
  C:7923H         LINE#         796
  C:7925H         LINE#         798
  C:7925H         LINE#         799
  C:792AH         LINE#         800
  C:792FH         LINE#         801
  C:7934H         LINE#         802
  C:7934H         LINE#         803
  C:7934H         LINE#         805
  C:793BH         LINE#         806
  -------         ENDPROC       _BLOQUE_HORARIO
  -------         PROC          _RESPONDE_LECTURA_TARJETA_SECTOR1_BLOQUE1
  X:0011H         SYMBOL        Atributos_Expedidor
BL51 BANKED LINKER/LOCATER V6.22.2.0                                                  10/02/2020  15:54:40  PAGE 99


  -------         DO            
  D:0007H         SYMBOL        temp
  X:0014H         SYMBOL        Estado_expedidor
  X:0156H         SYMBOL        falla
  -------         ENDDO         
  C:6041H         LINE#         807
  C:604CH         LINE#         808
  C:604CH         LINE#         813
  C:6055H         LINE#         816
  C:6065H         LINE#         817
  C:6065H         LINE#         819
  C:6071H         LINE#         820
  C:6071H         LINE#         821
  C:6089H         LINE#         822
  C:608CH         LINE#         823
  C:609DH         LINE#         824
  C:60D7H         LINE#         825
  C:60D7H         LINE#         826
  C:60E0H         LINE#         827
  C:60E8H         LINE#         828
  C:60F1H         LINE#         830
  C:60FAH         LINE#         831
  C:6102H         LINE#         832
  C:610BH         LINE#         834
  C:6114H         LINE#         835
  C:611CH         LINE#         836
  C:6125H         LINE#         839
  C:613CH         LINE#         842
  C:6146H         LINE#         843
  C:6150H         LINE#         844
  C:615AH         LINE#         845
  C:615FH         LINE#         846
  C:6165H         LINE#         848
  C:6167H         LINE#         850
  C:6167H         LINE#         851
  C:616CH         LINE#         852
  C:6171H         LINE#         853
  C:6173H         LINE#         854
  C:6173H         LINE#         855
  C:6173H         LINE#         856
  C:6175H         LINE#         858
  C:6175H         LINE#         859
  C:617DH         LINE#         860
  C:617DH         LINE#         861
  C:6183H         LINE#         862
  C:6183H         LINE#         863
  C:6190H         LINE#         865
  C:6190H         LINE#         866
  C:6199H         LINE#         867
  C:619FH         LINE#         869
  C:61A1H         LINE#         871
  C:61A1H         LINE#         872
  C:61A6H         LINE#         873
  C:61ABH         LINE#         874
  C:61B0H         LINE#         875
  C:61B6H         LINE#         876
  C:61B6H         LINE#         877
BL51 BANKED LINKER/LOCATER V6.22.2.0                                                  10/02/2020  15:54:40  PAGE 100


  C:61B6H         LINE#         878
  C:61BBH         LINE#         879
  -------         ENDPROC       _RESPONDE_LECTURA_TARJETA_SECTOR1_BLOQUE1
  -------         PROC          _RESPONDE_LECTURA_TARJETA_SECTOR1_BLOQUE2
  X:0011H         SYMBOL        Atributos_Expedidor
  -------         DO            
  D:0007H         SYMBOL        temp
  X:0014H         SYMBOL        Estado_expedidor
  -------         ENDDO         
  C:592DH         LINE#         881
  C:5938H         LINE#         882
  C:5938H         LINE#         885
  C:5948H         LINE#         886
  C:5948H         LINE#         887
  C:5951H         LINE#         889
  C:595DH         LINE#         890
  C:595DH         LINE#         891
  C:5975H         LINE#         892
  C:5978H         LINE#         893
  C:5989H         LINE#         896
  C:599DH         LINE#         897
  C:59B4H         LINE#         898
  C:59BEH         LINE#         899
  C:59C8H         LINE#         900
  C:59D2H         LINE#         902
  C:59DBH         LINE#         903
  C:59E8H         LINE#         904
  C:5A04H         LINE#         905
  C:5A0DH         LINE#         907
  C:5A29H         LINE#         909
  C:5A33H         LINE#         911
  C:5A3FH         LINE#         917
  C:5A49H         LINE#         918
  C:5A49H         LINE#         919
  C:5A62H         LINE#         920
  C:5A62H         LINE#         921
  C:5A6BH         LINE#         922
  C:5A70H         LINE#         923
  C:5A70H         LINE#         924
  C:5A70H         LINE#         925
  C:5A70H         LINE#         926
  C:5A72H         LINE#         928
  C:5A72H         LINE#         929
  C:5A7BH         LINE#         930
  C:5A81H         LINE#         932
  C:5A81H         LINE#         934
  C:5A84H         LINE#         935
  C:5A99H         LINE#         936
  C:5A99H         LINE#         937
  C:5AA6H         LINE#         938
  C:5AA6H         LINE#         939
  C:5AAFH         LINE#         940
  C:5AC8H         LINE#         941
  C:5AC8H         LINE#         942
  C:5AD1H         LINE#         944
  C:5AD6H         LINE#         945
  C:5ADBH         LINE#         946
BL51 BANKED LINKER/LOCATER V6.22.2.0                                                  10/02/2020  15:54:40  PAGE 101


  C:5ADBH         LINE#         948
  C:5ADDH         LINE#         956
  C:5ADDH         LINE#         957
  C:5AE6H         LINE#         958
  C:5AEFH         LINE#         959
  C:5AF5H         LINE#         960
  C:5AF5H         LINE#         961
  C:5AF7H         LINE#         963
  C:5AF7H         LINE#         964
  C:5B00H         LINE#         965
  C:5B05H         LINE#         966
  C:5B0BH         LINE#         968
  C:5B0BH         LINE#         970
  C:5B0DH         LINE#         972
  C:5B0DH         LINE#         973
  C:5B13H         LINE#         974
  C:5B13H         LINE#         976
  C:5B18H         LINE#         978
  -------         ENDPROC       _RESPONDE_LECTURA_TARJETA_SECTOR1_BLOQUE2
  -------         PROC          _RESPONDE_LECTURA_TARJETA_SECTOR1_BLOQUE0
  X:0011H         SYMBOL        Atributos_Expedidor
  -------         DO            
  D:0007H         SYMBOL        temp
  X:0014H         SYMBOL        Estado_expedidor
  X:0157H         SYMBOL        buffer_S1_B0
  -------         ENDDO         
  C:772AH         LINE#         979
  C:7735H         LINE#         980
  C:7735H         LINE#         984
  C:7745H         LINE#         985
  C:7745H         LINE#         986
  C:774EH         LINE#         989
  C:775AH         LINE#         990
  C:775AH         LINE#         992
  C:7772H         LINE#         993
  C:777FH         LINE#         994
  C:777FH         LINE#         995
  C:777FH         LINE#         996
  C:777FH         LINE#         997
  C:7782H         LINE#         999
  C:778BH         LINE#         1000
  C:7794H         LINE#         1001
  C:779DH         LINE#         1005
  C:77B2H         LINE#         1006
  C:77B2H         LINE#         1007
  C:77B7H         LINE#         1008
  C:77D1H         LINE#         1009
  C:77D3H         LINE#         1011
  C:77D3H         LINE#         1013
  C:77E1H         LINE#         1014
  C:77E1H         LINE#         1015
  C:77E7H         LINE#         1016
  C:77E7H         LINE#         1019
  C:77FFH         LINE#         1020
  C:77FFH         LINE#         1022
  C:780AH         LINE#         1023
  C:780CH         LINE#         1025
BL51 BANKED LINKER/LOCATER V6.22.2.0                                                  10/02/2020  15:54:40  PAGE 102


  C:780CH         LINE#         1026
  C:7825H         LINE#         1027
  C:7825H         LINE#         1028
  C:7825H         LINE#         1032
  C:782BH         LINE#         1034
  C:782DH         LINE#         1035
  C:782DH         LINE#         1036
  C:7833H         LINE#         1037
  C:7833H         LINE#         1038
  C:7838H         LINE#         1039
  -------         ENDPROC       _RESPONDE_LECTURA_TARJETA_SECTOR1_BLOQUE0
  -------         PROC          _ARMAR_TRAMA_PTO_PARALELO_EXPEDIDOR_MENSUAL
  X:0015H         SYMBOL        Atributos_Expedidor
  -------         DO            
  X:0168H         SYMBOL        buffer
  -------         ENDDO         
  C:7A3BH         LINE#         1041
  C:7A46H         LINE#         1042
  C:7A46H         LINE#         1048
  C:7A4CH         LINE#         1049
  C:7A50H         LINE#         1050
  C:7A65H         LINE#         1051
  C:7A6FH         LINE#         1052
  C:7A79H         LINE#         1053
  C:7A83H         LINE#         1058
  C:7A8CH         LINE#         1059
  C:7A98H         LINE#         1060
  C:7AA4H         LINE#         1061
  C:7AB0H         LINE#         1062
  C:7ABCH         LINE#         1065
  C:7AC8H         LINE#         1066
  C:7AC8H         LINE#         1068
  C:7ACFH         LINE#         1069
  C:7AD3H         LINE#         1070
  C:7AD7H         LINE#         1071
  C:7ADBH         LINE#         1072
  C:7ADFH         LINE#         1073
  C:7AE3H         LINE#         1075
  C:7AE3H         LINE#         1077
  C:7AF9H         LINE#         1078
  C:7AF9H         LINE#         1079
  C:7AFCH         LINE#         1080
  C:7AFEH         LINE#         1082
  C:7AFEH         LINE#         1083
  C:7B01H         LINE#         1084
  C:7B01H         LINE#         1086
  C:7B07H         LINE#         1087
  C:7B0AH         LINE#         1088
  C:7B0CH         LINE#         1089
  C:7B0FH         LINE#         1090
  C:7B1AH         LINE#         1092
  C:7B1DH         LINE#         1093
  C:7B26H         LINE#         1094
  C:7B36H         LINE#         1095
  -------         ENDPROC       _ARMAR_TRAMA_PTO_PARALELO_EXPEDIDOR_MENSUAL
  -------         PROC          _ANALIZA_UID_CARD
  X:0011H         SYMBOL        Atributos_Expedidor
BL51 BANKED LINKER/LOCATER V6.22.2.0                                                  10/02/2020  15:54:40  PAGE 103


  -------         DO            
  X:0014H         SYMBOL        Estado_expedidor
  D:0007H         SYMBOL        temp
  -------         ENDDO         
  C:859DH         LINE#         1097
  C:85A8H         LINE#         1098
  C:85A8H         LINE#         1101
  C:85B8H         LINE#         1102
  C:85B8H         LINE#         1104
  C:85C4H         LINE#         1105
  C:85C4H         LINE#         1106
  C:85DCH         LINE#         1108
  C:85DFH         LINE#         1110
  C:85E8H         LINE#         1111
  C:85F9H         LINE#         1114
  C:8602H         LINE#         1115
  C:860AH         LINE#         1116
  C:8612H         LINE#         1117
  C:861AH         LINE#         1118
  C:8622H         LINE#         1119
  C:862BH         LINE#         1121
  C:8642H         LINE#         1122
  C:864CH         LINE#         1123
  C:8656H         LINE#         1124
  C:8660H         LINE#         1125
  C:8666H         LINE#         1126
  C:8668H         LINE#         1128
  C:8668H         LINE#         1129
  C:866EH         LINE#         1130
  C:866EH         LINE#         1131
  C:8673H         LINE#         1132
  -------         ENDPROC       _ANALIZA_UID_CARD
  -------         PROC          VALIDAR_PAGO
  -------         DO            
  X:0011H         SYMBOL        Estado_expedidor
  X:0012H         SYMBOL        temp
  -------         ENDDO         
  C:A170H         LINE#         1134
  C:A170H         LINE#         1135
  C:A170H         LINE#         1138
  C:A17EH         LINE#         1139
  C:A182H         LINE#         1140
  C:A182H         LINE#         1141
  C:A18BH         LINE#         1142
  C:A190H         LINE#         1143
  C:A195H         LINE#         1144
  C:A19AH         LINE#         1146
  C:A1A0H         LINE#         1148
  C:A1A2H         LINE#         1149
  C:A1ACH         LINE#         1150
  C:A1ACH         LINE#         1151
  C:A1B3H         LINE#         1152
  C:A1B8H         LINE#         1153
  C:A1BDH         LINE#         1154
  C:A1C2H         LINE#         1155
  C:A1C8H         LINE#         1156
  C:A1CAH         LINE#         1158
BL51 BANKED LINKER/LOCATER V6.22.2.0                                                  10/02/2020  15:54:40  PAGE 104


  C:A1CAH         LINE#         1159
  C:A1D1H         LINE#         1161
  C:A1D7H         LINE#         1162
  C:A1D7H         LINE#         1163
  C:A1DCH         LINE#         1164
  -------         ENDPROC       VALIDAR_PAGO
  -------         PROC          _VALIDA_MISMO_DIA
  X:0011H         SYMBOL        Atributos_Expedidor
  -------         DO            
  D:0007H         SYMBOL        day
  X:0014H         SYMBOL        month
  X:0015H         SYMBOL        year
  X:0016H         SYMBOL        Valida_Mismo_Dia
  -------         ENDDO         
  C:A1DDH         LINE#         1165
  C:A1E8H         LINE#         1166
  C:A1E8H         LINE#         1172
  C:A1EDH         LINE#         1173
  C:A1FAH         LINE#         1174
  C:A207H         LINE#         1175
  C:A20FH         LINE#         1177
  C:A23CH         LINE#         1178
  C:A23CH         LINE#         1179
  C:A242H         LINE#         1180
  C:A242H         LINE#         1182
  C:A247H         LINE#         1183
  -------         ENDPROC       _VALIDA_MISMO_DIA
  -------         PROC          SECUENCIAEXPEDIDOR
  -------         DO            
  X:0001H         SYMBOL        temp
  X:0002H         SYMBOL        tiempo
  X:0004H         SYMBOL        Estado_Tiempo
  X:0184H         SYMBOL        Atributos_Expedidor
  X:0196H         SYMBOL        buffer_S1_B0
  X:0008H         SYMBOL        clock_temp
  X:01A7H         SYMBOL        contador
  X:000EH         SYMBOL        atributos
  -------         ENDDO         
  C:1192H         LINE#         1184
  C:1192H         LINE#         1185
  C:1192H         LINE#         1194
  C:1211H         LINE#         1195
  C:1211H         LINE#         1198
  C:1211H         LINE#         1200
  C:121CH         LINE#         1201
  C:121CH         LINE#         1203
  C:121EH         LINE#         1204
  C:1223H         LINE#         1205
  C:1223H         LINE#         1207
  C:1223H         LINE#         1209
  C:1225H         LINE#         1219
  C:1225H         LINE#         1221
  C:122FH         LINE#         1222
  C:122FH         LINE#         1223
  C:1237H         LINE#         1224
  C:1237H         LINE#         1225
  C:123CH         LINE#         1226
BL51 BANKED LINKER/LOCATER V6.22.2.0                                                  10/02/2020  15:54:40  PAGE 105


  C:123DH         LINE#         1227
  C:1243H         LINE#         1228
  C:1243H         LINE#         1229
  C:1249H         LINE#         1230
  C:1249H         LINE#         1231
  C:1249H         LINE#         1232
  C:124CH         LINE#         1234
  C:124CH         LINE#         1237
  C:125FH         LINE#         1238
  C:125FH         LINE#         1239
  C:1265H         LINE#         1240
  C:1266H         LINE#         1241
  C:127EH         LINE#         1242
  C:127EH         LINE#         1243
  C:127EH         LINE#         1244
  C:127EH         LINE#         1246
  C:127EH         LINE#         1247
  C:1281H         LINE#         1249
  C:1281H         LINE#         1250
  C:1287H         LINE#         1251
  C:1287H         LINE#         1252
  C:1287H         LINE#         1253
  C:1287H         LINE#         1255
  C:128AH         LINE#         1261
  C:128AH         LINE#         1262
  C:1295H         LINE#         1263
  C:1295H         LINE#         1264
  C:129AH         LINE#         1265
  C:129AH         LINE#         1266
  C:129AH         LINE#         1267
  C:129CH         LINE#         1277
  C:129CH         LINE#         1279
  C:12A6H         LINE#         1280
  C:12A6H         LINE#         1281
  C:12AEH         LINE#         1282
  C:12AEH         LINE#         1283
  C:12AEH         LINE#         1284
  C:12B0H         LINE#         1285
  C:12B6H         LINE#         1286
  C:12B6H         LINE#         1287
  C:12BCH         LINE#         1288
  C:12BCH         LINE#         1289
  C:12BCH         LINE#         1290
  C:12BFH         LINE#         1292
  C:12BFH         LINE#         1296
  C:12D2H         LINE#         1297
  C:12D2H         LINE#         1298
  C:12D8H         LINE#         1299
  C:12D9H         LINE#         1300
  C:12F1H         LINE#         1301
  C:12F1H         LINE#         1302
  C:12F1H         LINE#         1303
  C:12F1H         LINE#         1305
  C:12F1H         LINE#         1306
  C:12F4H         LINE#         1308
  C:12F4H         LINE#         1309
  C:12FDH         LINE#         1310
BL51 BANKED LINKER/LOCATER V6.22.2.0                                                  10/02/2020  15:54:40  PAGE 106


  C:1311H         LINE#         1311
  C:1319H         LINE#         1312
  C:1319H         LINE#         1314
  C:1322H         LINE#         1315
  C:1328H         LINE#         1316
  C:132EH         LINE#         1317
  C:1334H         LINE#         1318
  C:1334H         LINE#         1319
  C:133AH         LINE#         1320
  C:133AH         LINE#         1321
  C:133DH         LINE#         1322
  C:1346H         LINE#         1323
  C:134BH         LINE#         1324
  C:1350H         LINE#         1326
  C:1350H         LINE#         1327
  C:1350H         LINE#         1328
  C:1356H         LINE#         1329
  C:1365H         LINE#         1330
  C:1365H         LINE#         1331
  C:136BH         LINE#         1334
  C:136CH         LINE#         1335
  C:1373H         LINE#         1336
  C:1373H         LINE#         1338
  C:1379H         LINE#         1339
  C:1379H         LINE#         1342
  C:137CH         LINE#         1343
  C:1387H         LINE#         1344
  C:1387H         LINE#         1345
  C:1390H         LINE#         1348
  C:1398H         LINE#         1349
  C:1398H         LINE#         1350
  C:139FH         LINE#         1353
  C:13A5H         LINE#         1354
  C:13A6H         LINE#         1356
  C:13A6H         LINE#         1357
  C:13ADH         LINE#         1358
  C:13B2H         LINE#         1359
  C:13B4H         LINE#         1360
  C:13B4H         LINE#         1362
  C:13B4H         LINE#         1364
  C:13B4H         LINE#         1366
  C:13B4H         LINE#         1368
  C:13B7H         LINE#         1381
  C:13B7H         LINE#         1383
  C:13C1H         LINE#         1384
  C:13C1H         LINE#         1385
  C:13C9H         LINE#         1386
  C:13C9H         LINE#         1387
  C:13C9H         LINE#         1388
  C:13CCH         LINE#         1389
  C:13D4H         LINE#         1390
  C:13D4H         LINE#         1392
  C:13DBH         LINE#         1393
  C:13EFH         LINE#         1394
  C:13F5H         LINE#         1396
  C:13F6H         LINE#         1398
  C:13F6H         LINE#         1399
BL51 BANKED LINKER/LOCATER V6.22.2.0                                                  10/02/2020  15:54:40  PAGE 107


  C:13FDH         LINE#         1400
  C:1402H         LINE#         1401
  C:1404H         LINE#         1402
  C:1404H         LINE#         1404
  C:1404H         LINE#         1405
  C:1407H         LINE#         1407
  C:1407H         LINE#         1408
  C:140FH         LINE#         1409
  C:140FH         LINE#         1410
  C:1416H         LINE#         1411
  C:1416H         LINE#         1412
  C:141AH         LINE#         1413
  C:141AH         LINE#         1415
  C:141AH         LINE#         1417
  C:141DH         LINE#         1418
  C:141DH         LINE#         1419
  C:1424H         LINE#         1420
  C:1438H         LINE#         1421
  C:143DH         LINE#         1422
  C:1442H         LINE#         1423
  C:1444H         LINE#         1424
  C:1444H         LINE#         1426
  C:1444H         LINE#         1427
  C:1447H         LINE#         1429
  C:1447H         LINE#         1430
  C:1450H         LINE#         1431
  C:1464H         LINE#         1432
  C:1469H         LINE#         1433
  C:146EH         LINE#         1434
  C:1470H         LINE#         1435
  C:1470H         LINE#         1437
  C:1470H         LINE#         1439
  C:1470H         LINE#         1441
  C:1473H         LINE#         1449
  C:1473H         LINE#         1451
  C:147DH         LINE#         1452
  C:147DH         LINE#         1453
  C:1485H         LINE#         1454
  C:1485H         LINE#         1455
  C:1485H         LINE#         1456
  C:1488H         LINE#         1457
  C:1490H         LINE#         1458
  C:1490H         LINE#         1459
  C:1497H         LINE#         1460
  C:14ABH         LINE#         1461
  C:14ABH         LINE#         1462
  C:14ADH         LINE#         1464
  C:14ADH         LINE#         1465
  C:14B4H         LINE#         1466
  C:14B4H         LINE#         1467
  C:14B4H         LINE#         1468
  C:14B7H         LINE#         1470
  C:14B7H         LINE#         1471
  C:14C0H         LINE#         1472
  C:14D4H         LINE#         1474
  C:14D4H         LINE#         1475
  C:14D4H         LINE#         1478
BL51 BANKED LINKER/LOCATER V6.22.2.0                                                  10/02/2020  15:54:40  PAGE 108


  C:14D6H         LINE#         1484
  C:14D6H         LINE#         1486
  C:14DDH         LINE#         1487
  C:14DDH         LINE#         1489
  C:14DFH         LINE#         1495
  C:14DFH         LINE#         1497
  C:14E9H         LINE#         1498
  C:14E9H         LINE#         1499
  C:14F1H         LINE#         1500
  C:14F1H         LINE#         1501
  C:14F1H         LINE#         1502
  C:14F3H         LINE#         1503
  C:14F9H         LINE#         1504
  C:14F9H         LINE#         1505
  C:14FFH         LINE#         1506
  C:14FFH         LINE#         1507
  C:14FFH         LINE#         1508
  C:1502H         LINE#         1510
  C:1502H         LINE#         1514
  C:1515H         LINE#         1515
  C:1515H         LINE#         1516
  C:151BH         LINE#         1517
  C:151CH         LINE#         1518
  C:1534H         LINE#         1519
  C:1534H         LINE#         1520
  C:153AH         LINE#         1521
  C:153AH         LINE#         1523
  C:153AH         LINE#         1524
  C:153BH         LINE#         1526
  C:153BH         LINE#         1527
  C:1544H         LINE#         1528
  C:1544H         LINE#         1529
  C:1547H         LINE#         1534
  C:1547H         LINE#         1536
  C:154EH         LINE#         1537
  C:154EH         LINE#         1538
  C:1550H         LINE#         1544
  C:1550H         LINE#         1546
  C:155AH         LINE#         1547
  C:155AH         LINE#         1548
  C:1562H         LINE#         1549
  C:1562H         LINE#         1550
  C:1562H         LINE#         1551
  C:1564H         LINE#         1552
  C:156AH         LINE#         1553
  C:156AH         LINE#         1554
  C:1570H         LINE#         1555
  C:1570H         LINE#         1556
  C:1570H         LINE#         1557
  C:1573H         LINE#         1559
  C:1573H         LINE#         1562
  C:1586H         LINE#         1563
  C:1586H         LINE#         1564
  C:158CH         LINE#         1565
  C:158DH         LINE#         1566
  C:15A5H         LINE#         1567
  C:15A5H         LINE#         1568
BL51 BANKED LINKER/LOCATER V6.22.2.0                                                  10/02/2020  15:54:40  PAGE 109


  C:15ABH         LINE#         1569
  C:15ABH         LINE#         1571
  C:15ABH         LINE#         1572
  C:15ACH         LINE#         1574
  C:15ACH         LINE#         1575
  C:15B5H         LINE#         1577
  C:15B5H         LINE#         1578
  C:15B8H         LINE#         1579
  C:15B8H         LINE#         1585
  C:15C3H         LINE#         1586
  C:15C3H         LINE#         1587
  C:15C9H         LINE#         1588
  C:15C9H         LINE#         1589
  C:15C9H         LINE#         1591
  C:15C9H         LINE#         1592
  C:15CCH         LINE#         1593
  C:15CCH         LINE#         1594
  C:15DBH         LINE#         1595
  C:15DBH         LINE#         1596
  C:15E4H         LINE#         1599
  C:1608H         LINE#         1600
  C:1608H         LINE#         1601
  C:1608H         LINE#         1603
  C:1608H         LINE#         1604
  C:160BH         LINE#         1605
  C:160BH         LINE#         1607
  C:160BH         LINE#         1608
  C:1614H         LINE#         1609
  C:1619H         LINE#         1610
  C:161EH         LINE#         1611
  C:161EH         LINE#         1612
  C:1621H         LINE#         1613
  C:1621H         LINE#         1616
  C:1621H         LINE#         1617
  C:1621H         LINE#         1622
  C:162AH         LINE#         1623
  C:162AH         LINE#         1625
  C:1639H         LINE#         1626
  C:1639H         LINE#         1627
  C:163CH         LINE#         1628
  C:1645H         LINE#         1629
  C:164DH         LINE#         1630
  C:1656H         LINE#         1632
  C:1664H         LINE#         1633
  C:166AH         LINE#         1634
  C:167BH         LINE#         1636
  C:1684H         LINE#         1637
  C:16AAH         LINE#         1638
  C:16B3H         LINE#         1639
  C:16BCH         LINE#         1640
  C:16BFH         LINE#         1644
  C:16C7H         LINE#         1645
  C:16C7H         LINE#         1646
  C:16D0H         LINE#         1647
  C:16D9H         LINE#         1649
  C:16DBH         LINE#         1651
  C:16DBH         LINE#         1652
BL51 BANKED LINKER/LOCATER V6.22.2.0                                                  10/02/2020  15:54:40  PAGE 110


  C:16E7H         LINE#         1653
  C:16E7H         LINE#         1654
  C:16F0H         LINE#         1655
  C:16F6H         LINE#         1657
  C:16F6H         LINE#         1658
  C:16F9H         LINE#         1659
  C:16F9H         LINE#         1661
  C:16F9H         LINE#         1662
  C:1702H         LINE#         1663
  C:1707H         LINE#         1664
  C:170CH         LINE#         1665
  C:1712H         LINE#         1666
  C:1712H         LINE#         1667
  C:1712H         LINE#         1668
  C:1712H         LINE#         1669
  C:1714H         LINE#         1674
  C:171EH         LINE#         1675
  C:171EH         LINE#         1676
  C:1727H         LINE#         1677
  C:1730H         LINE#         1678
  C:1739H         LINE#         1679
  C:174AH         LINE#         1681
  C:174AH         LINE#         1685
  C:174DH         LINE#         1688
  C:1750H         LINE#         1689
  C:1750H         LINE#         1692
  C:175DH         LINE#         1693
  C:175DH         LINE#         1695
  C:176EH         LINE#         1697
  C:177CH         LINE#         1698
  C:177CH         LINE#         1700
  C:178CH         LINE#         1701
  C:178CH         LINE#         1702
  C:1790H         LINE#         1703
  C:1790H         LINE#         1704
  C:1792H         LINE#         1706
  C:1792H         LINE#         1707
  C:1799H         LINE#         1708
  C:179CH         LINE#         1709
  C:179CH         LINE#         1711
  C:179FH         LINE#         1713
  C:179FH         LINE#         1714
  C:17A4H         LINE#         1716
  C:17A9H         LINE#         1717
  C:17B2H         LINE#         1718
  C:17B2H         LINE#         1720
  C:17B2H         LINE#         1721
  C:17B4H         LINE#         1723
  C:17B4H         LINE#         1724
  C:17BFH         LINE#         1725
  C:17BFH         LINE#         1727
  C:17D0H         LINE#         1728
  C:17DEH         LINE#         1729
  C:17DEH         LINE#         1730
  C:17E7H         LINE#         1731
  C:17E7H         LINE#         1732
  C:17E9H         LINE#         1734
BL51 BANKED LINKER/LOCATER V6.22.2.0                                                  10/02/2020  15:54:40  PAGE 111


  C:17E9H         LINE#         1735
  C:17EEH         LINE#         1736
  C:17F3H         LINE#         1737
  C:17FCH         LINE#         1738
  C:17FCH         LINE#         1739
  C:17FCH         LINE#         1740
  C:17FFH         LINE#         1742
  C:17FFH         LINE#         1743
  C:17FFH         LINE#         1744
  C:17FFH         LINE#         1745
  C:17FFH         LINE#         1746
  C:1802H         LINE#         1747
  C:1802H         LINE#         1749
  C:1809H         LINE#         1750
  C:1809H         LINE#         1751
  C:180BH         LINE#         1757
  C:180BH         LINE#         1759
  C:1815H         LINE#         1760
  C:1815H         LINE#         1761
  C:181DH         LINE#         1762
  C:181DH         LINE#         1763
  C:181DH         LINE#         1764
  C:181FH         LINE#         1765
  C:1825H         LINE#         1766
  C:1825H         LINE#         1767
  C:182BH         LINE#         1768
  C:182BH         LINE#         1769
  C:182BH         LINE#         1770
  C:182EH         LINE#         1772
  C:182EH         LINE#         1775
  C:1841H         LINE#         1776
  C:1841H         LINE#         1777
  C:1847H         LINE#         1778
  C:1848H         LINE#         1779
  C:1860H         LINE#         1780
  C:1860H         LINE#         1781
  C:1866H         LINE#         1782
  C:1866H         LINE#         1783
  C:1866H         LINE#         1784
  C:1867H         LINE#         1786
  C:1867H         LINE#         1787
  C:1870H         LINE#         1789
  C:1870H         LINE#         1790
  C:1873H         LINE#         1797
  C:1873H         LINE#         1800
  C:1880H         LINE#         1801
  C:1880H         LINE#         1803
  C:1882H         LINE#         1808
  C:1882H         LINE#         1809
  C:188CH         LINE#         1810
  C:188CH         LINE#         1811
  C:1894H         LINE#         1812
  C:1894H         LINE#         1813
  C:1894H         LINE#         1814
  C:1896H         LINE#         1815
  C:189CH         LINE#         1816
  C:189CH         LINE#         1817
BL51 BANKED LINKER/LOCATER V6.22.2.0                                                  10/02/2020  15:54:40  PAGE 112


  C:18A2H         LINE#         1818
  C:18A2H         LINE#         1819
  C:18A2H         LINE#         1820
  C:18A5H         LINE#         1822
  C:18A5H         LINE#         1826
  C:18B8H         LINE#         1827
  C:18B8H         LINE#         1828
  C:18BEH         LINE#         1829
  C:18BFH         LINE#         1830
  C:18D7H         LINE#         1831
  C:18D7H         LINE#         1832
  C:18DDH         LINE#         1833
  C:18DDH         LINE#         1837
  C:18DDH         LINE#         1838
  C:18DEH         LINE#         1840
  C:18DEH         LINE#         1842
  C:18E7H         LINE#         1843
  C:18FBH         LINE#         1844
  C:18FBH         LINE#         1845
  C:18FBH         LINE#         1846
  C:18FDH         LINE#         1847
  C:18FDH         LINE#         1848
  C:190AH         LINE#         1850
  C:190AH         LINE#         1851
  C:190CH         LINE#         1854
  C:190CH         LINE#         1856
  C:1916H         LINE#         1857
  C:1916H         LINE#         1858
  C:191EH         LINE#         1859
  C:191EH         LINE#         1860
  C:191EH         LINE#         1861
  C:1920H         LINE#         1862
  C:1926H         LINE#         1863
  C:1926H         LINE#         1864
  C:192CH         LINE#         1865
  C:192CH         LINE#         1866
  C:192CH         LINE#         1867
  C:192FH         LINE#         1869
  C:192FH         LINE#         1872
  C:1942H         LINE#         1873
  C:1942H         LINE#         1874
  C:1948H         LINE#         1875
  C:1949H         LINE#         1876
  C:1961H         LINE#         1877
  C:1961H         LINE#         1878
  C:1967H         LINE#         1879
  C:1967H         LINE#         1882
  C:1967H         LINE#         1883
  C:1968H         LINE#         1885
  C:1968H         LINE#         1888
  C:196AH         LINE#         1889
  C:1973H         LINE#         1890
  C:1987H         LINE#         1891
  C:198CH         LINE#         1892
  C:1991H         LINE#         1893
  C:1996H         LINE#         1895
  C:199FH         LINE#         1897
BL51 BANKED LINKER/LOCATER V6.22.2.0                                                  10/02/2020  15:54:40  PAGE 113


  C:19ADH         LINE#         1898
  C:19ADH         LINE#         1900
  C:19ADH         LINE#         1901
  C:19AFH         LINE#         1909
  C:19AFH         LINE#         1911
  C:19B4H         LINE#         1912
  C:19BAH         LINE#         1913
  C:19BCH         LINE#         1914
  C:19BDH         LINE#         1923
  C:19BDH         LINE#         1925
  C:19C7H         LINE#         1926
  C:19C7H         LINE#         1927
  C:19CCH         LINE#         1928
  C:19CCH         LINE#         1930
  C:19D4H         LINE#         1931
  C:19D4H         LINE#         1932
  C:19D6H         LINE#         1933
  C:19DFH         LINE#         1935
  C:19DFH         LINE#         1937
  C:19DFH         LINE#         1940
  C:19E1H         LINE#         1941
  C:19E9H         LINE#         1942
  C:19E9H         LINE#         1943
  C:19EFH         LINE#         1944
  C:19EFH         LINE#         1945
  C:19EFH         LINE#         1946
  C:19F2H         LINE#         1948
  C:19F2H         LINE#         1954
  C:1A05H         LINE#         1955
  C:1A05H         LINE#         1956
  C:1A0BH         LINE#         1957
  C:1A0CH         LINE#         1958
  C:1A24H         LINE#         1959
  C:1A24H         LINE#         1961
  C:1A2AH         LINE#         1962
  C:1A2AH         LINE#         1966
  C:1A2AH         LINE#         1967
  C:1A2BH         LINE#         1969
  C:1A2BH         LINE#         1971
  C:1A2DH         LINE#         1972
  C:1A36H         LINE#         1973
  C:1A4AH         LINE#         1975
  C:1A4CH         LINE#         1976
  C:1A52H         LINE#         1977
  C:1A57H         LINE#         1979
  C:1A57H         LINE#         1982
  C:1A58H         LINE#         1986
  C:1A58H         LINE#         1987
  C:1A5FH         LINE#         1988
  C:1A5FH         LINE#         1989
  C:1A61H         LINE#         1997
  C:1A61H         LINE#         1999
  C:1A6BH         LINE#         2000
  C:1A6BH         LINE#         2001
  C:1A73H         LINE#         2002
  C:1A73H         LINE#         2003
  C:1A73H         LINE#         2004
BL51 BANKED LINKER/LOCATER V6.22.2.0                                                  10/02/2020  15:54:40  PAGE 114


  C:1A75H         LINE#         2005
  C:1A7BH         LINE#         2006
  C:1A7BH         LINE#         2007
  C:1A84H         LINE#         2008
  C:1A98H         LINE#         2009
  C:1A98H         LINE#         2010
  C:1A9BH         LINE#         2012
  C:1A9BH         LINE#         2015
  C:1AAEH         LINE#         2016
  C:1AAEH         LINE#         2017
  C:1AB4H         LINE#         2018
  C:1AB5H         LINE#         2019
  C:1ACDH         LINE#         2020
  C:1ACDH         LINE#         2021
  C:1AD3H         LINE#         2022
  C:1AD3H         LINE#         2024
  C:1AD3H         LINE#         2025
  C:1AD4H         LINE#         2027
  C:1AD4H         LINE#         2029
  C:1ADDH         LINE#         2032
  C:1AF0H         LINE#         2033
  C:1AF0H         LINE#         2035
  C:1B09H         LINE#         2036
  C:1B16H         LINE#         2037
  C:1B16H         LINE#         2038
  C:1B16H         LINE#         2039
  C:1B16H         LINE#         2040
  C:1B1EH         LINE#         2041
  C:1B2FH         LINE#         2042
  C:1B4AH         LINE#         2043
  C:1B4DH         LINE#         2044
  C:1B4DH         LINE#         2045
  C:1B50H         LINE#         2046
  C:1B50H         LINE#         2047
  C:1B53H         LINE#         2048
  C:1B53H         LINE#         2049
  C:1B55H         LINE#         2050
  C:1B55H         LINE#         2051
  C:1B5FH         LINE#         2052
  C:1B5FH         LINE#         2053
  C:1B67H         LINE#         2054
  C:1B67H         LINE#         2055
  C:1B67H         LINE#         2056
  C:1B69H         LINE#         2057
  C:1B6FH         LINE#         2058
  C:1B6FH         LINE#         2059
  C:1B78H         LINE#         2060
  C:1B8CH         LINE#         2061
  C:1B8CH         LINE#         2062
  C:1B8FH         LINE#         2064
  C:1B8FH         LINE#         2068
  C:1BA2H         LINE#         2069
  C:1BA2H         LINE#         2070
  C:1BA8H         LINE#         2071
  C:1BA9H         LINE#         2072
  C:1BC1H         LINE#         2073
  C:1BC1H         LINE#         2074
BL51 BANKED LINKER/LOCATER V6.22.2.0                                                  10/02/2020  15:54:40  PAGE 115


  C:1BC1H         LINE#         2075
  C:1BC1H         LINE#         2077
  C:1BC1H         LINE#         2078
  C:1BC4H         LINE#         2080
  C:1BC4H         LINE#         2081
  C:1BD2H         LINE#         2082
  C:1BD2H         LINE#         2083
  C:1BD3H         LINE#         2084
  C:1BD3H         LINE#         2085
  C:1BD6H         LINE#         2086
  C:1BDCH         LINE#         2087
  C:1BDDH         LINE#         2088
  C:1BDDH         LINE#         2089
  C:1BE0H         LINE#         2090
  C:1BE0H         LINE#         2091
  C:1BE2H         LINE#         2092
  C:1BE2H         LINE#         2093
  C:1BECH         LINE#         2094
  C:1BECH         LINE#         2095
  C:1BF4H         LINE#         2096
  C:1BF4H         LINE#         2097
  C:1BF4H         LINE#         2098
  C:1BF6H         LINE#         2099
  C:1BFCH         LINE#         2100
  C:1BFCH         LINE#         2101
  C:1C05H         LINE#         2102
  C:1C19H         LINE#         2103
  C:1C19H         LINE#         2104
  C:1C1BH         LINE#         2106
  C:1C1BH         LINE#         2110
  C:1C2EH         LINE#         2111
  C:1C2EH         LINE#         2112
  C:1C34H         LINE#         2113
  C:1C35H         LINE#         2114
  C:1C4DH         LINE#         2115
  C:1C4DH         LINE#         2116
  C:1C53H         LINE#         2117
  C:1C53H         LINE#         2119
  C:1C53H         LINE#         2120
  C:1C54H         LINE#         2122
  C:1C54H         LINE#         2123
  C:1C5AH         LINE#         2124
  C:1C5AH         LINE#         2125
  C:1C5BH         LINE#         2126
  C:1C5BH         LINE#         2127
  C:1C5EH         LINE#         2128
  C:1C5EH         LINE#         2129
  C:1C60H         LINE#         2130
  C:1C60H         LINE#         2131
  C:1C6AH         LINE#         2132
  C:1C6AH         LINE#         2133
  C:1C72H         LINE#         2134
  C:1C72H         LINE#         2135
  C:1C72H         LINE#         2136
  C:1C74H         LINE#         2137
  C:1C7AH         LINE#         2138
  C:1C7AH         LINE#         2139
BL51 BANKED LINKER/LOCATER V6.22.2.0                                                  10/02/2020  15:54:40  PAGE 116


  C:1C83H         LINE#         2140
  C:1C97H         LINE#         2141
  C:1C97H         LINE#         2142
  C:1C99H         LINE#         2144
  C:1C99H         LINE#         2148
  C:1CACH         LINE#         2149
  C:1CACH         LINE#         2150
  C:1CB2H         LINE#         2151
  C:1CB3H         LINE#         2152
  C:1CCBH         LINE#         2153
  C:1CCBH         LINE#         2154
  C:1CD1H         LINE#         2155
  C:1CD1H         LINE#         2157
  C:1CD1H         LINE#         2158
  C:1CD2H         LINE#         2160
  C:1CD2H         LINE#         2161
  C:1CD8H         LINE#         2162
  C:1CD8H         LINE#         2163
  C:1CD9H         LINE#         2164
  C:1CD9H         LINE#         2165
  C:1CDCH         LINE#         2166
  C:1CE2H         LINE#         2167
  C:1CE3H         LINE#         2172
  C:1CE3H         LINE#         2173
  C:1CE8H         LINE#         2174
  C:1CE8H         LINE#         2175
  C:1CEAH         LINE#         2178
  C:1CEAH         LINE#         2179
  C:1CF4H         LINE#         2180
  C:1CF4H         LINE#         2181
  C:1CFCH         LINE#         2182
  C:1CFCH         LINE#         2183
  C:1CFCH         LINE#         2184
  C:1CFEH         LINE#         2185
  C:1D04H         LINE#         2186
  C:1D04H         LINE#         2188
  C:1D04H         LINE#         2189
  C:1D06H         LINE#         2191
  C:1D06H         LINE#         2194
  C:1D19H         LINE#         2195
  C:1D19H         LINE#         2196
  C:1D1FH         LINE#         2197
  C:1D20H         LINE#         2198
  C:1D35H         LINE#         2199
  C:1D35H         LINE#         2200
  C:1D3BH         LINE#         2201
  C:1D3BH         LINE#         2203
  C:1D3BH         LINE#         2205
  C:1D3CH         LINE#         2207
  C:1D3CH         LINE#         2208
  C:1D3EH         LINE#         2209
  C:1D44H         LINE#         2210
  C:1D44H         LINE#         2212
  C:1D45H         LINE#         2214
  C:1D45H         LINE#         2215
  C:1D4AH         LINE#         2216
  C:1D50H         LINE#         2218
BL51 BANKED LINKER/LOCATER V6.22.2.0                                                  10/02/2020  15:54:40  PAGE 117


  C:1D50H         LINE#         2219
  C:1D5AH         LINE#         2220
  C:1D5AH         LINE#         2221
  C:1D5FH         LINE#         2222
  C:1D5FH         LINE#         2223
  C:1D65H         LINE#         2224
  C:1D66H         LINE#         2225
  C:1D67H         LINE#         2226
  C:1D69H         LINE#         2228
  C:1D69H         LINE#         2229
  C:1D6AH         LINE#         2230
  C:1D6AH         LINE#         2232
  C:1D6CH         LINE#         2238
  C:1D6CH         LINE#         2239
  C:1D71H         LINE#         2240
  C:1D71H         LINE#         2242
  C:1D71H         LINE#         2243
  -------         ENDPROC       SECUENCIAEXPEDIDOR
  -------         ENDMOD        VERIFICADOR

  -------         MODULE        LINTECH
  C:0000H         SYMBOL        _ICE_DUMMY_
  C:92A0H         PUBLIC        _Inicializa
  C:89A6H         PUBLIC        _RD_MF
  C:8F63H         PUBLIC        Dwload_EEprom
  C:9599H         PUBLIC        _Card_Insercion
  C:8216H         PUBLIC        _Mov_Card
  C:61BCH         PUBLIC        _WR_MF
  C:962AH         PUBLIC        LoadVerify_EEprom
  C:9A8FH         PUBLIC        Unique_Identifier_UID
  C:9EA8H         PUBLIC        Power_off
  C:9F28H         PUBLIC        _Check_Status
  C:9E28H         PUBLIC        Aut_Card_check_Status
  -------         PROC          _INICIALIZA
  X:0002H         SYMBOL        TipoMovimiento
  -------         DO            
  D:0003H         SYMBOL        j
  X:0003H         SYMBOL        bcc
  X:0004H         SYMBOL        g_scArrTxComSoft
  -------         ENDDO         
  C:92A0H         LINE#         133
  C:92A5H         LINE#         134
  C:92A5H         LINE#         137
  C:92A8H         LINE#         138
  C:92BEH         LINE#         139
  C:92BEH         LINE#         141
  C:92C7H         LINE#         143
  C:92CDH         LINE#         144
  C:92D0H         LINE#         145
  C:92D2H         LINE#         146
  C:92D6H         LINE#         147
  C:92DAH         LINE#         148
  C:92DEH         LINE#         149
  C:92E6H         LINE#         150
  C:92EAH         LINE#         151
  C:92F6H         LINE#         152
  C:92F6H         LINE#         153
BL51 BANKED LINKER/LOCATER V6.22.2.0                                                  10/02/2020  15:54:40  PAGE 118


  C:930AH         LINE#         154
  C:930DH         LINE#         155
  C:9315H         LINE#         156
  C:9317H         LINE#         157
  C:931CH         LINE#         158
  C:932BH         LINE#         159
  C:9336H         LINE#         160
  C:933CH         LINE#         161
  C:933CH         LINE#         162
  -------         ENDPROC       _INICIALIZA
  -------         PROC          _CHECK_STATUS
  X:0011H         SYMBOL        Detalle
  -------         DO            
  D:0006H         SYMBOL        j
  D:0007H         SYMBOL        bcc
  X:0012H         SYMBOL        g_scArrTxComSoft
  -------         ENDDO         
  C:9F28H         LINE#         171
  C:9F2DH         LINE#         172
  C:9F2DH         LINE#         175
  C:9F36H         LINE#         177
  C:9F38H         LINE#         179
  C:9F3EH         LINE#         180
  C:9F41H         LINE#         181
  C:9F43H         LINE#         182
  C:9F47H         LINE#         183
  C:9F4BH         LINE#         184
  C:9F4FH         LINE#         185
  C:9F57H         LINE#         186
  C:9F5BH         LINE#         187
  C:9F67H         LINE#         188
  C:9F67H         LINE#         189
  C:9F74H         LINE#         190
  C:9F77H         LINE#         191
  C:9F7CH         LINE#         192
  C:9F7EH         LINE#         193
  C:9F83H         LINE#         194
  C:9F92H         LINE#         195
  C:9F9DH         LINE#         196
  C:9FA3H         LINE#         197
  -------         ENDPROC       _CHECK_STATUS
  -------         PROC          _CARD_INSERCION
  D:0007H         SYMBOL        Tipo
  -------         DO            
  D:0006H         SYMBOL        j
  D:0007H         SYMBOL        bcc
  X:0011H         SYMBOL        g_scArrTxComSoft
  -------         ENDDO         
  C:9599H         LINE#         205
  C:9599H         LINE#         206
  C:9599H         LINE#         209
  C:95A6H         LINE#         210
  C:95A6H         LINE#         211
  C:95ADH         LINE#         212
  C:95B3H         LINE#         213
  C:95B5H         LINE#         215
  C:95B5H         LINE#         217
BL51 BANKED LINKER/LOCATER V6.22.2.0                                                  10/02/2020  15:54:40  PAGE 119


  C:95BCH         LINE#         218
  C:95C2H         LINE#         220
  C:95C2H         LINE#         222
  C:95C4H         LINE#         224
  C:95CAH         LINE#         225
  C:95CDH         LINE#         226
  C:95CFH         LINE#         227
  C:95D3H         LINE#         228
  C:95D7H         LINE#         229
  C:95DBH         LINE#         231
  C:95E1H         LINE#         232
  C:95EDH         LINE#         233
  C:95EDH         LINE#         234
  C:95FAH         LINE#         235
  C:95FDH         LINE#         237
  C:9602H         LINE#         239
  C:9604H         LINE#         240
  C:9609H         LINE#         241
  C:9618H         LINE#         242
  C:9623H         LINE#         243
  C:9629H         LINE#         244
  -------         ENDPROC       _CARD_INSERCION
  -------         PROC          _MOV_CARD
  X:0011H         SYMBOL        Posicion
  -------         DO            
  D:0003H         SYMBOL        j
  X:0012H         SYMBOL        bcc
  X:0013H         SYMBOL        g_scArrTxComSoft
  -------         ENDDO         
  C:8216H         LINE#         255
  C:821BH         LINE#         256
  C:821BH         LINE#         259
  C:821EH         LINE#         261
  C:823EH         LINE#         262
  C:823EH         LINE#         263
  C:8245H         LINE#         264
  C:8245H         LINE#         265
  C:824BH         LINE#         266
  C:824DH         LINE#         267
  C:8254H         LINE#         268
  C:8254H         LINE#         269
  C:825AH         LINE#         270
  C:825CH         LINE#         271
  C:8263H         LINE#         272
  C:8263H         LINE#         273
  C:8269H         LINE#         274
  C:826BH         LINE#         275
  C:8272H         LINE#         276
  C:8272H         LINE#         277
  C:8278H         LINE#         278
  C:827AH         LINE#         279
  C:8281H         LINE#         280
  C:8281H         LINE#         281
  C:828AH         LINE#         282
  C:828AH         LINE#         284
  C:8290H         LINE#         285
  C:8293H         LINE#         286
BL51 BANKED LINKER/LOCATER V6.22.2.0                                                  10/02/2020  15:54:40  PAGE 120


  C:8295H         LINE#         287
  C:8299H         LINE#         288
  C:829DH         LINE#         289
  C:82A1H         LINE#         290
  C:82A9H         LINE#         291
  C:82ADH         LINE#         292
  C:82B9H         LINE#         293
  C:82B9H         LINE#         294
  C:82CDH         LINE#         295
  C:82D0H         LINE#         296
  C:82D8H         LINE#         297
  C:82DAH         LINE#         298
  C:82DFH         LINE#         299
  C:82EEH         LINE#         300
  C:82F9H         LINE#         301
  C:82FFH         LINE#         302
  C:82FFH         LINE#         304
  -------         ENDPROC       _MOV_CARD
  -------         PROC          AUT_CARD_CHECK_STATUS
  -------         DO            
  D:0003H         SYMBOL        j
  X:0011H         SYMBOL        bcc
  X:0012H         SYMBOL        g_scArrTxComSoft
  -------         ENDDO         
  C:9E28H         LINE#         310
  C:9E28H         LINE#         311
  C:9E28H         LINE#         314
  C:9E2DH         LINE#         316
  C:9E36H         LINE#         318
  C:9E3CH         LINE#         319
  C:9E3FH         LINE#         320
  C:9E41H         LINE#         321
  C:9E45H         LINE#         322
  C:9E49H         LINE#         323
  C:9E4DH         LINE#         324
  C:9E51H         LINE#         325
  C:9E55H         LINE#         326
  C:9E61H         LINE#         327
  C:9E61H         LINE#         328
  C:9E75H         LINE#         329
  C:9E78H         LINE#         330
  C:9E80H         LINE#         331
  C:9E82H         LINE#         332
  C:9E87H         LINE#         333
  C:9E96H         LINE#         334
  C:9EA1H         LINE#         335
  C:9EA7H         LINE#         336
  -------         ENDPROC       AUT_CARD_CHECK_STATUS
  -------         PROC          DWLOAD_EEPROM
  -------         DO            
  D:0003H         SYMBOL        j
  X:0002H         SYMBOL        bcc
  X:0003H         SYMBOL        g_scArrTxComSoft
  -------         ENDDO         
  C:8F63H         LINE#         342
  C:8F63H         LINE#         343
  C:8F63H         LINE#         346
BL51 BANKED LINKER/LOCATER V6.22.2.0                                                  10/02/2020  15:54:40  PAGE 121


  C:8F68H         LINE#         347
  C:8F71H         LINE#         349
  C:8F77H         LINE#         350
  C:8F7AH         LINE#         351
  C:8F7CH         LINE#         352
  C:8F80H         LINE#         353
  C:8F84H         LINE#         354
  C:8F88H         LINE#         355
  C:8F8CH         LINE#         356
  C:8F8FH         LINE#         357
  C:8F93H         LINE#         358
  C:8F96H         LINE#         359
  C:8F99H         LINE#         360
  C:8F9DH         LINE#         361
  C:8FA1H         LINE#         362
  C:8FA5H         LINE#         363
  C:8FA9H         LINE#         364
  C:8FADH         LINE#         365
  C:8FB1H         LINE#         366
  C:8FB5H         LINE#         367
  C:8FB9H         LINE#         369
  C:8FC5H         LINE#         370
  C:8FC5H         LINE#         371
  C:8FD9H         LINE#         372
  C:8FDCH         LINE#         373
  C:8FE4H         LINE#         374
  C:8FE6H         LINE#         375
  C:8FEBH         LINE#         376
  C:8FFAH         LINE#         377
  C:9005H         LINE#         378
  C:900BH         LINE#         379
  -------         ENDPROC       DWLOAD_EEPROM
  -------         PROC          LOADVERIFY_EEPROM
  -------         DO            
  D:0003H         SYMBOL        j
  X:0011H         SYMBOL        bcc
  X:0012H         SYMBOL        g_scArrTxComSoft
  -------         ENDDO         
  C:962AH         LINE#         385
  C:962AH         LINE#         386
  C:962AH         LINE#         389
  C:962FH         LINE#         390
  C:9638H         LINE#         393
  C:963EH         LINE#         394
  C:9641H         LINE#         395
  C:9643H         LINE#         396
  C:9647H         LINE#         397
  C:964BH         LINE#         398
  C:964FH         LINE#         399
  C:9653H         LINE#         400
  C:9656H         LINE#         401
  C:965AH         LINE#         402
  C:965DH         LINE#         403
  C:9660H         LINE#         404
  C:9664H         LINE#         405
  C:9668H         LINE#         409
  C:9674H         LINE#         410
BL51 BANKED LINKER/LOCATER V6.22.2.0                                                  10/02/2020  15:54:40  PAGE 122


  C:9674H         LINE#         411
  C:9688H         LINE#         412
  C:968BH         LINE#         413
  C:9693H         LINE#         414
  C:9695H         LINE#         415
  C:969AH         LINE#         416
  C:96A9H         LINE#         417
  C:96B4H         LINE#         418
  C:96BAH         LINE#         420
  -------         ENDPROC       LOADVERIFY_EEPROM
  -------         PROC          _RD_MF
  X:0011H         SYMBOL        Sector
  X:0012H         SYMBOL        Bloque
  -------         DO            
  D:0003H         SYMBOL        j
  X:0013H         SYMBOL        bcc
  X:0014H         SYMBOL        g_scArrTxComSoft
  -------         ENDDO         
  C:89A6H         LINE#         426
  C:89AEH         LINE#         427
  C:89AEH         LINE#         431
  C:89B1H         LINE#         433
  C:89BAH         LINE#         434
  C:89C2H         LINE#         436
  C:89CBH         LINE#         437
  C:89D3H         LINE#         438
  C:89DCH         LINE#         441
  C:89E2H         LINE#         442
  C:89E5H         LINE#         443
  C:89E7H         LINE#         444
  C:89EBH         LINE#         445
  C:89EFH         LINE#         446
  C:89F3H         LINE#         447
  C:89F7H         LINE#         448
  C:89FAH         LINE#         449
  C:89FEH         LINE#         450
  C:8A06H         LINE#         451
  C:8A0EH         LINE#         452
  C:8A12H         LINE#         453
  C:8A16H         LINE#         455
  C:8A22H         LINE#         456
  C:8A22H         LINE#         457
  C:8A36H         LINE#         458
  C:8A39H         LINE#         459
  C:8A41H         LINE#         462
  C:8A43H         LINE#         463
  C:8A48H         LINE#         464
  C:8A57H         LINE#         465
  C:8A62H         LINE#         466
  C:8A68H         LINE#         468
  -------         ENDPROC       _RD_MF
  -------         PROC          _WR_MF
  X:0011H         SYMBOL        Sector
  X:0012H         SYMBOL        Bloque
  X:0013H         SYMBOL        buffer
  -------         DO            
  X:0016H         SYMBOL        j
BL51 BANKED LINKER/LOCATER V6.22.2.0                                                  10/02/2020  15:54:40  PAGE 123


  X:0017H         SYMBOL        bcc
  X:0018H         SYMBOL        g_scArrTxComSoft
  -------         ENDDO         
  C:61BCH         LINE#         475
  C:61CDH         LINE#         477
  C:61CDH         LINE#         480
  C:61D2H         LINE#         482
  C:61DBH         LINE#         483
  C:61E3H         LINE#         485
  C:61ECH         LINE#         486
  C:61F4H         LINE#         487
  C:61FDH         LINE#         489
  C:6203H         LINE#         490
  C:6206H         LINE#         491
  C:6208H         LINE#         492
  C:620CH         LINE#         494
  C:6210H         LINE#         495
  C:6214H         LINE#         496
  C:6218H         LINE#         497
  C:621BH         LINE#         498
  C:621FH         LINE#         499
  C:6228H         LINE#         500
  C:6230H         LINE#         501
  C:6234H         LINE#         503
  C:6239H         LINE#         504
  C:6239H         LINE#         509
  C:623CH         LINE#         510
  C:623EH         LINE#         511
  C:6240H         LINE#         512
  C:6242H         LINE#         513
  C:6244H         LINE#         518
  C:6246H         LINE#         519
  C:6248H         LINE#         520
  C:624AH         LINE#         525
  C:625FH         LINE#         526
  C:625FH         LINE#         527
  C:6260H         LINE#         528
  C:6262H         LINE#         530
  C:6262H         LINE#         531
  C:6277H         LINE#         532
  C:6277H         LINE#         536
  C:6281H         LINE#         541
  C:6294H         LINE#         542
  C:6294H         LINE#         543
  C:6294H         LINE#         544
  C:6294H         LINE#         546
  C:6294H         LINE#         547
  C:629AH         LINE#         548
  C:629AH         LINE#         553
  C:629FH         LINE#         554
  C:62A1H         LINE#         555
  C:62A3H         LINE#         556
  C:62A5H         LINE#         557
  C:62A7H         LINE#         559
  C:62A9H         LINE#         561
  C:62A9H         LINE#         562
  C:62BDH         LINE#         563
BL51 BANKED LINKER/LOCATER V6.22.2.0                                                  10/02/2020  15:54:40  PAGE 124


  C:62BDH         LINE#         564
  C:62C9H         LINE#         565
  C:62D1H         LINE#         566
  C:62D1H         LINE#         571
  C:62D7H         LINE#         573
  C:62EAH         LINE#         574
  C:62EAH         LINE#         575
  C:62FFH         LINE#         576
  C:6307H         LINE#         577
  C:630FH         LINE#         580
  C:6311H         LINE#         581
  C:6316H         LINE#         582
  C:6325H         LINE#         583
  C:6330H         LINE#         584
  C:6336H         LINE#         586
  -------         ENDPROC       _WR_MF
  -------         PROC          UNIQUE_IDENTIFIER_UID
  -------         DO            
  D:0003H         SYMBOL        j
  X:0011H         SYMBOL        bcc
  X:0012H         SYMBOL        g_scArrTxComSoft
  -------         ENDDO         
  C:9A8FH         LINE#         591
  C:9A8FH         LINE#         592
  C:9A8FH         LINE#         595
  C:9A94H         LINE#         597
  C:9A9DH         LINE#         599
  C:9AA3H         LINE#         600
  C:9AA6H         LINE#         601
  C:9AA8H         LINE#         602
  C:9AACH         LINE#         603
  C:9AB0H         LINE#         604
  C:9AB4H         LINE#         605
  C:9AB8H         LINE#         606
  C:9ABCH         LINE#         607
  C:9AC0H         LINE#         608
  C:9AC4H         LINE#         609
  C:9AD0H         LINE#         610
  C:9AD0H         LINE#         611
  C:9AE4H         LINE#         612
  C:9AE7H         LINE#         613
  C:9AEFH         LINE#         614
  C:9AF1H         LINE#         615
  C:9AF6H         LINE#         616
  C:9B05H         LINE#         617
  C:9B10H         LINE#         618
  C:9B16H         LINE#         619
  -------         ENDPROC       UNIQUE_IDENTIFIER_UID
  -------         PROC          POWER_OFF
  -------         DO            
  D:0003H         SYMBOL        j
  X:0011H         SYMBOL        bcc
  X:0012H         SYMBOL        g_scArrTxComSoft
  -------         ENDDO         
  C:9EA8H         LINE#         620
  C:9EA8H         LINE#         621
  C:9EA8H         LINE#         624
BL51 BANKED LINKER/LOCATER V6.22.2.0                                                  10/02/2020  15:54:40  PAGE 125


  C:9EADH         LINE#         626
  C:9EB6H         LINE#         628
  C:9EBCH         LINE#         629
  C:9EBFH         LINE#         630
  C:9EC1H         LINE#         631
  C:9EC5H         LINE#         632
  C:9EC9H         LINE#         633
  C:9ECDH         LINE#         634
  C:9ED1H         LINE#         635
  C:9ED5H         LINE#         636
  C:9EE1H         LINE#         637
  C:9EE1H         LINE#         638
  C:9EF5H         LINE#         639
  C:9EF8H         LINE#         640
  C:9F00H         LINE#         641
  C:9F02H         LINE#         642
  C:9F07H         LINE#         643
  C:9F16H         LINE#         644
  C:9F21H         LINE#         645
  C:9F27H         LINE#         648
  -------         ENDPROC       POWER_OFF
  -------         ENDMOD        LINTECH

  -------         MODULE        ?C?FPADD
  C:1D79H         PUBLIC        ?C?FPADD
  C:1D75H         PUBLIC        ?C?FPSUB
  -------         ENDMOD        ?C?FPADD

  -------         MODULE        ?C?FPMUL
  C:1E6AH         PUBLIC        ?C?FPMUL
  -------         ENDMOD        ?C?FPMUL

  -------         MODULE        ?C?FCAST
  C:1F7AH         PUBLIC        ?C?FCASTC
  C:1F75H         PUBLIC        ?C?FCASTI
  C:1F70H         PUBLIC        ?C?FCASTL
  -------         ENDMOD        ?C?FCAST

  -------         MODULE        ?C?CASTF
  C:1FAEH         PUBLIC        ?C?CASTF
  -------         ENDMOD        ?C?CASTF

  -------         MODULE        PRINTF
  X:00B0H         PUBLIC        ?_PRINTF?BYTE
  X:00B0H         PUBLIC        ?_SPRINTF?BYTE
  C:35C9H         PUBLIC        _PRINTF
  C:35C3H         PUBLIC        _SPRINTF
  -------         ENDMOD        PRINTF

  -------         MODULE        POW
  X:0046H         PUBLIC        ?_pow?BYTE
  C:661FH         PUBLIC        _pow
  -------         ENDMOD        POW

  -------         MODULE        ?C?CHKFLOAT
  C:202FH         PUBLIC        ?C?CHKFLOAT
  -------         ENDMOD        ?C?CHKFLOAT
BL51 BANKED LINKER/LOCATER V6.22.2.0                                                  10/02/2020  15:54:40  PAGE 126



  -------         MODULE        ?C?FPCMP
  C:204BH         PUBLIC        ?C?FPCMP
  C:2049H         PUBLIC        ?C?FPCMP3
  -------         ENDMOD        ?C?FPCMP

  -------         MODULE        ?C?FPNEG
  C:20C2H         PUBLIC        ?C?FPNEG
  -------         ENDMOD        ?C?FPNEG

  -------         MODULE        ?C?FPROUND
  C:20D3H         PUBLIC        ?C?FPROUND
  -------         ENDMOD        ?C?FPROUND

  -------         MODULE        ?C?FPCONVERT
  C:2110H         PUBLIC        ?C?FPCONVERT
  -------         ENDMOD        ?C?FPCONVERT

  -------         MODULE        EXP
  C:9411H         PUBLIC        _EXP
  -------         ENDMOD        EXP

  -------         MODULE        LOG
  C:70B5H         PUBLIC        _LOG
  C:70B1H         PUBLIC        _LOG10
  -------         ENDMOD        LOG

  -------         MODULE        ?C?FPDIV
  C:2218H         PUBLIC        ?C?FPDIV
  -------         ENDMOD        ?C?FPDIV

  -------         MODULE        ?C?FTNPWR
  C:22E5H         PUBLIC        ?C?FTNPWR
  -------         ENDMOD        ?C?FTNPWR

  -------         MODULE        ?C?COPY
  C:2442H         PUBLIC        ?C?COPY
  -------         ENDMOD        ?C?COPY

  -------         MODULE        ?C?CLDPTR
  C:2468H         PUBLIC        ?C?CLDPTR
  -------         ENDMOD        ?C?CLDPTR

  -------         MODULE        ?C?CLDOPTR
  C:2481H         PUBLIC        ?C?CLDOPTR
  -------         ENDMOD        ?C?CLDOPTR

  -------         MODULE        ?C?CSTPTR
  C:24AEH         PUBLIC        ?C?CSTPTR
  -------         ENDMOD        ?C?CSTPTR

  -------         MODULE        ?C?CSTOPTR
  C:24C0H         PUBLIC        ?C?CSTOPTR
  -------         ENDMOD        ?C?CSTOPTR

  -------         MODULE        ?C?IMUL
  C:24E2H         PUBLIC        ?C?IMUL
BL51 BANKED LINKER/LOCATER V6.22.2.0                                                  10/02/2020  15:54:40  PAGE 127


  -------         ENDMOD        ?C?IMUL

  -------         MODULE        ?C?UIDIV
  C:24F4H         PUBLIC        ?C?UIDIV
  -------         ENDMOD        ?C?UIDIV

  -------         MODULE        ?C?IILDX
  C:2549H         PUBLIC        ?C?IILDX
  -------         ENDMOD        ?C?IILDX

  -------         MODULE        ?C?LNEG
  C:255FH         PUBLIC        ?C?LNEG
  -------         ENDMOD        ?C?LNEG

  -------         MODULE        ?C?ULCMP
  C:256DH         PUBLIC        ?C?ULCMP
  -------         ENDMOD        ?C?ULCMP

  -------         MODULE        ?C?LLDCODE
  C:257EH         PUBLIC        ?C?LLDCODE
  -------         ENDMOD        ?C?LLDCODE

  -------         MODULE        ?C?LLDXDATA0
  C:258EH         PUBLIC        ?C?LLDXDATA0
  -------         ENDMOD        ?C?LLDXDATA0

  -------         MODULE        ?C?LLDCODE0
  C:259AH         PUBLIC        ?C?LLDCODE0
  -------         ENDMOD        ?C?LLDCODE0

  -------         MODULE        ?C?LSTXDATA
  C:25AAH         PUBLIC        ?C?LSTXDATA
  -------         ENDMOD        ?C?LSTXDATA

  -------         MODULE        ?C?LSTKXDATA
  C:25B6H         PUBLIC        ?C?LSTKXDATA
  -------         ENDMOD        ?C?LSTKXDATA

  -------         MODULE        ?C?PLDIXDATA
  C:25E7H         PUBLIC        ?C?PLDIXDATA
  -------         ENDMOD        ?C?PLDIXDATA

  -------         MODULE        ?C?PSTXDATA
  C:25FEH         PUBLIC        ?C?PSTXDATA
  -------         ENDMOD        ?C?PSTXDATA

  -------         MODULE        ?C?CCASE
  C:2607H         PUBLIC        ?C?CCASE
  -------         ENDMOD        ?C?CCASE

  -------         MODULE        STRCAT
  X:005AH         PUBLIC        ?_strcat?BYTE
  C:A248H         PUBLIC        _strcat
  -------         ENDMOD        STRCAT

  -------         MODULE        ?C?STRCMP
  C:27ABH         PUBLIC        ?C?STRCMP
BL51 BANKED LINKER/LOCATER V6.22.2.0                                                  10/02/2020  15:54:40  PAGE 128


  -------         ENDMOD        ?C?STRCMP

  -------         MODULE        ?C?STRCPY
  C:2894H         PUBLIC        ?C?STRCPY
  -------         ENDMOD        ?C?STRCPY

  -------         MODULE        STRLEN
  C:000EH         PUBLIC        _STRLEN
  -------         ENDMOD        STRLEN

  -------         MODULE        STRTOK
  X:0078H         PUBLIC        ?_strtok?BYTE
  C:8300H         PUBLIC        _strtok
  -------         ENDMOD        STRTOK

  -------         MODULE        ATOI
  C:84C2H         PUBLIC        _atoi
  -------         ENDMOD        ATOI

  -------         MODULE        MALLOC
  C:874AH         PUBLIC        _malloc
  -------         ENDMOD        MALLOC

  -------         MODULE        INIT_MEM
  X:027AH         PUBLIC        __mem_avail__
  C:A9E5H         PUBLIC        _init_mempool
  -------         ENDMOD        INIT_MEM

  -------         MODULE        FREE
  C:6CCDH         PUBLIC        _free
  -------         ENDMOD        FREE

  -------         MODULE        ?C?ILDIX
  C:28B1H         PUBLIC        ?C?ILDIX
  -------         ENDMOD        ?C?ILDIX

  -------         MODULE        ISDIGIT
  C:ADFBH         PUBLIC        _isdigit
  -------         ENDMOD        ISDIGIT

  -------         MODULE        ISSPACE
  C:AD5BH         PUBLIC        _isspace
  -------         ENDMOD        ISSPACE

  -------         MODULE        STRSPN
  X:007EH         PUBLIC        ?_strspn?BYTE
  C:9C23H         PUBLIC        _strspn
  -------         ENDMOD        STRSPN

  -------         MODULE        STRPBRK
  X:007EH         PUBLIC        ?_strpbrk?BYTE
  C:9CA7H         PUBLIC        _strpbrk
  -------         ENDMOD        STRPBRK

Program Size: data=128.7 xdata=655 code=44668
LINK/LOCATE RUN COMPLETE.  0 WARNING(S),  0 ERROR(S)
