BL51 BANKED LINKER/LOCATER V6.22.2.0                                                    08/31/2020  09:26:19  PAGE 1


BL51 BANKED LINKER/LOCATER V6.22.2.0, INVOKED BY:
C:\KEIL_V5\C51\BIN\BL51.EXE .\Objects\main.obj, .\Objects\Accescan.obj, .\Objects\Clock.obj, .\Objects\delay.obj, .\Obje
>> cts\eeprom.obj, .\Objects\io_sensores.obj, .\Objects\pantallas.obj, .\Objects\prog.obj, .\Objects\pto_paralelo.obj, .
>> \Objects\tibbo.obj, .\Objects\uart.obj, .\Objects\verificador.obj, .\Objects\lintech.obj TO .\Objects\verificador_v_0
>> 1_raspberry PRINT (.\Listings\verificador_v_01_raspberry.m51) RAMSIZE (256)


MEMORY MODEL: LARGE WITH FLOATING POINT ARITHMETIC


INPUT MODULES INCLUDED:
  .\Objects\main.obj (MAIN)
  .\Objects\Accescan.obj (ACCESCAN)
  .\Objects\Clock.obj (CLOCK)
  .\Objects\delay.obj (DELAY)
  .\Objects\eeprom.obj (EEPROM)
  .\Objects\io_sensores.obj (IO_SENSORES)
  .\Objects\pantallas.obj (PANTALLAS)
  .\Objects\prog.obj (PROG)
  .\Objects\pto_paralelo.obj (PTO_PARALELO)
  .\Objects\tibbo.obj (TIBBO)
  .\Objects\uart.obj (UART)
  .\Objects\verificador.obj (VERIFICADOR)
  .\Objects\lintech.obj (LINTECH)
  C:\KEIL_V5\C51\LIB\C51FPL.LIB (?C?FPADD)
  C:\KEIL_V5\C51\LIB\C51FPL.LIB (?C?FPMUL)
  C:\KEIL_V5\C51\LIB\C51FPL.LIB (?C?FCAST)
  C:\KEIL_V5\C51\LIB\C51FPL.LIB (?C?CASTF)
  C:\KEIL_V5\C51\LIB\C51FPL.LIB (PRINTF)
  C:\KEIL_V5\C51\LIB\C51FPL.LIB (POW)
  C:\KEIL_V5\C51\LIB\C51FPL.LIB (?C?FPGETOPN)
  C:\KEIL_V5\C51\LIB\C51FPL.LIB (?C?CHKFLOAT)
  C:\KEIL_V5\C51\LIB\C51FPL.LIB (?C?FPCMP)
  C:\KEIL_V5\C51\LIB\C51FPL.LIB (?C?FPNEG)
  C:\KEIL_V5\C51\LIB\C51FPL.LIB (?C?FPROUND)
  C:\KEIL_V5\C51\LIB\C51FPL.LIB (?C?FPCONVERT)
  C:\KEIL_V5\C51\LIB\C51FPL.LIB (EXP)
  C:\KEIL_V5\C51\LIB\C51FPL.LIB (LOG)
  C:\KEIL_V5\C51\LIB\C51FPL.LIB (?C?FPDIV)
  C:\KEIL_V5\C51\LIB\C51FPL.LIB (?C?FTNPWR)
  C:\KEIL_V5\C51\LIB\C51FPL.LIB (?C?FPSERIES)
  C:\KEIL_V5\C51\LIB\C51L.LIB (?C_STARTUP)
  C:\KEIL_V5\C51\LIB\C51L.LIB (?C?COPY)
  C:\KEIL_V5\C51\LIB\C51L.LIB (?C?CLDPTR)
  C:\KEIL_V5\C51\LIB\C51L.LIB (?C?CLDOPTR)
  C:\KEIL_V5\C51\LIB\C51L.LIB (?C?CSTPTR)
  C:\KEIL_V5\C51\LIB\C51L.LIB (?C?CSTOPTR)
  C:\KEIL_V5\C51\LIB\C51L.LIB (?C?IMUL)
  C:\KEIL_V5\C51\LIB\C51L.LIB (?C?UIDIV)
  C:\KEIL_V5\C51\LIB\C51L.LIB (?C?IILDX)
  C:\KEIL_V5\C51\LIB\C51L.LIB (?C?LNEG)
  C:\KEIL_V5\C51\LIB\C51L.LIB (?C?ULCMP)
  C:\KEIL_V5\C51\LIB\C51L.LIB (?C?LLDCODE)
  C:\KEIL_V5\C51\LIB\C51L.LIB (?C?LLDXDATA0)
  C:\KEIL_V5\C51\LIB\C51L.LIB (?C?LLDCODE0)
  C:\KEIL_V5\C51\LIB\C51L.LIB (?C?LSTXDATA)
  C:\KEIL_V5\C51\LIB\C51L.LIB (?C?LSTKXDATA)
  C:\KEIL_V5\C51\LIB\C51L.LIB (?C?PLDIXDATA)
BL51 BANKED LINKER/LOCATER V6.22.2.0                                                  08/31/2020  09:26:19  PAGE 2


  C:\KEIL_V5\C51\LIB\C51L.LIB (?C?PSTXDATA)
  C:\KEIL_V5\C51\LIB\C51L.LIB (?C?CCASE)
  C:\KEIL_V5\C51\LIB\C51L.LIB (STRCAT)
  C:\KEIL_V5\C51\LIB\C51L.LIB (?C?STRCMP)
  C:\KEIL_V5\C51\LIB\C51L.LIB (?C?STRCPY)
  C:\KEIL_V5\C51\LIB\C51L.LIB (STRLEN)
  C:\KEIL_V5\C51\LIB\C51L.LIB (STRTOK)
  C:\KEIL_V5\C51\LIB\C51L.LIB (ATOI)
  C:\KEIL_V5\C51\LIB\C51L.LIB (?C_INIT)
  C:\KEIL_V5\C51\LIB\C51L.LIB (?C?ILDIX)
  C:\KEIL_V5\C51\LIB\C51L.LIB (ISDIGIT)
  C:\KEIL_V5\C51\LIB\C51L.LIB (ISSPACE)
  C:\KEIL_V5\C51\LIB\C51L.LIB (STRSPN)
  C:\KEIL_V5\C51\LIB\C51L.LIB (STRPBRK)


LINK MAP OF MODULE:  .\Objects\verificador_v_01_raspberry (MAIN)


            TYPE    BASE      LENGTH    RELOCATION   SEGMENT NAME
            -----------------------------------------------------

            * * * * * * *   D A T A   M E M O R Y   * * * * * * *
            REG     0000H     0008H     ABSOLUTE     "REG BANK 0"
            DATA    0008H     0005H     UNIT         _DATA_GROUP_
            DATA    000DH     0004H     UNIT         ?DT?UART
                    0011H     000FH                  *** GAP ***
            BIT     0020H.0   0001H.1   UNIT         _BIT_GROUP_
            BIT     0021H.1   0000H.2   UNIT         ?BI?MAIN
            BIT     0021H.3   0000H.2   UNIT         ?BI?UART
            BIT     0021H.5   0000H.1   UNIT         ?BI?EEPROM
                    0021H.6   0000H.2                *** GAP ***
            IDATA   0022H     0064H     UNIT         ?ID?MAIN
            IDATA   0086H     0001H     UNIT         ?STACK

            * * * * * * *  X D A T A   M E M O R Y  * * * * * * *
            XDATA   0000H     00CBH     UNIT         _XDATA_GROUP_
            XDATA   00CBH     0070H     UNIT         ?XD?MAIN
            XDATA   013BH     004BH     UNIT         ?XD?PROG
            XDATA   0186H     0038H     UNIT         ?XD?VERIFICADOR
            XDATA   01BEH     001EH     UNIT         ?XD?PTO_PARALELO
            XDATA   01DCH     000BH     UNIT         ?XD?UNIQUE_IDENTIFIER_UID?LINTECH
            XDATA   01E7H     000BH     UNIT         ?XD?POWER_OFF?LINTECH
            XDATA   01F2H     0003H     UNIT         ?XD?EEPROM
            XDATA   01F5H     0003H     UNIT         ?XD?UART
            XDATA   01F8H     0003H     UNIT         ?XD?STRTOK
            XDATA   01FBH     0002H     UNIT         ?XD?ACCESCAN
            XDATA   01FDH     0001H     UNIT         ?XD?CLOCK
            XDATA   01FEH     0001H     UNIT         ?XD?IO_SENSORES
            XDATA   01FFH     0001H     UNIT         ?XD?PANTALLAS

            * * * * * * *   C O D E   M E M O R Y   * * * * * * *
            CODE    0000H     0003H     ABSOLUTE     
            CODE    0003H     0008H     UNIT         ?PR?P_CK?CLOCK
            CODE    000BH     0003H     ABSOLUTE     
            CODE    000EH     0015H     UNIT         ?PR?_STRLEN?STRLEN
            CODE    0023H     0003H     ABSOLUTE     
BL51 BANKED LINKER/LOCATER V6.22.2.0                                                  08/31/2020  09:26:19  PAGE 3


            CODE    0026H     0F02H     UNIT         ?CO?PROG
            CODE    0F28H     0C18H     UNIT         ?PR?SECUENCIAEXPEDIDOR?VERIFICADOR
            CODE    1B40H     0B55H     UNIT         ?C?LIB_CODE
            CODE    2695H     062CH     UNIT         ?CO?VERIFICADOR
            CODE    2CC1H     0537H     UNIT         ?PR?_ANALIZA_TIEMPO?CLOCK
            CODE    31F8H     0483H     UNIT         ?PR?PRINTF?PRINTF
            CODE    367BH     0431H     UNIT         ?CO?PANTALLAS
            CODE    3AACH     0368H     UNIT         ?PR?_PANTALLALCD?PANTALLAS
            CODE    3E14H     0311H     UNIT         ?PR?_VALIDA_TRAMA_PTO?ACCESCAN
            CODE    4125H     02F5H     UNIT         ?PR?VER_PROG?PROG
            CODE    441AH     02D0H     UNIT         ?PR?_TWO_BYTEHEX_DECIMAL?CLOCK
            CODE    46EAH     02CDH     UNIT         ?PR?_TRAMA_PTO_PARALELO_NEW?PTO_PARALELO
            CODE    49B7H     02B7H     UNIT         ?PR?_PROG_HORARIO_DIAS?PROG
            CODE    4C6EH     0292H     UNIT         ?PR?_CMD_LPR_SALIDA?ACCESCAN
            CODE    4F00H     0208H     UNIT         ?PR?MENU?PROG
            CODE    5108H     01FEH     UNIT         ?PR?_HASH_ID?PROG
            CODE    5306H     01FAH     UNIT         ?PR?_PROG_HORARIO_DESDE_HASTA?PROG
            CODE    5500H     01F5H     UNIT         ?PR?PROG_FECHA_VENCIMIENTO?PROG
            CODE    56F5H     01B3H     UNIT         ?PR?COM_ISR?UART
            CODE    58A8H     0179H     UNIT         ?PR?_CHECK_FECHAOUT?CLOCK
            CODE    5A21H     016EH     UNIT         ?PR?_BLOCK_READ_CLOCK_ASCII?CLOCK
            CODE    5B8FH     0166H     UNIT         ?PR?_POW?POW
            CODE    5CF5H     0162H     UNIT         ?PR?_PANTALLALCD_LINEA_2?PANTALLAS
            CODE    5E57H     0161H     UNIT         ?CO?LINTECH
            CODE    5FB8H     0149H     UNIT         ?PR?_WR_MF?LINTECH
            CODE    6101H     0145H     UNIT         ?PR?PROG_HORARIOS?PROG
            CODE    6246H     0140H     UNIT         ?PR?SECUENCIA_INICIO_EXPEDIDOR?VERIFICADOR
            CODE    6386H     013EH     UNIT         ?PR?PROG_SIN_COBRO?PROG
            CODE    64C4H     0137H     UNIT         ?PR?VER_HORARIO?PROG
            CODE    65FBH     0129H     UNIT         ?PR?LOG?LOG
            CODE    6724H     0128H     UNIT         ?PR?_VER_HORARIO_DIAS?PROG
            CODE    684CH     011AH     UNIT         ?PR?_PROG_HORARIOS_ON_OFF?PROG
            CODE    6966H     0119H     UNIT         ?PR?_VER_HORARIO_DESDE_HASTA?PROG
            CODE    6A7FH     0115H     UNIT         ?PR?_VALIDAR_CLK?CLOCK
            CODE    6B94H     0110H     UNIT         ?PR?LOAD_AND_SEND_ID_COD?PTO_PARALELO
            CODE    6CA4H     00FFH     UNIT         ?PR?_TRAMA_PTO_PARALELO_P?PTO_PARALELO
            CODE    6DA3H     00FCH     UNIT         ?PR?PROG_DEBUG?PROG
            CODE    6E9FH     00FCH     UNIT         ?PR?PROG_USE_LPR?PROG
            CODE    6F9BH     00FCH     UNIT         ?PR?PROG_COMPARACION_ACTIVA?PROG
            CODE    7097H     00FCH     UNIT         ?PR?TIPO_PANTALLA?PROG
            CODE    7193H     00FCH     UNIT         ?PR?DCTO_CAJA?PROG
            CODE    728FH     00F9H     UNIT         ?PR?_BLOQUE_HORARIO?VERIFICADOR
            CODE    7388H     00F1H     UNIT         ?PR?_HORARIOS?VERIFICADOR
            CODE    7479H     00EAH     UNIT         ?PR?_MOV_CARD?LINTECH
            CODE    7563H     00E4H     UNIT         ?PR?_STRTOK?STRTOK
            CODE    7647H     00DBH     UNIT         ?PR?_ATOI?ATOI
            CODE    7722H     00D6H     UNIT         ?PR?_CMD_LPR_SALIDA_WIEGAND?ACCESCAN
            CODE    77F8H     00C4H     UNIT         ?PR?_BLOCK_READ_CLOCK?CLOCK
            CODE    78BCH     00C3H     UNIT         ?PR?_RD_MF?LINTECH
            CODE    797FH     00BDH     UNIT         ?PR?PROG_COD_PARK?PROG
            CODE    7A3CH     00BDH     UNIT         ?PR?PROG_TIEMPO_GRACIA?PROG
            CODE    7AF9H     00BBH     UNIT         ?PR?_CHECK_FECHAOUT_2?CLOCK
            CODE    7BB4H     00B6H     UNIT         ?PR?PROG_ID_CLIENTE?PROG
            CODE    7C6AH     00B4H     UNIT         ?PR?_SEND_PORT?PTO_PARALELO
            CODE    7D1EH     00AFH     UNIT         ?PR?ERROR_RX_PTO?VERIFICADOR
            CODE    7DCDH     00ACH     UNIT         ?PR?_HORA_MAXIMA?VERIFICADOR
            CODE    7E79H     00A9H     UNIT         ?PR?DWLOAD_EEPROM?LINTECH
BL51 BANKED LINKER/LOCATER V6.22.2.0                                                  08/31/2020  09:26:19  PAGE 4


            CODE    7F22H     00A7H     UNIT         ?CO?TIBBO
            CODE    7FC9H     00A6H     UNIT         ?PR?_BLOCK_READ_CLOCK_HEX?CLOCK
            CODE    806FH     00A6H     UNIT         ?PR?_DEBUG_FECHA_ACTUAL?TIBBO
            CODE    8115H     00A4H     UNIT         ?C_INITSEG
            CODE    81B9H     00A0H     UNIT         ?CO?IO_SENSORES
            CODE    8259H     009DH     UNIT         ?PR?_INICIALIZA?LINTECH
            CODE    82F6H     009CH     UNIT         ?PR?_RECIBE_PORT?PTO_PARALELO
            CODE    8392H     009AH     UNIT         ?PR?EXP?EXP
            CODE    842CH     0095H     UNIT         ?PR?_RECIBE_CMD_MONITOR?ACCESCAN
            CODE    84C1H     0091H     UNIT         ?PR?_HEX_ASCII?CLOCK
            CODE    8552H     0091H     UNIT         ?PR?_CARD_INSERCION?LINTECH
            CODE    85E3H     0091H     UNIT         ?PR?LOADVERIFY_EEPROM?LINTECH
            CODE    8674H     0090H     UNIT         ?PR?_LEE_CLK?CLOCK
            CODE    8704H     0090H     UNIT         ?PR?_GETOPTION?PROG
            CODE    8794H     008FH     UNIT         ?PR?_BLOCK_WRITE_CLOCK_ASCII?CLOCK
            CODE    8823H     008CH     UNIT         ?C_C51STARTUP
            CODE    88AFH     0088H     UNIT         ?PR?_SEND_PORTERR?PTO_PARALELO
            CODE    8937H     0088H     UNIT         ?PR?RX_DATA?TIBBO
            CODE    89BFH     0088H     UNIT         ?PR?UNIQUE_IDENTIFIER_UID?LINTECH
            CODE    8A47H     0085H     UNIT         ?PR?MAIN?MAIN
            CODE    8ACCH     0084H     UNIT         ?PR?_STRSPN?STRSPN
            CODE    8B50H     0081H     UNIT         ?PR?_STRPBRK?STRPBRK
            CODE    8BD1H     0080H     UNIT         ?PR?MSJ_LCD_INFORMATIVO?IO_SENSORES
            CODE    8C51H     0080H     UNIT         ?PR?_INGRESADATO?PROG
            CODE    8CD1H     0080H     UNIT         ?PR?AUT_CARD_CHECK_STATUS?LINTECH
            CODE    8D51H     0080H     UNIT         ?PR?POWER_OFF?LINTECH
            CODE    8DD1H     007CH     UNIT         ?PR?_CHECK_STATUS?LINTECH
            CODE    8E4DH     0075H     UNIT         ?PR?SHOW?PROG
            CODE    8EC2H     0073H     UNIT         ?PR?VALIDASENSORESPASO?IO_SENSORES
            CODE    8F35H     0073H     UNIT         ?PR?_DEBUGBUFFERMF?TIBBO
            CODE    8FA8H     0071H     UNIT         ?PR?_EN_HORARIO?VERIFICADOR
            CODE    9019H     006FH     UNIT         ?PR?_ESCRIBIRMEMORIA?EEPROM
            CODE    9088H     006BH     UNIT         ?PR?_STRCAT?STRCAT
            CODE    90F3H     0066H     UNIT         ?PR?_LEERMEMORIA?EEPROM
            CODE    9159H     0062H     UNIT         ?PR?_LISTACOMANDOS?PROG
            CODE    91BBH     005BH     UNIT         ?PR?_RASPBERRY_DATA?PANTALLAS
            CODE    9216H     0057H     UNIT         ?PR?RELOJ_PANTALLA_LCD?PANTALLAS
            CODE    926DH     0056H     UNIT         ?PR?_WR_EEPROM?EEPROM
            CODE    92C3H     0056H     UNIT         ?PR?VARIABLE_INICIO?EEPROM
            CODE    9319H     0053H     UNIT         ?PR?_BYTEHEX_DECIMAL?CLOCK
            CODE    936CH     004DH     UNIT         ?PR?L_D_M?EEPROM
            CODE    93B9H     004BH     UNIT         ?PR?_TX_AUX?TIBBO
            CODE    9404H     0048H     UNIT         ?PR?FIRST_CLAVE?PROG
            CODE    944CH     0048H     UNIT         ?PR?_DEBUG_PTO_PARALELO?TIBBO
            CODE    9494H     0047H     UNIT         ?PR?_DEBUG_CHR_TIBBO?TIBBO
            CODE    94DBH     0046H     UNIT         ?PR?_ESCRIBIRCADENASOFT_BUFFER?MAIN
            CODE    9521H     0046H     UNIT         ?PR?_LCD_TXT_NUM_CHAR?PANTALLAS
            CODE    9567H     0046H     UNIT         ?PR?_DEBUG_HEXDEC?TIBBO
            CODE    95ADH     0044H     UNIT         ?PR?_LCD_TXT?PANTALLAS
            CODE    95F1H     0044H     UNIT         ?PR?_DEBUG_TXT_TIBBO?TIBBO
            CODE    9635H     0042H     UNIT         ?PR?_VALIDARCLAVE?PROG
            CODE    9677H     0041H     UNIT         ?PR?_MONITOR_CHR?ACCESCAN
            CODE    96B8H     0041H     UNIT         ?PR?_TWO_ONE?CLOCK
            CODE    96F9H     0040H     UNIT         ?PR?_GETCMD?PROG
            CODE    9739H     003FH     UNIT         ?PR?_EB_CLK?CLOCK
            CODE    9778H     003EH     UNIT         ?PR?_PUTCHAR?MAIN
            CODE    97B6H     003DH     UNIT         ?PR?_HEX_BCD?CLOCK
BL51 BANKED LINKER/LOCATER V6.22.2.0                                                  08/31/2020  09:26:19  PAGE 5


            CODE    97F3H     003DH     UNIT         ?PR?_RD_EEPROM?EEPROM
            CODE    9830H     003BH     UNIT         ?PR?_COM_PUTCHAR?UART
            CODE    986BH     003AH     UNIT         ?PR?_DELAY_10MS?DELAY
            CODE    98A5H     0037H     UNIT         ?PR?TIMER0_INT?MAIN
            CODE    98DCH     0034H     UNIT         ?PR?ADDR_HORARIOS?PROG
            CODE    9910H     002CH     UNIT         ?PR?LOAD_AND_SEND_INFO_RELOJ?PTO_PARALELO
            CODE    993CH     002AH     UNIT         ?PR?COM_INITIALIZE?UART
            CODE    9966H     0028H     UNIT         ?PR?_WR_CLK?CLOCK
            CODE    998EH     0028H     UNIT         ?PR?COM_BAUDRATE?UART
            CODE    99B6H     0027H     UNIT         ?PR?_TX_CHRLCD?PANTALLAS
            CODE    99DDH     0026H     UNIT         ?PR?COM_GETCHAR?UART
            CODE    9A03H     0024H     UNIT         ?PR?TRAMA_VALIDACION_P_N?VERIFICADOR
            CODE    9A27H     0022H     UNIT         ?PR?_E_D_M?EEPROM
            CODE    9A49H     0020H     UNIT         ?PR?ACKD?EEPROM
            CODE    9A69H     0020H     UNIT         ?PR?ACK_LECT?EEPROM
            CODE    9A89H     001FH     UNIT         ?PR?VALIDASENSOR?IO_SENSORES
            CODE    9AA8H     001FH     UNIT         ?PR?VALIDASENSORES_OUT?IO_SENSORES
            CODE    9AC7H     001FH     UNIT         ?PR?TIME_BIT?TIBBO
            CODE    9AE6H     001EH     UNIT         ?PR?_BCD_HEX?CLOCK
            CODE    9B04H     001DH     UNIT         ?CO?PTO_PARALELO
            CODE    9B21H     001BH     UNIT         ?PR?_DELAY_1MS?DELAY
            CODE    9B3CH     0017H     UNIT         ?PR?DISPLAYCURSOR?PROG
            CODE    9B53H     0017H     UNIT         ?PR?TIME_MBIT?TIBBO
            CODE    9B6AH     0014H     UNIT         ?PR?_ISSPACE?ISSPACE
            CODE    9B7EH     0012H     UNIT         ?PR?_DELAY_20US?DELAY
            CODE    9B90H     0012H     UNIT         ?PR?START?EEPROM
            CODE    9BA2H     0012H     UNIT         ?PR?DIR_BOARD?IO_SENSORES
            CODE    9BB4H     0012H     UNIT         ?PR?PULSO_BUS?PTO_PARALELO
            CODE    9BC6H     0012H     UNIT         ?PR?COM_RBUFLEN?UART
            CODE    9BD8H     0012H     UNIT         ?PR?COM_TBUFLEN?UART
            CODE    9BEAH     0010H     UNIT         ?PR?INI_TIMER?MAIN
            CODE    9BFAH     0010H     UNIT         ?PR?INICIA_BOARD?MAIN
            CODE    9C0AH     000FH     UNIT         ?PR?_ISDIGIT?ISDIGIT
            CODE    9C19H     000CH     UNIT         ?PR?_GETKEY?MAIN
            CODE    9C25H     000AH     UNIT         ?PR?COND_INI_PTO?PTO_PARALELO
            CODE    9C2FH     0009H     UNIT         ?PR?STOP?EEPROM
            CODE    9C38H     0009H     UNIT         ?PR?DEBUG_DIVIDIR_TEXTO?TIBBO
            CODE    9C41H     0007H     UNIT         ?PR?COND_INI_CLOCK?CLOCK
            CODE    9C48H     0007H     UNIT         ?PR?SEL_FUNCION?IO_SENSORES
            CODE    9C4FH     0007H     UNIT         ?PR?SEL_AUTO?IO_SENSORES
            CODE    9C56H     0007H     UNIT         ?PR?SEL_SENSOR2?IO_SENSORES
            CODE    9C5DH     0007H     UNIT         ?PR?SEL_SENSOR1?IO_SENSORES
            CODE    9C64H     0007H     UNIT         ?PR?SEL_DIR1?IO_SENSORES
            CODE    9C6BH     0007H     UNIT         ?PR?SEL_DIR2?IO_SENSORES
            CODE    9C72H     0006H     UNIT         ?PR?P_ME?EEPROM
            CODE    9C78H     0005H     UNIT         ?PR?ON_TIMER0_INTERRUP?MAIN
            CODE    9C7DH     0005H     UNIT         ?CO?ACCESCAN
            CODE    9C82H     0005H     UNIT         ?PR?COND_INI_TIBBO?TIBBO
            CODE    9C87H     0003H     UNIT         ?PR?OFF_TIMER0_INTERRUP?MAIN
            CODE    9C8AH     0001H     UNIT         ?PR?DELAY?DELAY



OVERLAY MAP OF MODULE:   .\Objects\verificador_v_01_raspberry (MAIN)


SEGMENT                                             BIT_GROUP          DATA_GROUP          XDATA_GROUP
BL51 BANKED LINKER/LOCATER V6.22.2.0                                                  08/31/2020  09:26:19  PAGE 6


  +--> CALLED SEGMENT                            START    LENGTH     START    LENGTH     START    LENGTH
--------------------------------------------------------------------------------------------------------
?C_C51STARTUP                                    -----    -----      -----    -----      -----    -----
  +--> ?PR?MAIN?MAIN
  +--> ?C_INITSEG

?PR?MAIN?MAIN                                    -----    -----      -----    -----      0000H    0001H
  +--> ?PR?INI_TIMER?MAIN
  +--> ?PR?ON_TIMER0_INTERRUP?MAIN
  +--> ?PR?COM_INITIALIZE?UART
  +--> ?PR?COM_BAUDRATE?UART
  +--> ?PR?INICIA_BOARD?MAIN
  +--> ?PR?TIME_BIT?TIBBO
  +--> ?PR?_DELAY_20US?DELAY
  +--> ?PR?TIME_MBIT?TIBBO
  +--> ?PR?_TX_AUX?TIBBO
  +--> ?PR?SEL_FUNCION?IO_SENSORES
  +--> ?PR?MENU?PROG
  +--> ?PR?VARIABLE_INICIO?EEPROM
  +--> ?PR?SECUENCIA_INICIO_EXPEDIDOR?VERIFI...
  +--> ?PR?_RECIBE_CMD_MONITOR?ACCESCAN
  +--> ?PR?SECUENCIAEXPEDIDOR?VERIFICADOR
  +--> ?PR?_RECIBE_PORT?PTO_PARALELO
  +--> ?PR?_VALIDA_TRAMA_PTO?ACCESCAN
  +--> ?PR?_DEBUG_PTO_PARALELO?TIBBO
  +--> ?PR?MSJ_LCD_INFORMATIVO?IO_SENSORES

?PR?COM_INITIALIZE?UART                          -----    -----      -----    -----      -----    -----
  +--> ?PR?COM_BAUDRATE?UART

?PR?INICIA_BOARD?MAIN                            -----    -----      -----    -----      -----    -----
  +--> ?PR?COND_INI_TIBBO?TIBBO
  +--> ?PR?COND_INI_CLOCK?CLOCK
  +--> ?PR?COND_INI_PTO?PTO_PARALELO

?PR?_TX_AUX?TIBBO                                -----    -----      -----    -----      -----    -----
  +--> ?PR?TIME_BIT?TIBBO

?PR?MENU?PROG                                    -----    -----      -----    -----      0001H    0059H
  +--> ?CO?PROG
  +--> ?PR?PRINTF?PRINTF
  +--> ?PR?_RD_EEPROM?EEPROM
  +--> ?PR?FIRST_CLAVE?PROG
  +--> ?PR?_WR_EEPROM?EEPROM
  +--> ?PR?_LEERMEMORIA?EEPROM
  +--> ?PR?_HASH_ID?PROG
  +--> ?PR?_INGRESADATO?PROG
  +--> ?PR?_GETCMD?PROG
  +--> ?PR?_ESCRIBIRMEMORIA?EEPROM
  +--> ?PR?_VALIDARCLAVE?PROG
  +--> ?PR?DISPLAYCURSOR?PROG
  +--> ?PR?_STRLEN?STRLEN
  +--> ?PR?_GETOPTION?PROG
  +--> ?PR?_STRCAT?STRCAT
  +--> ?PR?_LISTACOMANDOS?PROG
  +--> ?PR?PROG_ID_CLIENTE?PROG
  +--> ?PR?PROG_COD_PARK?PROG
BL51 BANKED LINKER/LOCATER V6.22.2.0                                                  08/31/2020  09:26:19  PAGE 7


  +--> ?PR?PROG_TIEMPO_GRACIA?PROG
  +--> ?PR?PROG_SIN_COBRO?PROG
  +--> ?PR?PROG_DEBUG?PROG
  +--> ?PR?PROG_USE_LPR?PROG
  +--> ?PR?PROG_COMPARACION_ACTIVA?PROG
  +--> ?PR?TIPO_PANTALLA?PROG
  +--> ?PR?DCTO_CAJA?PROG
  +--> ?PR?PROG_HORARIOS?PROG
  +--> ?PR?VER_PROG?PROG
  +--> ?PR?SHOW?PROG
  +--> ?PR?PROG_FECHA_VENCIMIENTO?PROG

?PR?PRINTF?PRINTF                                0020H.0  0001H.1    0008H    0005H      008BH    0030H
  +--> ?PR?_PUTCHAR?MAIN

?PR?_PUTCHAR?MAIN                                -----    -----      -----    -----      00BBH    0003H
  +--> ?PR?_COM_PUTCHAR?UART

?PR?_COM_PUTCHAR?UART                            -----    -----      -----    -----      00BEH    0001H
  +--> ?PR?COM_TBUFLEN?UART

?PR?_RD_EEPROM?EEPROM                            -----    -----      -----    -----      -----    -----
  +--> ?PR?START?EEPROM
  +--> ?PR?ACK_LECT?EEPROM
  +--> ?PR?_E_D_M?EEPROM
  +--> ?PR?ACKD?EEPROM
  +--> ?PR?L_D_M?EEPROM
  +--> ?PR?STOP?EEPROM

?PR?ACK_LECT?EEPROM                              -----    -----      -----    -----      -----    -----
  +--> ?PR?_E_D_M?EEPROM

?PR?_E_D_M?EEPROM                                -----    -----      -----    -----      -----    -----
  +--> ?PR?P_ME?EEPROM

?PR?ACKD?EEPROM                                  -----    -----      -----    -----      -----    -----
  +--> ?PR?_E_D_M?EEPROM

?PR?FIRST_CLAVE?PROG                             -----    -----      -----    -----      005AH    000BH
  +--> ?PR?_BLOCK_READ_CLOCK_ASCII?CLOCK
  +--> ?PR?_HASH_ID?PROG
  +--> ?PR?_ESCRIBIRMEMORIA?EEPROM

?PR?_BLOCK_READ_CLOCK_ASCII?CLOCK                -----    -----      -----    -----      0065H    0003H
  +--> ?PR?_LEE_CLK?CLOCK

?PR?_LEE_CLK?CLOCK                               -----    -----      -----    -----      00C5H    0003H
  +--> ?PR?_DELAY_20US?DELAY
  +--> ?PR?_EB_CLK?CLOCK
  +--> ?PR?P_CK?CLOCK

?PR?_EB_CLK?CLOCK                                -----    -----      -----    -----      00C8H    0003H
  +--> ?PR?P_CK?CLOCK

?PR?P_CK?CLOCK                                   -----    -----      -----    -----      -----    -----
  +--> ?PR?DELAY?DELAY

BL51 BANKED LINKER/LOCATER V6.22.2.0                                                  08/31/2020  09:26:19  PAGE 8


?PR?_HASH_ID?PROG                                -----    -----      -----    -----      0071H    003FH
  +--> ?CO?PROG
  +--> ?PR?_LEERMEMORIA?EEPROM
  +--> ?PR?_CHECK_FECHAOUT_2?CLOCK
  +--> ?PR?_STRLEN?STRLEN

?PR?_LEERMEMORIA?EEPROM                          -----    -----      -----    -----      00B0H    0005H
  +--> ?PR?_RD_EEPROM?EEPROM

?PR?_CHECK_FECHAOUT_2?CLOCK                      -----    -----      -----    -----      00B0H    0012H
  +--> ?PR?_BLOCK_READ_CLOCK_HEX?CLOCK

?PR?_BLOCK_READ_CLOCK_HEX?CLOCK                  -----    -----      -----    -----      00C2H    0003H
  +--> ?PR?_LEE_CLK?CLOCK
  +--> ?PR?_BCD_HEX?CLOCK

?PR?_ESCRIBIRMEMORIA?EEPROM                      -----    -----      -----    -----      0071H    0005H
  +--> ?PR?_WR_EEPROM?EEPROM

?PR?_WR_EEPROM?EEPROM                            -----    -----      -----    -----      -----    -----
  +--> ?PR?START?EEPROM
  +--> ?PR?ACKD?EEPROM
  +--> ?PR?_E_D_M?EEPROM
  +--> ?PR?STOP?EEPROM
  +--> ?PR?_DELAY_1MS?DELAY
  +--> ?PR?_DELAY_20US?DELAY

?PR?_DELAY_1MS?DELAY                             -----    -----      -----    -----      -----    -----
  +--> ?PR?_DELAY_20US?DELAY

?PR?_INGRESADATO?PROG                            -----    -----      -----    -----      0085H    0004H
  +--> ?PR?_GETKEY?MAIN
  +--> ?CO?PROG
  +--> ?PR?PRINTF?PRINTF
  +--> ?PR?_PUTCHAR?MAIN

?PR?_GETKEY?MAIN                                 -----    -----      -----    -----      -----    -----
  +--> ?PR?COM_GETCHAR?UART

?PR?COM_GETCHAR?UART                             -----    -----      -----    -----      -----    -----
  +--> ?PR?COM_RBUFLEN?UART

?PR?_GETCMD?PROG                                 -----    -----      -----    -----      0071H    0007H
  +--> ?CO?PROG
  +--> ?PR?_STRTOK?STRTOK

?PR?_STRTOK?STRTOK                               -----    -----      -----    -----      0078H    0006H
  +--> ?PR?_STRSPN?STRSPN
  +--> ?PR?_STRPBRK?STRPBRK

?PR?_STRSPN?STRSPN                               -----    -----      -----    -----      007EH    0008H

?PR?_STRPBRK?STRPBRK                             -----    -----      -----    -----      007EH    0009H

?PR?_VALIDARCLAVE?PROG                           -----    -----      -----    -----      0071H    000AH

?PR?DISPLAYCURSOR?PROG                           -----    -----      -----    -----      -----    -----
BL51 BANKED LINKER/LOCATER V6.22.2.0                                                  08/31/2020  09:26:19  PAGE 9


  +--> ?CO?PROG
  +--> ?PR?PRINTF?PRINTF

?PR?_GETOPTION?PROG                              -----    -----      -----    -----      005AH    000BH
  +--> ?CO?PROG
  +--> ?PR?_STRTOK?STRTOK

?PR?_STRCAT?STRCAT                               -----    -----      -----    -----      005AH    0009H

?PR?_LISTACOMANDOS?PROG                          -----    -----      -----    -----      005AH    0007H

?PR?PROG_ID_CLIENTE?PROG                         -----    -----      -----    -----      005AH    000CH
  +--> ?PR?_RD_EEPROM?EEPROM
  +--> ?CO?PROG
  +--> ?PR?PRINTF?PRINTF
  +--> ?PR?_INGRESADATO?PROG
  +--> ?PR?_ATOI?ATOI
  +--> ?PR?_WR_EEPROM?EEPROM

?PR?_ATOI?ATOI                                   0020H.0  0000H.1    -----    -----      0085H    0005H
  +--> ?PR?_ISSPACE?ISSPACE
  +--> ?PR?_ISDIGIT?ISDIGIT

?PR?PROG_COD_PARK?PROG                           -----    -----      -----    -----      005AH    000CH
  +--> ?PR?_RD_EEPROM?EEPROM
  +--> ?CO?PROG
  +--> ?PR?PRINTF?PRINTF
  +--> ?PR?_INGRESADATO?PROG
  +--> ?PR?_ATOI?ATOI
  +--> ?PR?_WR_EEPROM?EEPROM

?PR?PROG_TIEMPO_GRACIA?PROG                      -----    -----      -----    -----      005AH    000CH
  +--> ?PR?_RD_EEPROM?EEPROM
  +--> ?CO?PROG
  +--> ?PR?PRINTF?PRINTF
  +--> ?PR?_INGRESADATO?PROG
  +--> ?PR?_ATOI?ATOI
  +--> ?PR?_WR_EEPROM?EEPROM

?PR?PROG_SIN_COBRO?PROG                          -----    -----      -----    -----      005AH    000CH
  +--> ?PR?_RD_EEPROM?EEPROM
  +--> ?CO?PROG
  +--> ?PR?PRINTF?PRINTF
  +--> ?PR?_INGRESADATO?PROG
  +--> ?PR?_ATOI?ATOI
  +--> ?PR?_WR_EEPROM?EEPROM

?PR?PROG_DEBUG?PROG                              -----    -----      -----    -----      005AH    000CH
  +--> ?PR?_RD_EEPROM?EEPROM
  +--> ?CO?PROG
  +--> ?PR?PRINTF?PRINTF
  +--> ?PR?_INGRESADATO?PROG
  +--> ?PR?_ATOI?ATOI
  +--> ?PR?_WR_EEPROM?EEPROM

?PR?PROG_USE_LPR?PROG                            -----    -----      -----    -----      005AH    000CH
  +--> ?PR?_RD_EEPROM?EEPROM
BL51 BANKED LINKER/LOCATER V6.22.2.0                                                  08/31/2020  09:26:19  PAGE 10


  +--> ?CO?PROG
  +--> ?PR?PRINTF?PRINTF
  +--> ?PR?_INGRESADATO?PROG
  +--> ?PR?_ATOI?ATOI
  +--> ?PR?_WR_EEPROM?EEPROM

?PR?PROG_COMPARACION_ACTIVA?PROG                 -----    -----      -----    -----      005AH    000CH
  +--> ?PR?_RD_EEPROM?EEPROM
  +--> ?CO?PROG
  +--> ?PR?PRINTF?PRINTF
  +--> ?PR?_INGRESADATO?PROG
  +--> ?PR?_ATOI?ATOI
  +--> ?PR?_WR_EEPROM?EEPROM

?PR?TIPO_PANTALLA?PROG                           -----    -----      -----    -----      005AH    000CH
  +--> ?PR?_RD_EEPROM?EEPROM
  +--> ?CO?PROG
  +--> ?PR?PRINTF?PRINTF
  +--> ?PR?_INGRESADATO?PROG
  +--> ?PR?_ATOI?ATOI
  +--> ?PR?_WR_EEPROM?EEPROM

?PR?DCTO_CAJA?PROG                               -----    -----      -----    -----      005AH    000CH
  +--> ?PR?_RD_EEPROM?EEPROM
  +--> ?CO?PROG
  +--> ?PR?PRINTF?PRINTF
  +--> ?PR?_INGRESADATO?PROG
  +--> ?PR?_ATOI?ATOI
  +--> ?PR?_WR_EEPROM?EEPROM

?PR?PROG_HORARIOS?PROG                           -----    -----      -----    -----      005AH    001BH
  +--> ?PR?ADDR_HORARIOS?PROG
  +--> ?CO?PROG
  +--> ?PR?PRINTF?PRINTF
  +--> ?PR?_INGRESADATO?PROG
  +--> ?PR?_ATOI?ATOI
  +--> ?PR?_PROG_HORARIOS_ON_OFF?PROG
  +--> ?PR?_WR_EEPROM?EEPROM
  +--> ?PR?_PROG_HORARIO_DIAS?PROG
  +--> ?PR?_PROG_HORARIO_DESDE_HASTA?PROG
  +--> ?PR?_RD_EEPROM?EEPROM

?PR?ADDR_HORARIOS?PROG                           -----    -----      -----    -----      0088H    000BH

?PR?_PROG_HORARIOS_ON_OFF?PROG                   -----    -----      -----    -----      0075H    0010H
  +--> ?PR?_RD_EEPROM?EEPROM
  +--> ?CO?PROG
  +--> ?PR?PRINTF?PRINTF
  +--> ?PR?_INGRESADATO?PROG
  +--> ?PR?_ATOI?ATOI
  +--> ?PR?_WR_EEPROM?EEPROM

?PR?_PROG_HORARIO_DIAS?PROG                      -----    -----      -----    -----      0075H    000FH
  +--> ?CO?PROG
  +--> ?PR?PRINTF?PRINTF
  +--> ?PR?_INGRESADATO?PROG
  +--> ?PR?_WR_EEPROM?EEPROM
BL51 BANKED LINKER/LOCATER V6.22.2.0                                                  08/31/2020  09:26:19  PAGE 11


  +--> ?PR?_RD_EEPROM?EEPROM

?PR?_PROG_HORARIO_DESDE_HASTA?PROG               -----    -----      -----    -----      0075H    000CH
  +--> ?CO?PROG
  +--> ?PR?PRINTF?PRINTF
  +--> ?PR?_INGRESADATO?PROG
  +--> ?PR?_WR_EEPROM?EEPROM
  +--> ?PR?_RD_EEPROM?EEPROM

?PR?VER_PROG?PROG                                -----    -----      -----    -----      005AH    0013H
  +--> ?PR?_RD_EEPROM?EEPROM
  +--> ?CO?PROG
  +--> ?PR?PRINTF?PRINTF
  +--> ?PR?VER_HORARIO?PROG
  +--> ?PR?_LEERMEMORIA?EEPROM
  +--> ?PR?_HEX_ASCII?CLOCK

?PR?VER_HORARIO?PROG                             -----    -----      -----    -----      006DH    001BH
  +--> ?PR?ADDR_HORARIOS?PROG
  +--> ?CO?PROG
  +--> ?PR?PRINTF?PRINTF
  +--> ?PR?_RD_EEPROM?EEPROM
  +--> ?PR?_VER_HORARIO_DIAS?PROG
  +--> ?PR?_VER_HORARIO_DESDE_HASTA?PROG

?PR?_VER_HORARIO_DIAS?PROG                       -----    -----      -----    -----      0088H    0003H
  +--> ?PR?_RD_EEPROM?EEPROM
  +--> ?CO?PROG
  +--> ?PR?PRINTF?PRINTF

?PR?_VER_HORARIO_DESDE_HASTA?PROG                -----    -----      -----    -----      0088H    0002H
  +--> ?CO?PROG
  +--> ?PR?PRINTF?PRINTF
  +--> ?PR?_RD_EEPROM?EEPROM

?PR?_HEX_ASCII?CLOCK                             -----    -----      -----    -----      0071H    0006H
  +--> ?PR?_HEX_BCD?CLOCK

?PR?SHOW?PROG                                    -----    -----      -----    -----      -----    -----
  +--> ?CO?PROG
  +--> ?PR?PRINTF?PRINTF

?PR?PROG_FECHA_VENCIMIENTO?PROG                  -----    -----      -----    -----      005AH    0017H
  +--> ?PR?_LEERMEMORIA?EEPROM
  +--> ?PR?_HEX_ASCII?CLOCK
  +--> ?CO?PROG
  +--> ?PR?PRINTF?PRINTF
  +--> ?PR?_HASH_ID?PROG
  +--> ?PR?_INGRESADATO?PROG
  +--> ?PR?_GETCMD?PROG
  +--> ?PR?_ESCRIBIRMEMORIA?EEPROM
  +--> ?PR?_VALIDARCLAVE?PROG
  +--> ?PR?_ATOI?ATOI
  +--> ?PR?_WR_EEPROM?EEPROM

?PR?VARIABLE_INICIO?EEPROM                       -----    -----      -----    -----      -----    -----
  +--> ?PR?_RD_EEPROM?EEPROM
BL51 BANKED LINKER/LOCATER V6.22.2.0                                                  08/31/2020  09:26:19  PAGE 12



?PR?SECUENCIA_INICIO_EXPEDIDOR?VERIFI...         -----    -----      -----    -----      0001H    0001H
  +--> ?PR?_INICIALIZA?LINTECH
  +--> ?PR?TRAMA_VALIDACION_P_N?VERIFICADOR
  +--> ?CO?VERIFICADOR
  +--> ?PR?_DEBUG_TXT_TIBBO?TIBBO
  +--> ?PR?_DEBUGBUFFERMF?TIBBO
  +--> ?PR?DWLOAD_EEPROM?LINTECH

?PR?_INICIALIZA?LINTECH                          -----    -----      -----    -----      0002H    000CH
  +--> ?CO?LINTECH
  +--> ?PR?_DEBUG_TXT_TIBBO?TIBBO
  +--> ?PR?_DEBUGBUFFERMF?TIBBO
  +--> ?PR?_ESCRIBIRCADENASOFT_BUFFER?MAIN

?PR?_DEBUG_TXT_TIBBO?TIBBO                       -----    -----      -----    -----      003AH    0004H
  +--> ?CO?TIBBO
  +--> ?PR?_TX_AUX?TIBBO

?PR?_DEBUGBUFFERMF?TIBBO                         -----    -----      -----    -----      0034H    0006H
  +--> ?CO?TIBBO
  +--> ?PR?_DEBUG_TXT_TIBBO?TIBBO
  +--> ?PR?_DEBUG_CHR_TIBBO?TIBBO
  +--> ?PR?_TX_AUX?TIBBO

?PR?_DEBUG_CHR_TIBBO?TIBBO                       -----    -----      -----    -----      -----    -----
  +--> ?PR?_TX_AUX?TIBBO

?PR?_ESCRIBIRCADENASOFT_BUFFER?MAIN              -----    -----      -----    -----      0034H    0006H
  +--> ?PR?_PUTCHAR?MAIN

?PR?DWLOAD_EEPROM?LINTECH                        -----    -----      -----    -----      0002H    0016H
  +--> ?CO?LINTECH
  +--> ?PR?_DEBUG_TXT_TIBBO?TIBBO
  +--> ?PR?_DEBUGBUFFERMF?TIBBO
  +--> ?PR?_ESCRIBIRCADENASOFT_BUFFER?MAIN

?PR?_RECIBE_CMD_MONITOR?ACCESCAN                 -----    -----      -----    -----      0001H    0006H
  +--> ?PR?RX_DATA?TIBBO

?PR?RX_DATA?TIBBO                                -----    -----      -----    -----      -----    -----
  +--> ?PR?TIME_MBIT?TIBBO
  +--> ?PR?TIME_BIT?TIBBO

?PR?SECUENCIAEXPEDIDOR?VERIFICADOR               -----    -----      -----    -----      0001H    000DH
  +--> ?PR?_CARD_INSERCION?LINTECH
  +--> ?PR?TRAMA_VALIDACION_P_N?VERIFICADOR
  +--> ?CO?VERIFICADOR
  +--> ?PR?ERROR_RX_PTO?VERIFICADOR
  +--> ?PR?_CHECK_STATUS?LINTECH
  +--> ?PR?_DEBUG_TXT_TIBBO?TIBBO
  +--> ?PR?_DEBUGBUFFERMF?TIBBO
  +--> ?PR?VALIDASENSORESPASO?IO_SENSORES
  +--> ?PR?_SEND_PORTERR?PTO_PARALELO
  +--> ?PR?_PANTALLALCD?PANTALLAS
  +--> ?PR?AUT_CARD_CHECK_STATUS?LINTECH
  +--> ?PR?LOADVERIFY_EEPROM?LINTECH
BL51 BANKED LINKER/LOCATER V6.22.2.0                                                  08/31/2020  09:26:19  PAGE 13


  +--> ?PR?_RD_MF?LINTECH
  +--> ?PR?_DEBUG_HEXDEC?TIBBO
  +--> ?PR?_DEBUG_CHR_TIBBO?TIBBO
  +--> ?PR?_BLOCK_READ_CLOCK_HEX?CLOCK
  +--> ?PR?_RD_EEPROM?EEPROM
  +--> ?PR?DEBUG_DIVIDIR_TEXTO?TIBBO
  +--> ?PR?PRINTF?PRINTF
  +--> ?PR?_ANALIZA_TIEMPO?CLOCK
  +--> ?PR?_CHECK_FECHAOUT?CLOCK
  +--> ?PR?_HORARIOS?VERIFICADOR
  +--> ?PR?_CHECK_FECHAOUT_2?CLOCK
  +--> ?PR?_TRAMA_PTO_PARALELO_NEW?PTO_PARALELO
  +--> ?PR?_CMD_LPR_SALIDA?ACCESCAN
  +--> ?PR?_WR_MF?LINTECH
  +--> ?PR?_MOV_CARD?LINTECH
  +--> ?PR?VALIDASENSORES_OUT?IO_SENSORES
  +--> ?PR?_TRAMA_PTO_PARALELO_P?PTO_PARALELO

?PR?_CARD_INSERCION?LINTECH                      -----    -----      -----    -----      000EH    000AH
  +--> ?CO?LINTECH
  +--> ?PR?_DEBUG_TXT_TIBBO?TIBBO
  +--> ?PR?_DEBUGBUFFERMF?TIBBO
  +--> ?PR?_ESCRIBIRCADENASOFT_BUFFER?MAIN

?PR?ERROR_RX_PTO?VERIFICADOR                     -----    -----      -----    -----      000EH    0001H
  +--> ?CO?VERIFICADOR
  +--> ?PR?_DEBUG_TXT_TIBBO?TIBBO
  +--> ?PR?_DEBUG_CHR_TIBBO?TIBBO
  +--> ?PR?_DELAY_10MS?DELAY

?PR?_DELAY_10MS?DELAY                            -----    -----      -----    -----      000FH    0004H
  +--> ?PR?_DELAY_1MS?DELAY

?PR?_CHECK_STATUS?LINTECH                        -----    -----      -----    -----      000EH    000BH
  +--> ?CO?LINTECH
  +--> ?PR?_DEBUG_TXT_TIBBO?TIBBO
  +--> ?PR?_DEBUGBUFFERMF?TIBBO
  +--> ?PR?_ESCRIBIRCADENASOFT_BUFFER?MAIN

?PR?VALIDASENSORESPASO?IO_SENSORES               -----    -----      -----    -----      -----    -----
  +--> ?PR?SEL_SENSOR2?IO_SENSORES
  +--> ?PR?VALIDASENSOR?IO_SENSORES
  +--> ?PR?SEL_SENSOR1?IO_SENSORES
  +--> ?PR?SEL_AUTO?IO_SENSORES
  +--> ?CO?IO_SENSORES
  +--> ?PR?_DEBUG_TXT_TIBBO?TIBBO

?PR?_SEND_PORTERR?PTO_PARALELO                   -----    -----      -----    -----      000EH    0006H
  +--> ?PR?PULSO_BUS?PTO_PARALELO
  +--> ?PR?_DELAY_20US?DELAY

?PR?PULSO_BUS?PTO_PARALELO                       -----    -----      -----    -----      -----    -----
  +--> ?PR?_DELAY_20US?DELAY

?PR?_PANTALLALCD?PANTALLAS                       -----    -----      -----    -----      0010H    0008H
  +--> ?CO?PANTALLAS
  +--> ?PR?_LCD_TXT?PANTALLAS
BL51 BANKED LINKER/LOCATER V6.22.2.0                                                  08/31/2020  09:26:19  PAGE 14


  +--> ?PR?_STRLEN?STRLEN
  +--> ?PR?_TX_CHRLCD?PANTALLAS
  +--> ?PR?_RASPBERRY_DATA?PANTALLAS

?PR?_LCD_TXT?PANTALLAS                           -----    -----      -----    -----      003AH    0005H
  +--> ?PR?_TX_CHRLCD?PANTALLAS

?PR?_TX_CHRLCD?PANTALLAS                         -----    -----      -----    -----      003FH    0002H
  +--> ?PR?_PUTCHAR?MAIN

?PR?_RASPBERRY_DATA?PANTALLAS                    -----    -----      -----    -----      003AH    0005H
  +--> ?PR?_STRLEN?STRLEN
  +--> ?PR?_PUTCHAR?MAIN

?PR?AUT_CARD_CHECK_STATUS?LINTECH                -----    -----      -----    -----      000EH    000BH
  +--> ?CO?LINTECH
  +--> ?PR?_DEBUG_TXT_TIBBO?TIBBO
  +--> ?PR?_DEBUGBUFFERMF?TIBBO
  +--> ?PR?_ESCRIBIRCADENASOFT_BUFFER?MAIN

?PR?LOADVERIFY_EEPROM?LINTECH                    -----    -----      -----    -----      000EH    0010H
  +--> ?CO?LINTECH
  +--> ?PR?_DEBUG_TXT_TIBBO?TIBBO
  +--> ?PR?_DEBUGBUFFERMF?TIBBO
  +--> ?PR?_ESCRIBIRCADENASOFT_BUFFER?MAIN

?PR?_RD_MF?LINTECH                               -----    -----      -----    -----      000EH    0012H
  +--> ?CO?LINTECH
  +--> ?PR?_DEBUG_TXT_TIBBO?TIBBO
  +--> ?PR?_DEBUG_CHR_TIBBO?TIBBO
  +--> ?PR?_DEBUGBUFFERMF?TIBBO
  +--> ?PR?_ESCRIBIRCADENASOFT_BUFFER?MAIN

?PR?_DEBUG_HEXDEC?TIBBO                          -----    -----      -----    -----      000EH    0002H
  +--> ?PR?_TX_AUX?TIBBO

?PR?DEBUG_DIVIDIR_TEXTO?TIBBO                    -----    -----      -----    -----      -----    -----
  +--> ?CO?TIBBO
  +--> ?PR?_DEBUG_TXT_TIBBO?TIBBO

?PR?_ANALIZA_TIEMPO?CLOCK                        0020H.0  0000H.2    -----    -----      000EH    000FH

?PR?_CHECK_FECHAOUT?CLOCK                        -----    -----      -----    -----      000EH    000AH
  +--> ?PR?_BLOCK_READ_CLOCK_HEX?CLOCK
  +--> ?PR?_DEBUG_FECHA_ACTUAL?TIBBO

?PR?_DEBUG_FECHA_ACTUAL?TIBBO                    -----    -----      -----    -----      0018H    0003H
  +--> ?CO?TIBBO
  +--> ?PR?_DEBUG_TXT_TIBBO?TIBBO
  +--> ?PR?_HEX_BCD?CLOCK
  +--> ?PR?_DEBUG_CHR_TIBBO?TIBBO
  +--> ?PR?_TX_AUX?TIBBO

?PR?_HORARIOS?VERIFICADOR                        -----    -----      -----    -----      000EH    0011H
  +--> ?PR?ADDR_HORARIOS?PROG
  +--> ?PR?_RD_EEPROM?EEPROM
  +--> ?PR?_LEE_CLK?CLOCK
BL51 BANKED LINKER/LOCATER V6.22.2.0                                                  08/31/2020  09:26:19  PAGE 15


  +--> ?CO?VERIFICADOR
  +--> ?PR?_DEBUG_TXT_TIBBO?TIBBO
  +--> ?PR?_DEBUG_CHR_TIBBO?TIBBO
  +--> ?PR?_BLOQUE_HORARIO?VERIFICADOR

?PR?_BLOQUE_HORARIO?VERIFICADOR                  -----    -----      -----    -----      001FH    0007H
  +--> ?CO?VERIFICADOR
  +--> ?PR?_DEBUG_TXT_TIBBO?TIBBO
  +--> ?PR?_LEE_CLK?CLOCK
  +--> ?PR?_DEBUG_CHR_TIBBO?TIBBO
  +--> ?PR?_HORA_MAXIMA?VERIFICADOR
  +--> ?PR?_EN_HORARIO?VERIFICADOR
  +--> ?PR?_RD_EEPROM?EEPROM

?PR?_HORA_MAXIMA?VERIFICADOR                     -----    -----      -----    -----      002BH    0008H
  +--> ?PR?_RD_EEPROM?EEPROM
  +--> ?PR?_DEBUG_CHR_TIBBO?TIBBO
  +--> ?CO?VERIFICADOR
  +--> ?PR?_DEBUG_TXT_TIBBO?TIBBO

?PR?_EN_HORARIO?VERIFICADOR                      -----    -----      -----    -----      0026H    0005H
  +--> ?CO?VERIFICADOR
  +--> ?PR?_DEBUG_TXT_TIBBO?TIBBO
  +--> ?PR?_HORA_MAXIMA?VERIFICADOR

?PR?_TRAMA_PTO_PARALELO_NEW?PTO_PARALELO         -----    -----      -----    -----      000EH    0026H
  +--> ?PR?_BLOCK_READ_CLOCK_HEX?CLOCK
  +--> ?PR?_SEND_PORT?PTO_PARALELO
  +--> ?PR?DEBUG_DIVIDIR_TEXTO?TIBBO
  +--> ?CO?PTO_PARALELO
  +--> ?PR?_DEBUG_TXT_TIBBO?TIBBO
  +--> ?PR?_DEBUGBUFFERMF?TIBBO

?PR?_SEND_PORT?PTO_PARALELO                      -----    -----      -----    -----      0034H    000AH
  +--> ?PR?PULSO_BUS?PTO_PARALELO
  +--> ?PR?_DELAY_20US?DELAY

?PR?_CMD_LPR_SALIDA?ACCESCAN                     -----    -----      -----    -----      000EH    0025H
  +--> ?PR?DIR_BOARD?IO_SENSORES
  +--> ?PR?_HEX_BCD?CLOCK
  +--> ?PR?_MONITOR_CHR?ACCESCAN

?PR?DIR_BOARD?IO_SENSORES                        -----    -----      -----    -----      -----    -----
  +--> ?PR?SEL_DIR1?IO_SENSORES
  +--> ?PR?SEL_DIR2?IO_SENSORES

?PR?_MONITOR_CHR?ACCESCAN                        -----    -----      -----    -----      0033H    0005H
  +--> ?PR?_TX_AUX?TIBBO

?PR?_WR_MF?LINTECH                               -----    -----      -----    -----      000EH    0026H
  +--> ?CO?LINTECH
  +--> ?PR?_DEBUG_TXT_TIBBO?TIBBO
  +--> ?PR?_DEBUG_CHR_TIBBO?TIBBO
  +--> ?PR?DIR_BOARD?IO_SENSORES
  +--> ?PR?_DEBUGBUFFERMF?TIBBO
  +--> ?PR?_ESCRIBIRCADENASOFT_BUFFER?MAIN

BL51 BANKED LINKER/LOCATER V6.22.2.0                                                  08/31/2020  09:26:19  PAGE 16


?PR?_MOV_CARD?LINTECH                            -----    -----      -----    -----      000EH    000CH
  +--> ?CO?LINTECH
  +--> ?PR?_DEBUG_TXT_TIBBO?TIBBO
  +--> ?PR?_DEBUGBUFFERMF?TIBBO
  +--> ?PR?_ESCRIBIRCADENASOFT_BUFFER?MAIN

?PR?VALIDASENSORES_OUT?IO_SENSORES               -----    -----      -----    -----      -----    -----
  +--> ?PR?SEL_SENSOR2?IO_SENSORES
  +--> ?PR?VALIDASENSOR?IO_SENSORES

?PR?_TRAMA_PTO_PARALELO_P?PTO_PARALELO           -----    -----      -----    -----      000EH    0008H
  +--> ?PR?_SEND_PORT?PTO_PARALELO
  +--> ?PR?DEBUG_DIVIDIR_TEXTO?TIBBO
  +--> ?PR?_DEBUGBUFFERMF?TIBBO

?PR?_RECIBE_PORT?PTO_PARALELO                    -----    -----      -----    -----      0001H    0008H
  +--> ?PR?OFF_TIMER0_INTERRUP?MAIN
  +--> ?PR?ON_TIMER0_INTERRUP?MAIN

?PR?_VALIDA_TRAMA_PTO?ACCESCAN                   -----    -----      -----    -----      0001H    000FH
  +--> ?PR?_RD_EEPROM?EEPROM
  +--> ?PR?_VALIDAR_CLK?CLOCK
  +--> ?PR?_BLOCK_WRITE_CLOCK_ASCII?CLOCK
  +--> ?PR?RELOJ_PANTALLA_LCD?PANTALLAS
  +--> ?PR?_PANTALLALCD?PANTALLAS
  +--> ?CO?ACCESCAN
  +--> ?PR?_DEBUG_TXT_TIBBO?TIBBO
  +--> ?PR?_BYTEHEX_DECIMAL?CLOCK
  +--> ?PR?_TWO_BYTEHEX_DECIMAL?CLOCK
  +--> ?PR?VALIDASENSORESPASO?IO_SENSORES
  +--> ?PR?_CMD_LPR_SALIDA_WIEGAND?ACCESCAN
  +--> ?PR?_PANTALLALCD_LINEA_2?PANTALLAS

?PR?_BLOCK_WRITE_CLOCK_ASCII?CLOCK               -----    -----      -----    -----      0010H    0003H
  +--> ?PR?_TWO_ONE?CLOCK
  +--> ?PR?_WR_CLK?CLOCK

?PR?_WR_CLK?CLOCK                                -----    -----      -----    -----      0013H    0002H
  +--> ?PR?_DELAY_20US?DELAY
  +--> ?PR?_EB_CLK?CLOCK

?PR?RELOJ_PANTALLA_LCD?PANTALLAS                 -----    -----      -----    -----      0010H    000DH
  +--> ?CO?PANTALLAS
  +--> ?PR?_BLOCK_READ_CLOCK?CLOCK
  +--> ?PR?_LCD_TXT_NUM_CHAR?PANTALLAS
  +--> ?PR?_RASPBERRY_DATA?PANTALLAS

?PR?_BLOCK_READ_CLOCK?CLOCK                      -----    -----      -----    -----      001DH    0003H
  +--> ?PR?_LEE_CLK?CLOCK

?PR?_LCD_TXT_NUM_CHAR?PANTALLAS                  -----    -----      -----    -----      001DH    0006H
  +--> ?PR?_TX_CHRLCD?PANTALLAS

?PR?_BYTEHEX_DECIMAL?CLOCK                       -----    -----      -----    -----      0010H    0001H

?PR?_TWO_BYTEHEX_DECIMAL?CLOCK                   -----    -----      -----    -----      0010H    000CH
  +--> ?PR?_POW?POW
BL51 BANKED LINKER/LOCATER V6.22.2.0                                                  08/31/2020  09:26:19  PAGE 17



?PR?_POW?POW                                     -----    -----      -----    -----      001CH    000AH
  +--> ?PR?LOG?LOG
  +--> ?PR?EXP?EXP

?PR?LOG?LOG                                      0020H.0  0000H.1    -----    -----      0026H    0004H

?PR?_CMD_LPR_SALIDA_WIEGAND?ACCESCAN             -----    -----      -----    -----      0010H    0022H
  +--> ?PR?DIR_BOARD?IO_SENSORES
  +--> ?PR?_BLOCK_READ_CLOCK_ASCII?CLOCK
  +--> ?PR?_MONITOR_CHR?ACCESCAN

?PR?_PANTALLALCD_LINEA_2?PANTALLAS               -----    -----      -----    -----      0010H    002AH
  +--> ?CO?PANTALLAS
  +--> ?PR?_LCD_TXT?PANTALLAS
  +--> ?PR?_STRLEN?STRLEN
  +--> ?PR?_TX_CHRLCD?PANTALLAS
  +--> ?PR?_STRCAT?STRCAT
  +--> ?PR?_RASPBERRY_DATA?PANTALLAS

?PR?_DEBUG_PTO_PARALELO?TIBBO                    -----    -----      -----    -----      0001H    0004H
  +--> ?CO?TIBBO
  +--> ?PR?_DEBUG_TXT_TIBBO?TIBBO
  +--> ?PR?_DEBUGBUFFERMF?TIBBO
  +--> ?PR?_DEBUG_CHR_TIBBO?TIBBO
  +--> ?PR?DEBUG_DIVIDIR_TEXTO?TIBBO

?PR?MSJ_LCD_INFORMATIVO?IO_SENSORES              -----    -----      -----    -----      0001H    0001H
  +--> ?PR?SEL_FUNCION?IO_SENSORES
  +--> ?PR?LOAD_AND_SEND_INFO_RELOJ?PTO_PARA...
  +--> ?PR?LOAD_AND_SEND_ID_COD?PTO_PARALELO
  +--> ?PR?_RD_EEPROM?EEPROM
  +--> ?PR?_SEND_PORTERR?PTO_PARALELO

?PR?LOAD_AND_SEND_INFO_RELOJ?PTO_PARA...         -----    -----      -----    -----      0002H    000BH
  +--> ?PR?_BLOCK_READ_CLOCK?CLOCK
  +--> ?PR?_LEE_CLK?CLOCK
  +--> ?PR?_SEND_PORT?PTO_PARALELO

?PR?LOAD_AND_SEND_ID_COD?PTO_PARALELO            -----    -----      -----    -----      0002H    0011H
  +--> ?CO?PTO_PARALELO
  +--> ?PR?PRINTF?PRINTF
  +--> ?PR?_SEND_PORT?PTO_PARALELO



SYMBOL TABLE OF MODULE:  .\Objects\verificador_v_01_raspberry (MAIN)

  VALUE           TYPE          NAME
  ----------------------------------

  -------         MODULE        MAIN
  C:0000H         SYMBOL        _ICE_DUMMY_
  D:0080H         PUBLIC        P0
  D:0090H         PUBLIC        P1
  C:98A5H         PUBLIC        timer0_int
  D:00B0H         PUBLIC        P3
BL51 BANKED LINKER/LOCATER V6.22.2.0                                                  08/31/2020  09:26:19  PAGE 18


  B:00A8H.7       PUBLIC        EA
  C:9C87H         PUBLIC        off_Timer0_Interrup
  X:00F3H         PUBLIC        ValTimeOutCom
  X:00F4H         PUBLIC        Buffer_Rta_Lintech
  X:0126H         PUBLIC        Timer_wait
  X:0127H         PUBLIC        g_cContByteRx
  B:0080H.0       PUBLIC        rx_ip
  B:0080H.3       PUBLIC        Atascado
  C:8A47H         PUBLIC        main
  X:0128H         PUBLIC        Timer_tivo
  B:0090H.7       PUBLIC        lock
  I:0022H         PUBLIC        rbuf
  C:9C78H         PUBLIC        on_Timer0_Interrup
  I:0054H         PUBLIC        tbuf
  B:0090H.1       PUBLIC        DataIn
  D:0089H         PUBLIC        TMOD
  X:012AH         PUBLIC        Debug_Tibbo
  B:0021H.1       PUBLIC        prto_ready
  X:012BH         PUBLIC        Raspberry
  X:012CH         PUBLIC        SIN_COBRO
  X:012EH         PUBLIC        Tipo_Vehiculo
  B:00B0H.3       PUBLIC        busy
  C:9BEAH         PUBLIC        ini_timer
  B:00A8H.1       PUBLIC        ET0
  B:0088H.5       PUBLIC        TF0
  X:012FH         PUBLIC        COMPARACION_ACTIVA
  D:008CH         PUBLIC        TH0
  X:0130H         PUBLIC        ACK
  X:0131H         PUBLIC        g_cEstadoComSoft
  D:008AH         PUBLIC        TL0
  B:0088H.4       PUBLIC        TR0
  C:9BFAH         PUBLIC        inicia_board
  X:0132H         PUBLIC        T_GRACIA
  X:0134H         PUBLIC        COD_PARK
  B:0080H.7       PUBLIC        sel_com
  X:0136H         PUBLIC        STX_LINTECH
  C:9C19H         PUBLIC        _getkey
  X:0137H         PUBLIC        g_cEstadoComSeqMF
  X:0138H         PUBLIC        ETX
  X:0139H         PUBLIC        ID_CLIENTE
  C:94DBH         PUBLIC        _EscribirCadenaSoft_buffer
  B:0021H.2       PUBLIC        buffer_ready
  C:9778H         PUBLIC        _putchar
  -------         PROC          TIMER0_INT
  C:98A5H         LINE#         13
  C:98ABH         LINE#         15
  C:98B3H         LINE#         16
  C:98B3H         LINE#         17
  C:98B5H         LINE#         18
  C:98B7H         LINE#         19
  C:98B9H         LINE#         21
  C:98B9H         LINE#         22
  C:98BFH         LINE#         23
  C:98C5H         LINE#         24
  C:98D3H         LINE#         25
  C:98D5H         LINE#         26
  C:98D5H         LINE#         27
BL51 BANKED LINKER/LOCATER V6.22.2.0                                                  08/31/2020  09:26:19  PAGE 19


  -------         ENDPROC       TIMER0_INT
  -------         PROC          INI_TIMER
  C:9BEAH         LINE#         30
  C:9BEAH         LINE#         31
  C:9BEAH         LINE#         33
  C:9BF2H         LINE#         35
  C:9BF5H         LINE#         36
  C:9BF7H         LINE#         37
  C:9BF9H         LINE#         39
  -------         ENDPROC       INI_TIMER
  -------         PROC          ON_TIMER0_INTERRUP
  C:9C78H         LINE#         42
  C:9C78H         LINE#         43
  C:9C78H         LINE#         44
  C:9C7AH         LINE#         45
  C:9C7CH         LINE#         47
  -------         ENDPROC       ON_TIMER0_INTERRUP
  -------         PROC          OFF_TIMER0_INTERRUP
  C:9C87H         LINE#         50
  C:9C87H         LINE#         51
  C:9C87H         LINE#         52
  C:9C89H         LINE#         54
  -------         ENDPROC       OFF_TIMER0_INTERRUP
  -------         PROC          _GETKEY
  -------         DO            
  D:0006H         SYMBOL        k
  -------         ENDDO         
  C:9C19H         LINE#         62
  C:9C19H         LINE#         63
  C:9C19H         LINE#         67
  C:9C19H         LINE#         68
  C:9C1CH         LINE#         69
  C:9C1CH         LINE#         70
  C:9C24H         LINE#         72
  C:9C24H         LINE#         73
  -------         ENDPROC       _GETKEY
  -------         PROC          _PUTCHAR
  X:00BBH         SYMBOL        c
  -------         DO            
  X:00BCH         SYMBOL        i
  -------         ENDDO         
  C:9778H         LINE#         77
  C:977DH         LINE#         78
  C:977DH         LINE#         81
  C:978CH         LINE#         82
  C:978CH         LINE#         83
  C:97A2H         LINE#         84
  C:97A2H         LINE#         86
  C:97B0H         LINE#         87
  C:97B0H         LINE#         89
  C:97B5H         LINE#         90
  -------         ENDPROC       _PUTCHAR
  -------         PROC          _ESCRIBIRCADENASOFT_BUFFER
  X:0034H         SYMBOL        buffer
  X:0037H         SYMBOL        tamano_cadena
  -------         DO            
  X:0038H         SYMBOL        i
BL51 BANKED LINKER/LOCATER V6.22.2.0                                                  08/31/2020  09:26:19  PAGE 20


  X:0039H         SYMBOL        d
  -------         ENDDO         
  C:94DBH         LINE#         94
  C:94E9H         LINE#         95
  C:94E9H         LINE#         97
  C:94F7H         LINE#         98
  C:94F7H         LINE#         99
  C:950EH         LINE#         100
  C:9518H         LINE#         101
  C:9520H         LINE#         102
  -------         ENDPROC       _ESCRIBIRCADENASOFT_BUFFER
  -------         PROC          INICIA_BOARD
  C:9BFAH         LINE#         139
  C:9BFAH         LINE#         140
  C:9BFAH         LINE#         141
  C:9BFDH         LINE#         142
  C:9C00H         LINE#         143
  C:9C03H         LINE#         144
  C:9C05H         LINE#         145
  C:9C07H         LINE#         146
  C:9C09H         LINE#         148
  -------         ENDPROC       INICIA_BOARD
  -------         PROC          MAIN
  -------         DO            
  X:00CBH         SYMBOL        buffer
  X:0000H         SYMBOL        Length_trama
  -------         ENDDO         
  C:8A47H         LINE#         158
  C:8A47H         LINE#         159
  C:8A47H         LINE#         167
  C:8A4AH         LINE#         168
  C:8A4DH         LINE#         169
  C:8A50H         LINE#         170
  C:8A53H         LINE#         171
  C:8A56H         LINE#         172
  C:8A58H         LINE#         174
  C:8A5BH         LINE#         175
  C:8A62H         LINE#         176
  C:8A65H         LINE#         177
  C:8A6AH         LINE#         179
  C:8A6DH         LINE#         181
  C:8A70H         LINE#         182
  C:8A70H         LINE#         183
  C:8A73H         LINE#         184
  C:8A73H         LINE#         185
  C:8A76H         LINE#         186
  C:8A7CH         LINE#         187
  C:8A82H         LINE#         189
  C:8A82H         LINE#         190
  C:8A82H         LINE#         192
  C:8A85H         LINE#         194
  C:8A85H         LINE#         195
  C:8A88H         LINE#         196
  C:8A88H         LINE#         198
  C:8A96H         LINE#         201
  C:8A96H         LINE#         203
  C:8A99H         LINE#         205
BL51 BANKED LINKER/LOCATER V6.22.2.0                                                  08/31/2020  09:26:19  PAGE 21


  C:8A9CH         LINE#         206
  C:8A9CH         LINE#         209
  C:8AABH         LINE#         212
  C:8AB4H         LINE#         215
  C:8AC2H         LINE#         218
  C:8AC2H         LINE#         220
  C:8AC4H         LINE#         222
  C:8AC4H         LINE#         223
  C:8AC7H         LINE#         224
  C:8AC7H         LINE#         225
  C:8ACAH         LINE#         229
  -------         ENDPROC       MAIN
  -------         ENDMOD        MAIN

  -------         MODULE        ACCESCAN
  C:0000H         SYMBOL        _ICE_DUMMY_
  D:0080H         PUBLIC        P0
  D:0090H         PUBLIC        P1
  B:0080H.2       PUBLIC        led_err_imp
  C:9677H         PUBLIC        _Monitor_chr
  C:4C6EH         PUBLIC        _Cmd_LPR_Salida
  B:0080H.3       PUBLIC        Atascado
  B:0080H.0       PUBLIC        rx_ip
  B:0090H.7       PUBLIC        lock
  X:01FCH         PUBLIC        USE_LPR
  C:3E14H         PUBLIC        _Valida_Trama_Pto
  C:842CH         PUBLIC        _recibe_cmd_Monitor
  C:7722H         PUBLIC        _Cmd_LPR_Salida_wiegand
  -------         PROC          _VALIDA_TRAMA_PTO
  X:0001H         SYMBOL        buffer
  X:0004H         SYMBOL        length_trama
  -------         DO            
  X:01FBH         SYMBOL        cont
  X:0005H         SYMBOL        buff
  -------         ENDDO         
  C:3E14H         LINE#         83
  C:3E22H         LINE#         84
  C:3E22H         LINE#         88
  C:3E30H         LINE#         90
  C:3E67H         LINE#         91
  C:3E67H         LINE#         92
  C:3E7CH         LINE#         93
  C:3E7CH         LINE#         94
  C:3E8FH         LINE#         96
  C:3E92H         LINE#         98
  C:3E92H         LINE#         100
  C:3E92H         LINE#         102
  C:3EA4H         LINE#         103
  C:3EA4H         LINE#         104
  C:3EAAH         LINE#         105
  C:3EB7H         LINE#         106
  C:3EB7H         LINE#         107
  C:3EBCH         LINE#         108
  C:3EBEH         LINE#         109
  C:3EC3H         LINE#         110
  C:3EC5H         LINE#         111
  C:3EC7H         LINE#         112
BL51 BANKED LINKER/LOCATER V6.22.2.0                                                  08/31/2020  09:26:19  PAGE 22


  C:3ECBH         LINE#         113
  C:3ECBH         LINE#         114
  C:3ECCH         LINE#         116
  C:3EE4H         LINE#         117
  C:3EE4H         LINE#         119
  C:3EF1H         LINE#         120
  C:3EF1H         LINE#         121
  C:3EF3H         LINE#         122
  C:3EF5H         LINE#         123
  C:3EF7H         LINE#         124
  C:3EF9H         LINE#         125
  C:3EF9H         LINE#         127
  C:3F1FH         LINE#         128
  C:3F1FH         LINE#         129
  C:3F23H         LINE#         130
  C:3F28H         LINE#         131
  C:3F31H         LINE#         132
  C:3F36H         LINE#         133
  C:3F36H         LINE#         136
  C:3F37H         LINE#         139
  C:3F49H         LINE#         140
  C:3F49H         LINE#         141
  C:3F4BH         LINE#         142
  C:3F4EH         LINE#         144
  C:3F60H         LINE#         145
  C:3F60H         LINE#         146
  C:3F62H         LINE#         147
  C:3F65H         LINE#         149
  C:3F7FH         LINE#         150
  C:3F7FH         LINE#         151
  C:3F81H         LINE#         152
  C:3F84H         LINE#         155
  C:3F9EH         LINE#         156
  C:3F9EH         LINE#         157
  C:3FA0H         LINE#         158
  C:3FA2H         LINE#         161
  C:3FBCH         LINE#         162
  C:3FBCH         LINE#         163
  C:3FBEH         LINE#         164
  C:3FC0H         LINE#         168
  C:3FDAH         LINE#         169
  C:3FDAH         LINE#         170
  C:3FDCH         LINE#         171
  C:3FDEH         LINE#         174
  C:3FF8H         LINE#         175
  C:3FF8H         LINE#         176
  C:3FFAH         LINE#         177
  C:3FFCH         LINE#         179
  C:4016H         LINE#         180
  C:4016H         LINE#         181
  C:401BH         LINE#         182
  C:401BH         LINE#         184
  C:404BH         LINE#         185
  C:404BH         LINE#         186
  C:4059H         LINE#         187
  C:405CH         LINE#         190
  C:409FH         LINE#         191
BL51 BANKED LINKER/LOCATER V6.22.2.0                                                  08/31/2020  09:26:19  PAGE 23


  C:409FH         LINE#         193
  C:40B4H         LINE#         194
  C:40BAH         LINE#         195
  C:40E4H         LINE#         198
  C:40ECH         LINE#         199
  C:40ECH         LINE#         202
  C:40F3H         LINE#         203
  C:40F3H         LINE#         204
  C:40F8H         LINE#         205
  C:40F8H         LINE#         206
  C:40FAH         LINE#         208
  C:40FAH         LINE#         209
  C:4103H         LINE#         210
  C:410BH         LINE#         211
  C:410BH         LINE#         216
  C:410DH         LINE#         219
  C:410DH         LINE#         222
  C:4114H         LINE#         223
  C:4114H         LINE#         224
  C:4119H         LINE#         225
  C:4119H         LINE#         226
  C:4124H         LINE#         230
  C:4124H         LINE#         231
  C:4124H         LINE#         233
  -------         ENDPROC       _VALIDA_TRAMA_PTO
  -------         PROC          _RECIBE_CMD_MONITOR
  X:0001H         SYMBOL        buffer_cmd
  -------         DO            
  X:0004H         SYMBOL        j
  X:0005H         SYMBOL        NumDatos
  D:0005H         SYMBOL        time_out
  X:0006H         SYMBOL        MaxChrRx
  D:0006H         SYMBOL        contador
  -------         ENDDO         
  C:842CH         LINE#         239
  C:8437H         LINE#         240
  C:8437H         LINE#         244
  C:843CH         LINE#         245
  C:8440H         LINE#         247
  C:8448H         LINE#         248
  C:8448H         LINE#         249
  C:8459H         LINE#         250
  C:8459H         LINE#         251
  C:845CH         LINE#         252
  C:845DH         LINE#         253
  C:8463H         LINE#         254
  C:8463H         LINE#         255
  C:8468H         LINE#         256
  C:8471H         LINE#         257
  C:8471H         LINE#         258
  C:8473H         LINE#         259
  C:847BH         LINE#         260
  C:847BH         LINE#         261
  C:847DH         LINE#         262
  C:8482H         LINE#         263
  C:8488H         LINE#         264
  C:849AH         LINE#         265
BL51 BANKED LINKER/LOCATER V6.22.2.0                                                  08/31/2020  09:26:19  PAGE 24


  C:84A4H         LINE#         266
  C:84ACH         LINE#         268
  C:84BBH         LINE#         271
  C:84BBH         LINE#         272
  C:84C0H         LINE#         273
  -------         ENDPROC       _RECIBE_CMD_MONITOR
  -------         PROC          _MONITOR_CHR
  X:0033H         SYMBOL        str
  X:0036H         SYMBOL        num_char
  -------         DO            
  X:0037H         SYMBOL        j
  -------         ENDDO         
  C:9677H         LINE#         303
  C:9685H         LINE#         304
  C:9685H         LINE#         306
  C:9693H         LINE#         307
  C:9693H         LINE#         308
  C:96A5H         LINE#         309
  C:96AFH         LINE#         310
  C:96B7H         LINE#         311
  -------         ENDPROC       _MONITOR_CHR
  -------         PROC          _CMD_LPR_SALIDA_WIEGAND
  X:0010H         SYMBOL        buffer
  -------         DO            
  X:0013H         SYMBOL        Buffer_Lpr
  X:0031H         SYMBOL        j
  -------         ENDDO         
  C:7722H         LINE#         316
  C:772DH         LINE#         317
  C:772DH         LINE#         319
  C:7733H         LINE#         320
  C:7738H         LINE#         321
  C:7740H         LINE#         322
  C:7744H         LINE#         323
  C:774DH         LINE#         324
  C:774DH         LINE#         325
  C:775EH         LINE#         326
  C:7760H         LINE#         328
  C:7760H         LINE#         329
  C:7771H         LINE#         330
  C:7771H         LINE#         334
  C:7788H         LINE#         335
  C:7788H         LINE#         336
  C:7797H         LINE#         337
  C:77A1H         LINE#         339
  C:77A9H         LINE#         340
  C:77BDH         LINE#         342
  C:77CDH         LINE#         343
  C:77DEH         LINE#         344
  C:77EBH         LINE#         348
  -------         ENDPROC       _CMD_LPR_SALIDA_WIEGAND
  -------         PROC          _CMD_LPR_SALIDA
  X:000EH         SYMBOL        buffer_S1_B0
  X:0011H         SYMBOL        buffer_S1_B2
  -------         DO            
  X:0014H         SYMBOL        Buffer_Lpr
  D:0004H         SYMBOL        temp
BL51 BANKED LINKER/LOCATER V6.22.2.0                                                  08/31/2020  09:26:19  PAGE 25


  X:0032H         SYMBOL        j
  -------         ENDDO         
  C:4C6EH         LINE#         353
  C:4C79H         LINE#         354
  C:4C79H         LINE#         359
  C:4C7FH         LINE#         360
  C:4C84H         LINE#         361
  C:4C8CH         LINE#         362
  C:4C90H         LINE#         365
  C:4CA6H         LINE#         366
  C:4CA6H         LINE#         367
  C:4CB7H         LINE#         368
  C:4CB9H         LINE#         370
  C:4CB9H         LINE#         371
  C:4CCAH         LINE#         372
  C:4CCAH         LINE#         381
  C:4CCAH         LINE#         382
  C:4CECH         LINE#         383
  C:4CF6H         LINE#         384
  C:4D06H         LINE#         390
  C:4D1AH         LINE#         392
  C:4D30H         LINE#         393
  C:4D55H         LINE#         394
  C:4D6EH         LINE#         396
  C:4D87H         LINE#         397
  C:4DACH         LINE#         398
  C:4DC5H         LINE#         400
  C:4DDEH         LINE#         401
  C:4E03H         LINE#         402
  C:4E1CH         LINE#         404
  C:4E35H         LINE#         405
  C:4E5AH         LINE#         406
  C:4E73H         LINE#         408
  C:4E8CH         LINE#         409
  C:4EB1H         LINE#         410
  C:4ECAH         LINE#         414
  C:4EDEH         LINE#         417
  C:4EF2H         LINE#         419
  -------         ENDPROC       _CMD_LPR_SALIDA
  -------         ENDMOD        ACCESCAN

  -------         MODULE        CLOCK
  C:0000H         SYMBOL        _ICE_DUMMY_
  C:96ECH         PUBLIC        _two_one
  D:0090H         PUBLIC        P1
  C:6A7FH         PUBLIC        _validar_clk
  C:9966H         PUBLIC        _wr_clk
  C:58A8H         PUBLIC        _check_fechaOut
  B:00D0H.7       PUBLIC        CY
  C:0003H         PUBLIC        p_ck
  C:7AF9H         PUBLIC        _check_fechaOut_2
  C:84C1H         PUBLIC        _hex_ascii
  X:01FDH         PUBLIC        data_clk
  C:9C41H         PUBLIC        cond_ini_clock
  C:77F8H         PUBLIC        _Block_read_Clock
  B:0090H.4       PUBLIC        sck
  C:7FC9H         PUBLIC        _Block_read_Clock_Hex
BL51 BANKED LINKER/LOCATER V6.22.2.0                                                  08/31/2020  09:26:19  PAGE 26


  C:5A21H         PUBLIC        _Block_read_clock_ascii
  C:97D2H         PUBLIC        _hex_bcd
  C:9AE6H         PUBLIC        _bcd_hex
  C:9319H         PUBLIC        _ByteHex_Decimal
  C:867EH         PUBLIC        _lee_clk
  C:2CC1H         PUBLIC        _analiza_tiempo
  B:0090H.5       PUBLIC        io
  C:8794H         PUBLIC        _Block_write_clock_ascii
  B:0090H.6       PUBLIC        rst
  C:9739H         PUBLIC        _eb_clk
  C:441AH         PUBLIC        _Two_ByteHex_Decimal
  -------         PROC          P_CK
  C:0003H         LINE#         40
  C:0003H         LINE#         41
  C:0003H         LINE#         42
  C:0005H         LINE#         43
  C:0008H         LINE#         44
  C:000AH         LINE#         45
  -------         ENDPROC       P_CK
  -------         PROC          _EB_CLK
  X:00C8H         SYMBOL        dir_clk
  -------         DO            
  X:00C9H         SYMBOL        nbits
  -------         ENDDO         
  C:9739H         LINE#         47
  C:973EH         LINE#         49
  C:9743H         LINE#         50
  C:9743H         LINE#         51
  C:974CH         LINE#         52
  C:974FH         LINE#         53
  C:974FH         LINE#         54
  C:9751H         LINE#         55
  C:9753H         LINE#         57
  C:9753H         LINE#         58
  C:9755H         LINE#         59
  C:9755H         LINE#         60
  C:9758H         LINE#         61
  C:9777H         LINE#         62
  -------         ENDPROC       _EB_CLK
  C:8674H         SYMBOL        L?0179
  -------         PROC          L?0178
  -------         ENDPROC       L?0178
  C:8674H         SYMBOL        L?0179
  -------         PROC          _LEE_CLK
  X:00C5H         SYMBOL        dir_clk
  -------         DO            
  X:00C6H         SYMBOL        nbits
  -------         ENDDO         
  C:867EH         LINE#         64
  C:8683H         LINE#         66
  C:8685H         LINE#         67
  C:868CH         LINE#         68
  C:8694H         LINE#         69
  C:86ADH         LINE#         70
  C:86ADH         LINE#         71
  C:86B0H         LINE#         72
  C:86B0H         LINE#         73
BL51 BANKED LINKER/LOCATER V6.22.2.0                                                  08/31/2020  09:26:19  PAGE 27


  C:86B7H         LINE#         74
  C:86C1H         LINE#         75
  C:86C6H         LINE#         76
  C:86C6H         LINE#         77
  C:86C6H         LINE#         78
  C:86C9H         LINE#         79
  C:86C9H         LINE#         80
  C:86D0H         LINE#         81
  C:86E1H         LINE#         82
  C:86E1H         LINE#         83
  C:86E9H         LINE#         84
  C:86E9H         LINE#         85
  C:86E9H         LINE#         86
  C:86ECH         LINE#         87
  C:86FCH         LINE#         88
  C:86FEH         LINE#         89
  C:8703H         LINE#         90
  -------         ENDPROC       _LEE_CLK
  -------         PROC          _WR_CLK
  X:0013H         SYMBOL        dir_clk
  X:0014H         SYMBOL        byte
  C:9966H         LINE#         92
  C:996EH         LINE#         93
  C:9970H         LINE#         94
  C:9977H         LINE#         95
  C:997FH         LINE#         96
  C:9988H         LINE#         97
  C:998BH         LINE#         98
  C:998DH         LINE#         100
  -------         ENDPROC       _WR_CLK
  C:96B8H         SYMBOL        L?0174
  C:96D6H         SYMBOL        L?0175
  -------         PROC          L?0173
  -------         ENDPROC       L?0173
  C:96B8H         SYMBOL        L?0174
  C:96D6H         SYMBOL        L?0175
  -------         PROC          _TWO_ONE
  D:0007H         SYMBOL        byte_h
  D:0005H         SYMBOL        byte_l
  -------         DO            
  D:0007H         SYMBOL        byte_out
  -------         ENDDO         
  C:96ECH         LINE#         102
  C:96ECH         LINE#         103
  C:96ECH         LINE#         105
  C:96EFH         LINE#         106
  C:96F3H         LINE#         107
  C:96F6H         LINE#         108
  C:96F8H         LINE#         109
  C:96F8H         LINE#         110
  -------         ENDPROC       _TWO_ONE
  -------         PROC          _VALIDAR_CLK
  D:0001H         SYMBOL        datos_clock
  -------         DO            
  D:0007H         SYMBOL        validador
  -------         ENDDO         
  C:6A7FH         LINE#         114
BL51 BANKED LINKER/LOCATER V6.22.2.0                                                  08/31/2020  09:26:19  PAGE 28


  C:6A7FH         LINE#         115
  C:6A7FH         LINE#         116
  C:6A81H         LINE#         119
  C:6A96H         LINE#         120
  C:6A96H         LINE#         122
  C:6AAEH         LINE#         123
  C:6AAEH         LINE#         125
  C:6AC6H         LINE#         126
  C:6AC6H         LINE#         127
  C:6ADEH         LINE#         128
  C:6ADEH         LINE#         129
  C:6AF6H         LINE#         130
  C:6AF6H         LINE#         131
  C:6B0BH         LINE#         132
  C:6B0BH         LINE#         133
  C:6B1DH         LINE#         134
  C:6B1DH         LINE#         135
  C:6B2FH         LINE#         136
  C:6B2FH         LINE#         137
  C:6B41H         LINE#         138
  C:6B41H         LINE#         139
  C:6B53H         LINE#         140
  C:6B53H         LINE#         141
  C:6B65H         LINE#         142
  C:6B65H         LINE#         143
  C:6B75H         LINE#         144
  C:6B75H         LINE#         145
  C:6B75H         LINE#         146
  C:6B75H         LINE#         147
  C:6B76H         LINE#         149
  C:6B76H         LINE#         150
  C:6B78H         LINE#         151
  C:6B78H         LINE#         152
  C:6B79H         LINE#         154
  C:6B79H         LINE#         155
  C:6B7BH         LINE#         157
  C:6B7BH         LINE#         158
  C:6B7CH         LINE#         160
  C:6B7CH         LINE#         161
  C:6B7EH         LINE#         163
  C:6B7EH         LINE#         165
  C:6B7FH         LINE#         167
  C:6B7FH         LINE#         168
  C:6B81H         LINE#         170
  C:6B81H         LINE#         171
  C:6B82H         LINE#         173
  C:6B82H         LINE#         174
  C:6B84H         LINE#         176
  C:6B84H         LINE#         177
  C:6B85H         LINE#         179
  C:6B85H         LINE#         180
  C:6B87H         LINE#         182
  C:6B87H         LINE#         183
  C:6B88H         LINE#         185
  C:6B88H         LINE#         186
  C:6B8AH         LINE#         188
  C:6B8AH         LINE#         189
BL51 BANKED LINKER/LOCATER V6.22.2.0                                                  08/31/2020  09:26:19  PAGE 29


  C:6B8AH         LINE#         191
  C:6B8BH         LINE#         193
  C:6B8BH         LINE#         194
  C:6B8DH         LINE#         196
  C:6B8DH         LINE#         198
  C:6B8EH         LINE#         201
  C:6B8EH         LINE#         202
  C:6B90H         LINE#         204
  C:6B90H         LINE#         206
  C:6B91H         LINE#         209
  C:6B91H         LINE#         210
  C:6B93H         LINE#         212
  C:6B93H         LINE#         214
  C:6B93H         LINE#         216
  -------         ENDPROC       _VALIDAR_CLK
  -------         PROC          _BLOCK_WRITE_CLOCK_ASCII
  X:0010H         SYMBOL        datos_clock
  C:8794H         LINE#         222
  C:879FH         LINE#         224
  C:879FH         LINE#         228
  C:87A9H         LINE#         229
  C:87A9H         LINE#         230
  C:87A9H         LINE#         231
  C:87A9H         LINE#         233
  C:87B3H         LINE#         234
  C:87BDH         LINE#         235
  C:87C7H         LINE#         236
  C:87C7H         LINE#         237
  C:87C7H         LINE#         238
  C:87C7H         LINE#         240
  C:87D1H         LINE#         241
  C:87D1H         LINE#         242
  C:87D1H         LINE#         243
  C:87D1H         LINE#         245
  C:87DBH         LINE#         246
  C:87DBH         LINE#         247
  C:87DBH         LINE#         248
  C:87DBH         LINE#         250
  C:87E5H         LINE#         251
  C:87E5H         LINE#         252
  C:87E5H         LINE#         253
  C:87E5H         LINE#         255
  C:87EFH         LINE#         256
  C:87F9H         LINE#         257
  C:8803H         LINE#         258
  C:880DH         LINE#         260
  -------         ENDPROC       _BLOCK_WRITE_CLOCK_ASCII
  -------         PROC          _BCD_HEX
  D:0007H         SYMBOL        l_data
  -------         DO            
  D:0006H         SYMBOL        temp
  D:0005H         SYMBOL        j
  -------         ENDDO         
  C:9AE6H         LINE#         266
  C:9AE6H         LINE#         267
  C:9AE6H         LINE#         269
  C:9AE8H         LINE#         270
BL51 BANKED LINKER/LOCATER V6.22.2.0                                                  08/31/2020  09:26:19  PAGE 30


  C:9AECH         LINE#         271
  C:9AEFH         LINE#         272
  C:9AF1H         LINE#         273
  C:9AF1H         LINE#         274
  C:9AF5H         LINE#         275
  C:9AFCH         LINE#         276
  C:9AFCH         LINE#         277
  C:9B00H         LINE#         278
  C:9B03H         LINE#         279
  C:9B03H         LINE#         280
  C:9B03H         LINE#         281
  -------         ENDPROC       _BCD_HEX
  C:97C3H         SYMBOL        L?0177
  -------         PROC          L?0176
  -------         ENDPROC       L?0176
  C:97C3H         SYMBOL        L?0177
  -------         PROC          _HEX_BCD
  D:0007H         SYMBOL        byte
  -------         DO            
  D:0006H         SYMBOL        nibble_h
  D:0005H         SYMBOL        nibble_l
  D:0004H         SYMBOL        k
  D:0007H         SYMBOL        byte_out
  -------         ENDDO         
  C:97D2H         LINE#         285
  C:97D2H         LINE#         286
  C:97D2H         LINE#         291
  C:97D4H         LINE#         292
  C:97D5H         LINE#         294
  C:97DBH         LINE#         295
  C:97DBH         LINE#         296
  C:97DCH         LINE#         297
  C:97E1H         LINE#         298
  C:97E1H         LINE#         299
  C:97E2H         LINE#         300
  C:97E3H         LINE#         301
  C:97E3H         LINE#         302
  C:97E6H         LINE#         303
  C:97EAH         LINE#         304
  C:97EDH         LINE#         305
  C:97F0H         LINE#         306
  C:97F2H         LINE#         307
  C:97F2H         LINE#         309
  -------         ENDPROC       _HEX_BCD
  -------         PROC          _BYTEHEX_DECIMAL
  D:0001H         SYMBOL        buffer
  D:0005H         SYMBOL        valorhex
  -------         DO            
  X:0010H         SYMBOL        numero
  D:0007H         SYMBOL        centena
  D:0006H         SYMBOL        decena
  -------         ENDDO         
  C:9319H         LINE#         315
  C:9319H         LINE#         316
  C:9319H         LINE#         319
  C:931BH         LINE#         320
  C:931CH         LINE#         321
BL51 BANKED LINKER/LOCATER V6.22.2.0                                                  08/31/2020  09:26:19  PAGE 31


  C:9321H         LINE#         323
  C:932EH         LINE#         324
  C:932EH         LINE#         325
  C:9332H         LINE#         326
  C:9333H         LINE#         327
  C:9335H         LINE#         328
  C:933BH         LINE#         329
  C:9342H         LINE#         330
  C:934FH         LINE#         331
  C:934FH         LINE#         332
  C:9353H         LINE#         333
  C:9354H         LINE#         334
  C:9356H         LINE#         335
  C:935CH         LINE#         336
  C:9363H         LINE#         337
  -------         ENDPROC       _BYTEHEX_DECIMAL
  -------         PROC          _TWO_BYTEHEX_DECIMAL
  X:0010H         SYMBOL        buffer
  X:0013H         SYMBOL        id_h
  X:0014H         SYMBOL        id_l
  -------         DO            
  X:0015H         SYMBOL        valor
  D:0006H         SYMBOL        numero
  X:0017H         SYMBOL        temp
  X:0018H         SYMBOL        dmil
  X:0019H         SYMBOL        mil
  X:001AH         SYMBOL        centena
  X:001BH         SYMBOL        decena
  -------         ENDDO         
  C:441AH         LINE#         345
  C:4428H         LINE#         346
  C:4428H         LINE#         350
  C:442FH         LINE#         351
  C:4433H         LINE#         352
  C:4435H         LINE#         353
  C:4437H         LINE#         354
  C:4439H         LINE#         357
  C:443EH         LINE#         358
  C:4441H         LINE#         359
  C:4447H         LINE#         361
  C:44A2H         LINE#         362
  C:44AAH         LINE#         363
  C:44ADH         LINE#         364
  C:4508H         LINE#         366
  C:4510H         LINE#         367
  C:4513H         LINE#         368
  C:4519H         LINE#         369
  C:4574H         LINE#         370
  C:457CH         LINE#         371
  C:457FH         LINE#         372
  C:45DAH         LINE#         373
  C:45DAH         LINE#         375
  C:45E3H         LINE#         376
  C:45E3H         LINE#         377
  C:45EBH         LINE#         378
  C:45F1H         LINE#         379
  C:45F3H         LINE#         380
BL51 BANKED LINKER/LOCATER V6.22.2.0                                                  08/31/2020  09:26:19  PAGE 32


  C:4609H         LINE#         381
  C:4613H         LINE#         382
  C:461CH         LINE#         383
  C:461CH         LINE#         384
  C:4624H         LINE#         385
  C:462AH         LINE#         386
  C:462CH         LINE#         387
  C:4642H         LINE#         388
  C:464CH         LINE#         389
  C:4655H         LINE#         390
  C:4655H         LINE#         391
  C:465DH         LINE#         392
  C:4663H         LINE#         393
  C:4665H         LINE#         394
  C:467BH         LINE#         395
  C:4685H         LINE#         396
  C:468EH         LINE#         397
  C:468EH         LINE#         398
  C:4696H         LINE#         399
  C:469CH         LINE#         400
  C:469EH         LINE#         401
  C:46B4H         LINE#         402
  C:46BEH         LINE#         403
  C:46D1H         LINE#         404
  C:46DBH         LINE#         405
  -------         ENDPROC       _TWO_BYTEHEX_DECIMAL
  -------         PROC          _BLOCK_READ_CLOCK_ASCII
  X:0065H         SYMBOL        datos_clock
  -------         DO            
  D:0007H         SYMBOL        dato
  -------         ENDDO         
  C:5A21H         LINE#         411
  C:5A24H         LINE#         412
  C:5A24H         LINE#         418
  C:5A27H         LINE#         419
  C:5A3FH         LINE#         420
  C:5A49H         LINE#         421
  C:5A5EH         LINE#         422
  C:5A68H         LINE#         425
  C:5A6DH         LINE#         426
  C:5A85H         LINE#         427
  C:5A8FH         LINE#         428
  C:5AA4H         LINE#         429
  C:5AAEH         LINE#         432
  C:5AB3H         LINE#         433
  C:5ACBH         LINE#         434
  C:5AD5H         LINE#         435
  C:5AEAH         LINE#         436
  C:5AF4H         LINE#         440
  C:5AF9H         LINE#         441
  C:5B11H         LINE#         442
  C:5B1BH         LINE#         443
  C:5B30H         LINE#         444
  C:5B3AH         LINE#         447
  C:5B3FH         LINE#         448
  C:5B57H         LINE#         449
  C:5B61H         LINE#         450
BL51 BANKED LINKER/LOCATER V6.22.2.0                                                  08/31/2020  09:26:19  PAGE 33


  C:5B76H         LINE#         451
  C:5B80H         LINE#         452
  -------         ENDPROC       _BLOCK_READ_CLOCK_ASCII
  -------         PROC          _BLOCK_READ_CLOCK_HEX
  X:00C2H         SYMBOL        datos_clock
  C:7FC9H         LINE#         455
  C:7FCCH         LINE#         456
  C:7FCCH         LINE#         459
  C:7FE1H         LINE#         460
  C:7FEBH         LINE#         462
  C:8002H         LINE#         463
  C:800CH         LINE#         465
  C:8023H         LINE#         466
  C:802DH         LINE#         468
  C:8044H         LINE#         469
  C:804EH         LINE#         471
  C:8065H         LINE#         472
  -------         ENDPROC       _BLOCK_READ_CLOCK_HEX
  -------         PROC          _HEX_ASCII
  X:0071H         SYMBOL        datos
  X:0074H         SYMBOL        fecha_asii
  -------         DO            
  D:0007H         SYMBOL        dato
  -------         ENDDO         
  C:84C1H         LINE#         475
  C:84CCH         LINE#         476
  C:84CCH         LINE#         480
  C:84CFH         LINE#         481
  C:84E7H         LINE#         482
  C:84FCH         LINE#         483
  C:84FCH         LINE#         485
  C:84FFH         LINE#         486
  C:851AH         LINE#         487
  C:8522H         LINE#         488
  C:8522H         LINE#         490
  C:8525H         LINE#         491
  C:8540H         LINE#         492
  C:854BH         LINE#         494
  -------         ENDPROC       _HEX_ASCII
  -------         PROC          _BLOCK_READ_CLOCK
  X:001DH         SYMBOL        datos_clock
  C:77F8H         LINE#         521
  C:77FBH         LINE#         522
  C:77FBH         LINE#         524
  C:780DH         LINE#         525
  C:7817H         LINE#         527
  C:782BH         LINE#         528
  C:7835H         LINE#         530
  C:7849H         LINE#         531
  C:7853H         LINE#         533
  C:7867H         LINE#         534
  C:7871H         LINE#         536
  C:7885H         LINE#         537
  C:788FH         LINE#         539
  C:78A3H         LINE#         540
  C:78ADH         LINE#         541
  -------         ENDPROC       _BLOCK_READ_CLOCK
BL51 BANKED LINKER/LOCATER V6.22.2.0                                                  08/31/2020  09:26:19  PAGE 34


  -------         PROC          COND_INI_CLOCK
  C:9C41H         LINE#         544
  C:9C41H         LINE#         545
  C:9C41H         LINE#         546
  C:9C43H         LINE#         547
  C:9C45H         LINE#         548
  C:9C47H         LINE#         549
  -------         ENDPROC       COND_INI_CLOCK
  -------         PROC          _CHECK_FECHAOUT
  X:000EH         SYMBOL        buffer
  -------         DO            
  X:0011H         SYMBOL        temp
  X:0012H         SYMBOL        datos_clk
  -------         ENDDO         
  C:58A8H         LINE#         559
  C:58B3H         LINE#         560
  C:58B3H         LINE#         561
  C:58B7H         LINE#         567
  C:5900H         LINE#         568
  C:5900H         LINE#         570
  C:5905H         LINE#         572
  C:5908H         LINE#         574
  C:5908H         LINE#         576
  C:5911H         LINE#         578
  C:5919H         LINE#         579
  C:5919H         LINE#         580
  C:5922H         LINE#         582
  C:5922H         LINE#         585
  C:5945H         LINE#         586
  C:5945H         LINE#         587
  C:5945H         LINE#         588
  C:5948H         LINE#         589
  C:5952H         LINE#         590
  C:5952H         LINE#         591
  C:5978H         LINE#         592
  C:5978H         LINE#         593
  C:5978H         LINE#         594
  C:597BH         LINE#         595
  C:5985H         LINE#         596
  C:5985H         LINE#         597
  C:59ABH         LINE#         598
  C:59ABH         LINE#         599
  C:59ABH         LINE#         600
  C:59ADH         LINE#         601
  C:59B4H         LINE#         602
  C:59B4H         LINE#         603
  C:59DAH         LINE#         604
  C:59DAH         LINE#         605
  C:59DAH         LINE#         606
  C:59DCH         LINE#         607
  C:59E3H         LINE#         608
  C:59E3H         LINE#         609
  C:5A08H         LINE#         610
  C:5A08H         LINE#         611
  C:5A0DH         LINE#         612
  C:5A0FH         LINE#         620
  C:5A0FH         LINE#         621
BL51 BANKED LINKER/LOCATER V6.22.2.0                                                  08/31/2020  09:26:19  PAGE 35


  C:5A0FH         LINE#         622
  C:5A0FH         LINE#         623
  C:5A11H         LINE#         625
  C:5A11H         LINE#         626
  C:5A11H         LINE#         627
  C:5A11H         LINE#         628
  C:5A13H         LINE#         630
  C:5A13H         LINE#         631
  C:5A13H         LINE#         632
  C:5A13H         LINE#         633
  C:5A15H         LINE#         635
  C:5A15H         LINE#         636
  C:5A1BH         LINE#         638
  C:5A1BH         LINE#         640
  C:5A1BH         LINE#         641
  C:5A20H         LINE#         642
  -------         ENDPROC       _CHECK_FECHAOUT
  -------         PROC          _CHECK_FECHAOUT_2
  X:00B0H         SYMBOL        buffer
  -------         DO            
  X:00B3H         SYMBOL        fecha_inicio
  X:00B7H         SYMBOL        fecha_fin
  X:00BBH         SYMBOL        datos_clk
  X:00C1H         SYMBOL        temp
  -------         ENDDO         
  C:7AF9H         LINE#         643
  C:7B04H         LINE#         644
  C:7B04H         LINE#         650
  C:7B0DH         LINE#         651
  C:7B3CH         LINE#         652
  C:7B81H         LINE#         655
  C:7BA1H         LINE#         656
  C:7BA1H         LINE#         657
  C:7BA7H         LINE#         658
  C:7BA9H         LINE#         660
  C:7BA9H         LINE#         661
  C:7BAEH         LINE#         662
  C:7BAEH         LINE#         666
  C:7BB3H         LINE#         667
  -------         ENDPROC       _CHECK_FECHAOUT_2
  -------         PROC          _ANALIZA_TIEMPO
  X:000EH         SYMBOL        buffer
  X:0011H         SYMBOL        Val_DctoMinutos
  -------         DO            
  X:0013H         SYMBOL        ano_inT
  B:0020H.0       SYMBOL        bisiesto
  X:0015H         SYMBOL        ano_out
  X:0016H         SYMBOL        mes_out
  X:0017H         SYMBOL        dia_out
  X:0018H         SYMBOL        hora_out
  X:0019H         SYMBOL        min_out
  X:001AH         SYMBOL        Horas_Dcto
  X:001BH         SYMBOL        Minutos_Dcto
  X:001CH         SYMBOL        Xtemp
  B:0020H.1       SYMBOL        Tiempo_Dcto
  -------         ENDDO         
  C:2CC1H         LINE#         669
BL51 BANKED LINKER/LOCATER V6.22.2.0                                                  08/31/2020  09:26:19  PAGE 36


  C:2CD4H         LINE#         670
  C:2CD4H         LINE#         674
  C:2CD6H         LINE#         679
  C:2CD8H         LINE#         681
  C:2D33H         LINE#         682
  C:2D33H         LINE#         687
  C:2D45H         LINE#         688
  C:2D45H         LINE#         689
  C:2D55H         LINE#         690
  C:2D5FH         LINE#         692
  C:2D61H         LINE#         694
  C:2D61H         LINE#         695
  C:2D67H         LINE#         696
  C:2D6CH         LINE#         697
  C:2D6CH         LINE#         701
  C:2D76H         LINE#         702
  C:2D76H         LINE#         703
  C:2D8EH         LINE#         704
  C:2D9AH         LINE#         705
  C:2D9AH         LINE#         707
  C:2DA4H         LINE#         708
  C:2DB2H         LINE#         710
  C:2DBFH         LINE#         711
  C:2DCBH         LINE#         712
  C:2DCBH         LINE#         713
  C:2DD5H         LINE#         714
  C:2DE3H         LINE#         716
  C:2DF0H         LINE#         717
  C:2E25H         LINE#         718
  C:2E25H         LINE#         719
  C:2E32H         LINE#         720
  C:2E32H         LINE#         721
  C:2E36H         LINE#         722
  C:2E4CH         LINE#         723
  C:2E55H         LINE#         724
  C:2E55H         LINE#         725
  C:2E5DH         LINE#         726
  C:2E61H         LINE#         727
  C:2E64H         LINE#         734
  C:2E64H         LINE#         735
  C:2E79H         LINE#         736
  C:2E79H         LINE#         737
  C:2E79H         LINE#         738
  C:2E7CH         LINE#         739
  C:2EAAH         LINE#         740
  C:2EAAH         LINE#         741
  C:2EB7H         LINE#         742
  C:2EB7H         LINE#         743
  C:2EBBH         LINE#         744
  C:2EC2H         LINE#         745
  C:2EC2H         LINE#         746
  C:2EC4H         LINE#         748
  C:2EC4H         LINE#         749
  C:2ECEH         LINE#         750
  C:2ECEH         LINE#         751
  C:2ECEH         LINE#         753
  C:2ED1H         LINE#         754
BL51 BANKED LINKER/LOCATER V6.22.2.0                                                  08/31/2020  09:26:19  PAGE 37


  C:2EF0H         LINE#         755
  C:2EF0H         LINE#         757
  C:2F07H         LINE#         758
  C:2F09H         LINE#         798
  C:2F32H         LINE#         799
  C:2F32H         LINE#         800
  C:2F34H         LINE#         801
  C:2F34H         LINE#         803
  C:2F37H         LINE#         804
  C:2F37H         LINE#         805
  C:2F50H         LINE#         806
  C:2F50H         LINE#         807
  C:2F57H         LINE#         808
  C:2F5EH         LINE#         809
  C:2F65H         LINE#         811
  C:2F67H         LINE#         813
  C:2F67H         LINE#         814
  C:2F6EH         LINE#         815
  C:2F73H         LINE#         816
  C:2F7DH         LINE#         817
  C:2F7DH         LINE#         818
  C:2F80H         LINE#         820
  C:2F80H         LINE#         821
  C:2F8EH         LINE#         822
  C:2F8EH         LINE#         823
  C:2F92H         LINE#         824
  C:2FA4H         LINE#         825
  C:2FA4H         LINE#         826
  C:2FA6H         LINE#         828
  C:2FA6H         LINE#         829
  C:2FABH         LINE#         830
  C:2FC0H         LINE#         831
  C:2FC0H         LINE#         832
  C:2FC0H         LINE#         833
  C:2FC0H         LINE#         835
  C:2FC3H         LINE#         837
  C:2FC3H         LINE#         838
  C:2FC8H         LINE#         839
  C:2FDDH         LINE#         840
  C:2FDDH         LINE#         841
  C:2FDDH         LINE#         842
  C:2FE0H         LINE#         844
  C:2FE0H         LINE#         845
  C:2FF5H         LINE#         846
  C:2FFFH         LINE#         847
  C:2FFFH         LINE#         848
  C:2FFFH         LINE#         849
  C:3001H         LINE#         851
  C:3001H         LINE#         852
  C:3016H         LINE#         853
  C:3020H         LINE#         854
  C:302AH         LINE#         855
  C:302AH         LINE#         856
  C:302AH         LINE#         857
  C:302CH         LINE#         859
  C:302CH         LINE#         860
  C:3041H         LINE#         861
BL51 BANKED LINKER/LOCATER V6.22.2.0                                                  08/31/2020  09:26:19  PAGE 38


  C:304BH         LINE#         862
  C:3055H         LINE#         863
  C:305FH         LINE#         864
  C:3066H         LINE#         865
  C:3066H         LINE#         869
  C:3070H         LINE#         870
  C:3070H         LINE#         871
  C:3076H         LINE#         872
  C:3084H         LINE#         873
  C:3084H         LINE#         874
  C:308DH         LINE#         875
  C:309BH         LINE#         877
  C:30A1H         LINE#         878
  C:30C8H         LINE#         879
  C:30C8H         LINE#         880
  C:30D8H         LINE#         881
  C:30D8H         LINE#         882
  C:30DCH         LINE#         883
  C:30E2H         LINE#         884
  C:30F0H         LINE#         885
  C:30F0H         LINE#         886
  C:30F2H         LINE#         887
  C:30F6H         LINE#         888
  C:30F9H         LINE#         890
  C:30F9H         LINE#         891
  C:30FAH         LINE#         892
  C:30FAH         LINE#         893
  C:30FAH         LINE#         894
  C:30FDH         LINE#         895
  C:3115H         LINE#         896
  C:3115H         LINE#         897
  C:3122H         LINE#         898
  C:3122H         LINE#         899
  C:3126H         LINE#         900
  C:312BH         LINE#         901
  C:312BH         LINE#         902
  C:312EH         LINE#         904
  C:312EH         LINE#         905
  C:3132H         LINE#         906
  C:3132H         LINE#         907
  C:3132H         LINE#         908
  C:3134H         LINE#         909
  C:313DH         LINE#         910
  C:313DH         LINE#         912
  C:3152H         LINE#         913
  C:3154H         LINE#         946
  C:3173H         LINE#         947
  C:3173H         LINE#         948
  C:3175H         LINE#         949
  C:3175H         LINE#         952
  C:3178H         LINE#         953
  C:3178H         LINE#         954
  C:3186H         LINE#         955
  C:3186H         LINE#         956
  C:318AH         LINE#         957
  C:318FH         LINE#         958
  C:318FH         LINE#         959
BL51 BANKED LINKER/LOCATER V6.22.2.0                                                  08/31/2020  09:26:19  PAGE 39


  C:3191H         LINE#         961
  C:3191H         LINE#         962
  C:3196H         LINE#         963
  C:319AH         LINE#         964
  C:319AH         LINE#         965
  C:319AH         LINE#         966
  C:319CH         LINE#         968
  C:319CH         LINE#         969
  C:31A9H         LINE#         970
  C:31A9H         LINE#         971
  C:31ADH         LINE#         972
  C:31B3H         LINE#         973
  C:31B8H         LINE#         974
  C:31B8H         LINE#         975
  C:31B8H         LINE#         977
  C:31B8H         LINE#         979
  C:31B8H         LINE#         980
  C:31B8H         LINE#         983
  C:31CFH         LINE#         984
  C:31D9H         LINE#         985
  C:31E3H         LINE#         986
  C:31EDH         LINE#         987
  C:31F7H         LINE#         989
  C:31F7H         LINE#         992
  -------         ENDPROC       _ANALIZA_TIEMPO
  -------         ENDMOD        CLOCK

  -------         MODULE        DELAY
  C:0000H         SYMBOL        _ICE_DUMMY_
  C:986BH         PUBLIC        _Delay_10ms
  C:9B7EH         PUBLIC        _Delay_20us
  C:9B21H         PUBLIC        _Delay_1ms
  C:9C8AH         PUBLIC        Delay
  -------         PROC          _DELAY_20US
  D:0006H         SYMBOL        cnt
  -------         DO            
  D:0004H         SYMBOL        i
  -------         ENDDO         
  C:9B7EH         LINE#         20
  C:9B7EH         LINE#         21
  C:9B7EH         LINE#         24
  C:9B88H         LINE#         26
  C:9B8FH         LINE#         27
  -------         ENDPROC       _DELAY_20US
  -------         PROC          _DELAY_1MS
  D:0002H         SYMBOL        cnt
  -------         DO            
  D:0082H         SYMBOL        i
  -------         ENDDO         
  C:9B21H         LINE#         38
  C:9B25H         LINE#         39
  C:9B25H         LINE#         41
  C:9B3BH         LINE#         42
  -------         ENDPROC       _DELAY_1MS
  -------         PROC          _DELAY_10MS
  X:000FH         SYMBOL        cnt
  -------         DO            
BL51 BANKED LINKER/LOCATER V6.22.2.0                                                  08/31/2020  09:26:19  PAGE 40


  X:0011H         SYMBOL        i
  -------         ENDDO         
  C:986BH         LINE#         54
  C:9873H         LINE#         55
  C:9873H         LINE#         57
  C:98A4H         LINE#         58
  -------         ENDPROC       _DELAY_10MS
  -------         PROC          DELAY
  C:9C8AH         LINE#         60
  C:9C8AH         LINE#         62
  -------         ENDPROC       DELAY
  -------         ENDMOD        DELAY

  -------         MODULE        EEPROM
  C:0000H         SYMBOL        _ICE_DUMMY_
  D:0090H         PUBLIC        P1
  C:9019H         PUBLIC        _EscribirMemoria
  X:01F2H         PUBLIC        l_chr
  C:9A4CH         PUBLIC        ackd
  B:0021H.5       PUBLIC        memory_flag
  B:00D0H.7       PUBLIC        CY
  C:9C72H         PUBLIC        p_me
  C:92C3H         PUBLIC        variable_inicio
  C:9B98H         PUBLIC        start
  B:0090H.2       PUBLIC        sda
  C:9A6CH         PUBLIC        ack_lect
  B:0090H.3       PUBLIC        scl
  C:97F7H         PUBLIC        _rd_eeprom
  C:9C2FH         PUBLIC        stop
  X:01F3H         PUBLIC        l_data_eeprom
  C:9284H         PUBLIC        _wr_eeprom
  C:90F3H         PUBLIC        _LeerMemoria
  X:01F4H         PUBLIC        byte_rd
  C:9A27H         PUBLIC        _e_d_m
  C:936CH         PUBLIC        l_d_m
  -------         PROC          L?0048
  -------         ENDPROC       L?0048
  -------         PROC          ACKD
  -------         DO            
  D:0006H         SYMBOL        i
  -------         ENDDO         
  C:9A4CH         LINE#         44
  C:9A4CH         LINE#         45
  C:9A4CH         LINE#         47
  C:9A4EH         LINE#         48
  C:9A50H         LINE#         49
  C:9A52H         LINE#         50
  C:9A55H         LINE#         51
  C:9A55H         LINE#         52
  C:9A58H         LINE#         53
  C:9A58H         LINE#         54
  C:9A5AH         LINE#         55
  C:9A5CH         LINE#         57
  C:9A5DH         LINE#         58
  C:9A5DH         LINE#         59
  C:9A68H         LINE#         61
  C:9A68H         LINE#         62
BL51 BANKED LINKER/LOCATER V6.22.2.0                                                  08/31/2020  09:26:19  PAGE 41


  C:9A68H         LINE#         64
  C:9A68H         LINE#         65
  -------         ENDPROC       ACKD
  -------         PROC          L?0050
  -------         ENDPROC       L?0050
  -------         PROC          ACK_LECT
  -------         DO            
  D:0006H         SYMBOL        i
  -------         ENDDO         
  C:9A6CH         LINE#         68
  C:9A6CH         LINE#         69
  C:9A6CH         LINE#         71
  C:9A6EH         LINE#         72
  C:9A70H         LINE#         73
  C:9A72H         LINE#         74
  C:9A75H         LINE#         75
  C:9A75H         LINE#         76
  C:9A78H         LINE#         77
  C:9A78H         LINE#         78
  C:9A7AH         LINE#         79
  C:9A7CH         LINE#         80
  C:9A7DH         LINE#         81
  C:9A7DH         LINE#         82
  C:9A88H         LINE#         83
  -------         ENDPROC       ACK_LECT
  -------         PROC          P_ME
  C:9C72H         LINE#         85
  C:9C72H         LINE#         86
  C:9C72H         LINE#         87
  C:9C74H         LINE#         88
  C:9C75H         LINE#         89
  C:9C77H         LINE#         90
  -------         ENDPROC       P_ME
  -------         PROC          _E_D_M
  D:0007H         SYMBOL        a_serial_eeprom
  -------         DO            
  D:0006H         SYMBOL        nbits
  -------         ENDDO         
  C:9A27H         LINE#         92
  C:9A27H         LINE#         93
  C:9A27H         LINE#         95
  C:9A33H         LINE#         96
  C:9A33H         LINE#         97
  C:9A37H         LINE#         98
  C:9A3AH         LINE#         99
  C:9A3AH         LINE#         100
  C:9A3CH         LINE#         101
  C:9A3EH         LINE#         103
  C:9A3EH         LINE#         104
  C:9A40H         LINE#         105
  C:9A40H         LINE#         106
  C:9A42H         LINE#         107
  C:9A45H         LINE#         108
  C:9A48H         LINE#         110
  -------         ENDPROC       _E_D_M
  -------         PROC          L?0049
  -------         ENDPROC       L?0049
BL51 BANKED LINKER/LOCATER V6.22.2.0                                                  08/31/2020  09:26:19  PAGE 42


  -------         PROC          START
  C:9B98H         LINE#         112
  C:9B98H         LINE#         113
  C:9B98H         LINE#         114
  C:9B9AH         LINE#         115
  C:9B9CH         LINE#         116
  C:9B9DH         LINE#         117
  C:9B9FH         LINE#         118
  C:9BA1H         LINE#         120
  -------         ENDPROC       START
  -------         PROC          STOP
  C:9C2FH         LINE#         122
  C:9C2FH         LINE#         123
  C:9C2FH         LINE#         124
  C:9C31H         LINE#         125
  C:9C33H         LINE#         126
  C:9C35H         LINE#         127
  C:9C37H         LINE#         129
  -------         ENDPROC       STOP
  -------         PROC          L_D_M
  -------         DO            
  D:0003H         SYMBOL        nbits
  -------         ENDDO         
  C:936CH         LINE#         131
  C:936CH         LINE#         132
  C:936CH         LINE#         134
  C:9379H         LINE#         135
  C:9379H         LINE#         136
  C:937BH         LINE#         137
  C:937EH         LINE#         138
  C:937EH         LINE#         139
  C:9385H         LINE#         140
  C:938EH         LINE#         141
  C:938EH         LINE#         142
  C:9392H         LINE#         143
  C:9394H         LINE#         144
  C:9394H         LINE#         145
  C:9394H         LINE#         146
  C:9397H         LINE#         147
  C:9397H         LINE#         148
  C:939EH         LINE#         149
  C:93A8H         LINE#         150
  C:93A8H         LINE#         151
  C:93ACH         LINE#         152
  C:93AEH         LINE#         153
  C:93AEH         LINE#         154
  C:93AEH         LINE#         155
  C:93B1H         LINE#         156
  C:93B3H         LINE#         157
  C:93B8H         LINE#         158
  -------         ENDPROC       L_D_M
  -------         PROC          L?0045
  -------         ENDPROC       L?0045
  -------         PROC          _WR_EEPROM
  D:0002H         SYMBOL        control
  D:0004H         SYMBOL        Dir
  D:0003H         SYMBOL        data_eeprom
BL51 BANKED LINKER/LOCATER V6.22.2.0                                                  08/31/2020  09:26:19  PAGE 43


  -------         DO            
  D:0005H         SYMBOL        dir_h
  D:0001H         SYMBOL        dir_l
  -------         ENDDO         
  C:9284H         LINE#         164
  C:9286H         LINE#         165
  C:9286H         LINE#         167
  C:928AH         LINE#         168
  C:928AH         LINE#         169
  C:928AH         LINE#         172
  C:928AH         LINE#         173
  C:928AH         LINE#         175
  C:928DH         LINE#         176
  C:928FH         LINE#         177
  C:9292H         LINE#         178
  C:9294H         LINE#         179
  C:9297H         LINE#         180
  C:929CH         LINE#         181
  C:929FH         LINE#         182
  C:92A4H         LINE#         183
  C:92A7H         LINE#         184
  C:92AAH         LINE#         185
  C:92B1H         LINE#         187
  C:92B3H         LINE#         188
  C:92B5H         LINE#         189
  C:92BCH         LINE#         190
  -------         ENDPROC       _WR_EEPROM
  C:97F3H         SYMBOL        L?0047
  -------         PROC          L?0046
  -------         ENDPROC       L?0046
  C:97F3H         SYMBOL        L?0047
  -------         PROC          _RD_EEPROM
  D:0003H         SYMBOL        control
  D:0004H         SYMBOL        Dir
  -------         DO            
  D:0005H         SYMBOL        dir_h
  D:0002H         SYMBOL        dir_l
  -------         ENDDO         
  C:97F7H         LINE#         228
  C:97F9H         LINE#         229
  C:97F9H         LINE#         232
  C:97FDH         LINE#         233
  C:97FDH         LINE#         234
  C:97FDH         LINE#         236
  C:97FDH         LINE#         237
  C:97FDH         LINE#         239
  C:9800H         LINE#         240
  C:9802H         LINE#         241
  C:9805H         LINE#         242
  C:9807H         LINE#         243
  C:980AH         LINE#         244
  C:980FH         LINE#         245
  C:9812H         LINE#         246
  C:9815H         LINE#         247
  C:981BH         LINE#         248
  C:981EH         LINE#         249
  C:9820H         LINE#         250
BL51 BANKED LINKER/LOCATER V6.22.2.0                                                  08/31/2020  09:26:19  PAGE 44


  C:9823H         LINE#         251
  C:9826H         LINE#         252
  C:9828H         LINE#         253
  C:982AH         LINE#         254
  C:982FH         LINE#         255
  -------         ENDPROC       _RD_EEPROM
  -------         PROC          VARIABLE_INICIO
  C:92C3H         LINE#         259
  C:92C3H         LINE#         260
  C:92C3H         LINE#         262
  C:92D3H         LINE#         263
  C:92E0H         LINE#         264
  C:92EDH         LINE#         265
  C:92FAH         LINE#         266
  C:9304H         LINE#         268
  C:930EH         LINE#         269
  C:9318H         LINE#         270
  -------         ENDPROC       VARIABLE_INICIO
  -------         PROC          _LEERMEMORIA
  X:00B0H         SYMBOL        addres
  X:00B2H         SYMBOL        res
  -------         DO            
  D:0007H         SYMBOL        i
  -------         ENDDO         
  C:90F3H         LINE#         274
  C:9104H         LINE#         275
  C:9104H         LINE#         277
  C:9104H         LINE#         278
  C:9120H         LINE#         279
  C:912FH         LINE#         280
  C:913DH         LINE#         281
  C:9147H         LINE#         282
  C:914AH         LINE#         283
  -------         ENDPROC       _LEERMEMORIA
  -------         PROC          _ESCRIBIRMEMORIA
  X:0071H         SYMBOL        addres
  X:0073H         SYMBOL        res
  C:9019H         LINE#         285
  C:902AH         LINE#         286
  C:902AH         LINE#         289
  C:903AH         LINE#         290
  C:9041H         LINE#         291
  C:9044H         LINE#         293
  C:9052H         LINE#         294
  C:905CH         LINE#         295
  C:905EH         LINE#         296
  C:9061H         LINE#         297
  C:906FH         LINE#         298
  C:9079H         LINE#         299
  -------         ENDPROC       _ESCRIBIRMEMORIA
  -------         ENDMOD        EEPROM

  -------         MODULE        IO_SENSORES
  C:0000H         SYMBOL        _ICE_DUMMY_
  D:0090H         PUBLIC        P1
  D:00B0H         PUBLIC        P3
  C:9BA2H         PUBLIC        Dir_board
BL51 BANKED LINKER/LOCATER V6.22.2.0                                                  08/31/2020  09:26:19  PAGE 45


  B:0090H.1       PUBLIC        DataIn
  C:9C4FH         PUBLIC        sel_Auto
  C:8EC2H         PUBLIC        ValidaSensoresPaso
  B:00B0H.3       PUBLIC        busy
  C:9AA8H         PUBLIC        ValidaSensores_Out
  C:9A89H         PUBLIC        ValidaSensor
  C:9C5DH         PUBLIC        sel_Sensor1
  C:9C56H         PUBLIC        sel_Sensor2
  B:00B0H.5       PUBLIC        sel_A
  B:00B0H.6       PUBLIC        sel_B
  B:00B0H.7       PUBLIC        sel_C
  C:8BD1H         PUBLIC        msj_lcd_informativo
  C:9C64H         PUBLIC        sel_Dir1
  C:9C6BH         PUBLIC        sel_Dir2
  C:9C48H         PUBLIC        sel_Funcion
  -------         PROC          SEL_FUNCION
  C:9C48H         LINE#         29
  C:9C48H         LINE#         30
  C:9C48H         LINE#         31
  C:9C4AH         LINE#         32
  C:9C4CH         LINE#         33
  C:9C4EH         LINE#         34
  -------         ENDPROC       SEL_FUNCION
  -------         PROC          SEL_AUTO
  C:9C4FH         LINE#         36
  C:9C4FH         LINE#         37
  C:9C4FH         LINE#         38
  C:9C51H         LINE#         39
  C:9C53H         LINE#         40
  C:9C55H         LINE#         41
  -------         ENDPROC       SEL_AUTO
  -------         PROC          SEL_SENSOR2
  C:9C56H         LINE#         52
  C:9C56H         LINE#         53
  C:9C56H         LINE#         54
  C:9C58H         LINE#         55
  C:9C5AH         LINE#         56
  C:9C5CH         LINE#         57
  -------         ENDPROC       SEL_SENSOR2
  -------         PROC          SEL_SENSOR1
  C:9C5DH         LINE#         59
  C:9C5DH         LINE#         60
  C:9C5DH         LINE#         61
  C:9C5FH         LINE#         62
  C:9C61H         LINE#         63
  C:9C63H         LINE#         64
  -------         ENDPROC       SEL_SENSOR1
  -------         PROC          SEL_DIR1
  C:9C64H         LINE#         66
  C:9C64H         LINE#         67
  C:9C64H         LINE#         68
  C:9C66H         LINE#         69
  C:9C68H         LINE#         70
  C:9C6AH         LINE#         71
  -------         ENDPROC       SEL_DIR1
  -------         PROC          SEL_DIR2
  C:9C6BH         LINE#         73
BL51 BANKED LINKER/LOCATER V6.22.2.0                                                  08/31/2020  09:26:19  PAGE 46


  C:9C6BH         LINE#         74
  C:9C6BH         LINE#         75
  C:9C6DH         LINE#         76
  C:9C6FH         LINE#         77
  C:9C71H         LINE#         78
  -------         ENDPROC       SEL_DIR2
  -------         PROC          VALIDASENSOR
  -------         DO            
  D:0007H         SYMBOL        Valido
  D:0004H         SYMBOL        Tmin
  -------         ENDDO         
  C:9A89H         LINE#         80
  C:9A89H         LINE#         81
  C:9A89H         LINE#         83
  C:9A8BH         LINE#         84
  C:9A8FH         LINE#         85
  C:9A9AH         LINE#         86
  C:9A9AH         LINE#         87
  C:9A9FH         LINE#         88
  C:9AA3H         LINE#         89
  C:9AA3H         LINE#         90
  C:9AA5H         LINE#         91
  C:9AA5H         LINE#         92
  C:9AA7H         LINE#         93
  C:9AA7H         LINE#         94
  -------         ENDPROC       VALIDASENSOR
  -------         PROC          DIR_BOARD
  -------         DO            
  D:0007H         SYMBOL        Board
  -------         ENDDO         
  C:9BA2H         LINE#         98
  C:9BA2H         LINE#         99
  C:9BA2H         LINE#         100
  C:9BA4H         LINE#         102
  C:9BA7H         LINE#         103
  C:9BAAH         LINE#         104
  C:9BAAH         LINE#         105
  C:9BABH         LINE#         106
  C:9BABH         LINE#         107
  C:9BAEH         LINE#         108
  C:9BB1H         LINE#         109
  C:9BB1H         LINE#         110
  C:9BB3H         LINE#         111
  C:9BB3H         LINE#         112
  C:9BB3H         LINE#         113
  -------         ENDPROC       DIR_BOARD
  -------         PROC          VALIDASENSORESPASO
  C:8EC2H         LINE#         121
  C:8EC2H         LINE#         122
  C:8EC2H         LINE#         124
  C:8EC5H         LINE#         125
  C:8EC8H         LINE#         126
  C:8EC8H         LINE#         127
  C:8ED6H         LINE#         128
  C:8ED6H         LINE#         129
  C:8ED9H         LINE#         130
  C:8EDCH         LINE#         131
BL51 BANKED LINKER/LOCATER V6.22.2.0                                                  08/31/2020  09:26:19  PAGE 47


  C:8EDFH         LINE#         132
  C:8EE4H         LINE#         133
  C:8EE4H         LINE#         134
  C:8EEBH         LINE#         135
  C:8EEFH         LINE#         136
  C:8EF1H         LINE#         138
  C:8EF1H         LINE#         140
  C:8EF1H         LINE#         141
  C:8EF8H         LINE#         142
  C:8EFDH         LINE#         143
  C:8EFFH         LINE#         144
  C:8EFFH         LINE#         147
  C:8EFFH         LINE#         149
  C:8F02H         LINE#         150
  C:8F07H         LINE#         151
  C:8F07H         LINE#         153
  C:8F0EH         LINE#         154
  C:8F14H         LINE#         155
  C:8F17H         LINE#         156
  C:8F17H         LINE#         158
  C:8F17H         LINE#         159
  C:8F1BH         LINE#         160
  C:8F1DH         LINE#         161
  C:8F1DH         LINE#         164
  C:8F1DH         LINE#         165
  C:8F1DH         LINE#         167
  C:8F1DH         LINE#         168
  C:8F26H         LINE#         169
  C:8F29H         LINE#         170
  C:8F29H         LINE#         171
  C:8F29H         LINE#         172
  C:8F29H         LINE#         173
  C:8F32H         LINE#         174
  C:8F34H         LINE#         175
  C:8F34H         LINE#         177
  -------         ENDPROC       VALIDASENSORESPASO
  -------         PROC          VALIDASENSORES_OUT
  -------         DO            
  D:0006H         SYMBOL        valido
  -------         ENDDO         
  C:9AA8H         LINE#         179
  C:9AA8H         LINE#         180
  C:9AA8H         LINE#         181
  C:9AAAH         LINE#         183
  C:9AADH         LINE#         184
  C:9AB0H         LINE#         185
  C:9AB0H         LINE#         186
  C:9ABFH         LINE#         187
  C:9ABFH         LINE#         188
  C:9ABFH         LINE#         189
  C:9AC1H         LINE#         190
  C:9AC1H         LINE#         192
  C:9AC1H         LINE#         193
  C:9AC1H         LINE#         194
  C:9AC4H         LINE#         195
  C:9AC4H         LINE#         196
  C:9AC4H         LINE#         198
BL51 BANKED LINKER/LOCATER V6.22.2.0                                                  08/31/2020  09:26:19  PAGE 48


  C:9AC4H         LINE#         199
  C:9AC4H         LINE#         200
  C:9AC6H         LINE#         201
  C:9AC6H         LINE#         202
  -------         ENDPROC       VALIDASENSORES_OUT
  -------         PROC          MSJ_LCD_INFORMATIVO
  -------         DO            
  X:0001H         SYMBOL        info
  X:01FEH         SYMBOL        toggle
  -------         ENDDO         
  C:8BD1H         LINE#         209
  C:8BD1H         LINE#         210
  C:8BD1H         LINE#         211
  C:8BD6H         LINE#         213
  C:8BD9H         LINE#         214
  C:8BDCH         LINE#         215
  C:8BDCH         LINE#         216
  C:8BE8H         LINE#         217
  C:8BE8H         LINE#         218
  C:8BEBH         LINE#         219
  C:8BEBH         LINE#         220
  C:8BEDH         LINE#         221
  C:8BF0H         LINE#         222
  C:8BF6H         LINE#         223
  C:8BF6H         LINE#         224
  C:8BF8H         LINE#         225
  C:8C06H         LINE#         226
  C:8C06H         LINE#         227
  C:8C09H         LINE#         228
  C:8C09H         LINE#         229
  C:8C0BH         LINE#         230
  C:8C0EH         LINE#         231
  C:8C14H         LINE#         232
  C:8C14H         LINE#         233
  C:8C16H         LINE#         234
  C:8C24H         LINE#         235
  C:8C24H         LINE#         236
  C:8C27H         LINE#         237
  C:8C27H         LINE#         238
  C:8C29H         LINE#         239
  C:8C37H         LINE#         240
  C:8C37H         LINE#         241
  C:8C39H         LINE#         242
  C:8C40H         LINE#         244
  C:8C45H         LINE#         245
  C:8C45H         LINE#         247
  C:8C45H         LINE#         249
  C:8C45H         LINE#         251
  C:8C48H         LINE#         252
  C:8C4BH         LINE#         253
  C:8C4BH         LINE#         254
  C:8C50H         LINE#         255
  C:8C50H         LINE#         257
  -------         ENDPROC       MSJ_LCD_INFORMATIVO
  -------         ENDMOD        IO_SENSORES

  -------         MODULE        PANTALLAS
BL51 BANKED LINKER/LOCATER V6.22.2.0                                                  08/31/2020  09:26:19  PAGE 49


  C:0000H         SYMBOL        _ICE_DUMMY_
  D:0080H         PUBLIC        P0
  C:9216H         PUBLIC        Reloj_Pantalla_Lcd
  C:3AACH         PUBLIC        _PantallaLCD
  C:95B5H         PUBLIC        _LCD_txt
  C:91BBH         PUBLIC        _Raspberry_data
  C:99BFH         PUBLIC        _tx_chrlcd
  C:3A93H         SYMBOL        _?ix1000
  C:3AA0H         SYMBOL        _?ix1001
  C:3AA6H         SYMBOL        _?ix1002
  C:9521H         PUBLIC        _LCD_txt_num_char
  C:5CF5H         PUBLIC        _PantallaLCD_LINEA_2
  B:0098H.4       PUBLIC        REN
  B:0080H.7       PUBLIC        sel_com
  C:99B6H         SYMBOL        L?0109
  C:99B9H         SYMBOL        L?0110
  -------         PROC          L?0108
  -------         ENDPROC       L?0108
  C:99B6H         SYMBOL        L?0109
  C:99B9H         SYMBOL        L?0110
  -------         PROC          _TX_CHRLCD
  D:0007H         SYMBOL        data_com
  X:003FH         SYMBOL        enable_char_add
  -------         DO            
  X:0040H         SYMBOL        d
  -------         ENDDO         
  C:99BFH         LINE#         59
  C:99C4H         LINE#         60
  C:99C4H         LINE#         62
  C:99CCH         LINE#         63
  C:99DCH         LINE#         65
  -------         ENDPROC       _TX_CHRLCD
  -------         PROC          L?0111
  -------         ENDPROC       L?0111
  -------         PROC          _LCD_TXT
  X:003AH         SYMBOL        msg
  X:003DH         SYMBOL        enable_char_add
  -------         DO            
  X:003EH         SYMBOL        i
  -------         ENDDO         
  C:95B5H         LINE#         72
  C:95C3H         LINE#         73
  C:95C3H         LINE#         76
  C:95E0H         LINE#         77
  C:95E0H         LINE#         78
  C:95E8H         LINE#         79
  C:95F0H         LINE#         80
  -------         ENDPROC       _LCD_TXT
  -------         PROC          _LCD_TXT_NUM_CHAR
  X:001DH         SYMBOL        msg
  X:0020H         SYMBOL        length_char
  X:0021H         SYMBOL        enable_char_add
  -------         DO            
  X:0022H         SYMBOL        i
  -------         ENDDO         
  C:9521H         LINE#         87
  C:952FH         LINE#         88
BL51 BANKED LINKER/LOCATER V6.22.2.0                                                  08/31/2020  09:26:19  PAGE 50


  C:952FH         LINE#         91
  C:9542H         LINE#         92
  C:9542H         LINE#         93
  C:955EH         LINE#         94
  C:9566H         LINE#         95
  -------         ENDPROC       _LCD_TXT_NUM_CHAR
  -------         PROC          _RASPBERRY_DATA
  X:003AH         SYMBOL        msg
  -------         DO            
  X:01FFH         SYMBOL        i
  X:003DH         SYMBOL        lenth_cadena
  X:003EH         SYMBOL        d
  -------         ENDDO         
  C:91BBH         LINE#         100
  C:91C6H         LINE#         101
  C:91C6H         LINE#         106
  C:91CEH         LINE#         111
  C:91ECH         LINE#         112
  C:91ECH         LINE#         113
  C:9203H         LINE#         114
  C:920DH         LINE#         118
  C:9215H         LINE#         122
  -------         ENDPROC       _RASPBERRY_DATA
  -------         PROC          RELOJ_PANTALLA_LCD
  -------         DO            
  X:0010H         SYMBOL        Ini_Clock_LCD
  -------         ENDDO         
  C:9216H         LINE#         131
  C:9216H         LINE#         132
  C:9216H         LINE#         134
  C:9229H         LINE#         135
  C:922FH         LINE#         136
  C:922FH         LINE#         137
  C:9231H         LINE#         138
  C:923AH         LINE#         142
  C:923CH         LINE#         143
  C:924CH         LINE#         145
  C:924EH         LINE#         146
  C:9250H         LINE#         148
  C:9251H         LINE#         150
  C:9251H         LINE#         151
  C:9253H         LINE#         152
  C:9258H         LINE#         153
  C:9261H         LINE#         154
  C:926AH         LINE#         155
  C:926CH         LINE#         156
  C:926CH         LINE#         157
  -------         ENDPROC       RELOJ_PANTALLA_LCD
  -------         PROC          _PANTALLALCD
  X:0010H         SYMBOL        cod_msg
  -------         DO            
  X:0011H         SYMBOL        Ini_LCD_Line_one
  X:0017H         SYMBOL        num_chr
  -------         ENDDO         
  C:3AACH         LINE#         161
  C:3AB1H         LINE#         162
  C:3AB1H         LINE#         164
BL51 BANKED LINKER/LOCATER V6.22.2.0                                                  08/31/2020  09:26:19  PAGE 51


  C:3AC4H         LINE#         171
  C:3AC6H         LINE#         173
  C:3ACFH         LINE#         174
  C:3ACFH         LINE#         175
  C:3AD9H         LINE#         177
  C:3B1AH         LINE#         178
  C:3B1AH         LINE#         180
  C:3B1AH         LINE#         181
  C:3B28H         LINE#         182
  C:3B2EH         LINE#         183
  C:3B31H         LINE#         184
  C:3B37H         LINE#         185
  C:3B3AH         LINE#         187
  C:3B3AH         LINE#         189
  C:3B48H         LINE#         190
  C:3B4EH         LINE#         191
  C:3B51H         LINE#         192
  C:3B57H         LINE#         193
  C:3B5AH         LINE#         195
  C:3B5AH         LINE#         197
  C:3B68H         LINE#         198
  C:3B6EH         LINE#         199
  C:3B71H         LINE#         200
  C:3B77H         LINE#         201
  C:3B7AH         LINE#         202
  C:3B7AH         LINE#         203
  C:3B88H         LINE#         204
  C:3B8EH         LINE#         205
  C:3B91H         LINE#         206
  C:3B97H         LINE#         207
  C:3B9AH         LINE#         208
  C:3B9AH         LINE#         209
  C:3BA8H         LINE#         210
  C:3BAEH         LINE#         211
  C:3BB1H         LINE#         212
  C:3BB7H         LINE#         213
  C:3BBAH         LINE#         214
  C:3BBAH         LINE#         215
  C:3BC8H         LINE#         216
  C:3BCEH         LINE#         217
  C:3BD1H         LINE#         218
  C:3BD7H         LINE#         219
  C:3BDAH         LINE#         220
  C:3BDAH         LINE#         222
  C:3BE8H         LINE#         223
  C:3BEEH         LINE#         224
  C:3BF1H         LINE#         225
  C:3BF7H         LINE#         226
  C:3BFAH         LINE#         227
  C:3BFAH         LINE#         233
  C:3BFAH         LINE#         234
  C:3C08H         LINE#         235
  C:3C0EH         LINE#         236
  C:3C11H         LINE#         237
  C:3C17H         LINE#         238
  C:3C1AH         LINE#         239
  C:3C1AH         LINE#         240
BL51 BANKED LINKER/LOCATER V6.22.2.0                                                  08/31/2020  09:26:19  PAGE 52


  C:3C28H         LINE#         241
  C:3C2EH         LINE#         242
  C:3C31H         LINE#         243
  C:3C37H         LINE#         244
  C:3C3AH         LINE#         246
  C:3C3AH         LINE#         247
  C:3C48H         LINE#         248
  C:3C4EH         LINE#         249
  C:3C51H         LINE#         250
  C:3C57H         LINE#         251
  C:3C5AH         LINE#         253
  C:3C5AH         LINE#         254
  C:3C68H         LINE#         255
  C:3C6EH         LINE#         256
  C:3C71H         LINE#         257
  C:3C77H         LINE#         258
  C:3C7AH         LINE#         263
  C:3C7AH         LINE#         265
  C:3C88H         LINE#         266
  C:3C8EH         LINE#         267
  C:3C91H         LINE#         268
  C:3C97H         LINE#         269
  C:3C9AH         LINE#         270
  C:3C9AH         LINE#         272
  C:3CA8H         LINE#         273
  C:3CAEH         LINE#         274
  C:3CB1H         LINE#         275
  C:3CB7H         LINE#         276
  C:3CBAH         LINE#         277
  C:3CBAH         LINE#         279
  C:3CC8H         LINE#         280
  C:3CCEH         LINE#         281
  C:3CD1H         LINE#         282
  C:3CD7H         LINE#         283
  C:3CD9H         LINE#         284
  C:3CD9H         LINE#         286
  C:3CE7H         LINE#         287
  C:3CEDH         LINE#         288
  C:3CF0H         LINE#         289
  C:3CF6H         LINE#         290
  C:3CF8H         LINE#         292
  C:3CF8H         LINE#         294
  C:3D06H         LINE#         295
  C:3D0CH         LINE#         296
  C:3D0FH         LINE#         297
  C:3D15H         LINE#         298
  C:3D17H         LINE#         300
  C:3D17H         LINE#         301
  C:3D25H         LINE#         302
  C:3D2BH         LINE#         303
  C:3D2EH         LINE#         304
  C:3D39H         LINE#         305
  C:3D39H         LINE#         306
  C:3D39H         LINE#         308
  C:3D39H         LINE#         309
  C:3D39H         LINE#         310
  C:3D3BH         LINE#         312
BL51 BANKED LINKER/LOCATER V6.22.2.0                                                  08/31/2020  09:26:19  PAGE 53


  C:3D3CH         LINE#         314
  C:3D3CH         LINE#         315
  C:3D3EH         LINE#         316
  C:3D7FH         LINE#         317
  C:3D7FH         LINE#         320
  C:3D7FH         LINE#         321
  C:3D85H         LINE#         322
  C:3D88H         LINE#         323
  C:3D88H         LINE#         325
  C:3D8EH         LINE#         326
  C:3D90H         LINE#         328
  C:3D90H         LINE#         330
  C:3D96H         LINE#         331
  C:3D98H         LINE#         332
  C:3D98H         LINE#         333
  C:3D9EH         LINE#         334
  C:3DA0H         LINE#         335
  C:3DA0H         LINE#         336
  C:3DA6H         LINE#         337
  C:3DA8H         LINE#         338
  C:3DA8H         LINE#         339
  C:3DAEH         LINE#         340
  C:3DB0H         LINE#         341
  C:3DB0H         LINE#         343
  C:3DB6H         LINE#         344
  C:3DB8H         LINE#         345
  C:3DB8H         LINE#         346
  C:3DBEH         LINE#         347
  C:3DC0H         LINE#         349
  C:3DC0H         LINE#         350
  C:3DC6H         LINE#         351
  C:3DC8H         LINE#         353
  C:3DC8H         LINE#         354
  C:3DCEH         LINE#         355
  C:3DD0H         LINE#         357
  C:3DD0H         LINE#         358
  C:3DD6H         LINE#         359
  C:3DD8H         LINE#         361
  C:3DD8H         LINE#         362
  C:3DDEH         LINE#         363
  C:3DE0H         LINE#         367
  C:3DE0H         LINE#         369
  C:3DE6H         LINE#         370
  C:3DE8H         LINE#         371
  C:3DE8H         LINE#         373
  C:3DEEH         LINE#         374
  C:3DF0H         LINE#         375
  C:3DF0H         LINE#         377
  C:3DF6H         LINE#         379
  C:3DF8H         LINE#         380
  C:3DF8H         LINE#         382
  C:3DFEH         LINE#         383
  C:3E00H         LINE#         384
  C:3E00H         LINE#         386
  C:3E06H         LINE#         387
  C:3E08H         LINE#         389
  C:3E08H         LINE#         391
BL51 BANKED LINKER/LOCATER V6.22.2.0                                                  08/31/2020  09:26:19  PAGE 54


  C:3E11H         LINE#         392
  C:3E11H         LINE#         394
  C:3E11H         LINE#         396
  C:3E11H         LINE#         397
  C:3E11H         LINE#         398
  C:3E13H         LINE#         399
  C:3E13H         LINE#         403
  -------         ENDPROC       _PANTALLALCD
  -------         PROC          _PANTALLALCD_LINEA_2
  X:0010H         SYMBOL        cod_msg
  X:0011H         SYMBOL        buffer
  -------         DO            
  X:0014H         SYMBOL        Ini_LCD_Line_one
  X:001AH         SYMBOL        num_chr
  X:001BH         SYMBOL        buf
  -------         ENDDO         
  C:5CF5H         LINE#         404
  C:5D03H         LINE#         405
  C:5D03H         LINE#         407
  C:5D16H         LINE#         414
  C:5D18H         LINE#         416
  C:5D21H         LINE#         417
  C:5D21H         LINE#         420
  C:5D2FH         LINE#         421
  C:5D2FH         LINE#         423
  C:5D2FH         LINE#         424
  C:5D32H         LINE#         425
  C:5D40H         LINE#         426
  C:5D55H         LINE#         427
  C:5D5BH         LINE#         428
  C:5D61H         LINE#         429
  C:5D67H         LINE#         430
  C:5D67H         LINE#         431
  C:5D69H         LINE#         432
  C:5D69H         LINE#         433
  C:5D6CH         LINE#         434
  C:5D7AH         LINE#         435
  C:5D8FH         LINE#         436
  C:5D95H         LINE#         437
  C:5D9BH         LINE#         438
  C:5DA6H         LINE#         439
  C:5DB6H         LINE#         440
  C:5DB6H         LINE#         441
  C:5DB6H         LINE#         443
  C:5DB6H         LINE#         445
  C:5DB6H         LINE#         446
  C:5DB8H         LINE#         447
  C:5DB9H         LINE#         449
  C:5DB9H         LINE#         450
  C:5DBBH         LINE#         451
  C:5DC9H         LINE#         452
  C:5DC9H         LINE#         453
  C:5DC9H         LINE#         455
  C:5DD8H         LINE#         456
  C:5DD8H         LINE#         457
  C:5DD8H         LINE#         458
  C:5DD8H         LINE#         460
BL51 BANKED LINKER/LOCATER V6.22.2.0                                                  08/31/2020  09:26:19  PAGE 55


  C:5DDAH         LINE#         462
  C:5DDAH         LINE#         463
  C:5DE9H         LINE#         464
  C:5DFCH         LINE#         465
  C:5E16H         LINE#         466
  C:5E34H         LINE#         467
  C:5E4BH         LINE#         468
  C:5E54H         LINE#         469
  C:5E54H         LINE#         470
  C:5E54H         LINE#         472
  C:5E54H         LINE#         473
  C:5E54H         LINE#         474
  C:5E56H         LINE#         475
  C:5E56H         LINE#         478
  -------         ENDPROC       _PANTALLALCD_LINEA_2
  -------         ENDMOD        PANTALLAS

  -------         MODULE        PROG
  C:0000H         SYMBOL        _ICE_DUMMY_
  C:5500H         PUBLIC        Prog_fecha_vencimiento
  C:6386H         PUBLIC        Prog_Sin_Cobro
  C:6966H         PUBLIC        _Ver_Horario_Desde_Hasta
  C:6DA3H         PUBLIC        Prog_debug
  C:7193H         PUBLIC        dcto_caja
  C:8717H         PUBLIC        _GetOption
  X:013FH         PUBLIC        validacion
  X:0148H         PUBLIC        cursor
  C:684CH         PUBLIC        _Prog_Horarios_on_off
  C:8E4DH         PUBLIC        Show
  C:4125H         PUBLIC        Ver_Prog
  C:98DCH         PUBLIC        Addr_Horarios
  C:6F9BH         PUBLIC        Prog_Comparacion_Activa
  C:7BB4H         PUBLIC        prog_id_cliente
  C:963DH         PUBLIC        _ValidarClave
  C:4F00H         PUBLIC        menu
  C:6E9FH         PUBLIC        Prog_Use_Lpr
  C:9159H         PUBLIC        _ListaComandos
  C:0EF1H         SYMBOL        _?ix1000
  C:0EFCH         SYMBOL        _?ix1001
  C:0F0CH         SYMBOL        _?ix1002
  C:0F1CH         SYMBOL        _?ix1003
  C:6101H         PUBLIC        Prog_Horarios
  C:0F20H         SYMBOL        _?ix1004
  C:0F24H         SYMBOL        _?ix1005
  C:5108H         PUBLIC        _hash_id
  C:49B7H         PUBLIC        _Prog_Horario_dias
  C:7A3CH         PUBLIC        Prog_tiempo_gracia
  C:8C59H         PUBLIC        _IngresaDato
  C:9404H         PUBLIC        First_Clave
  X:015CH         PUBLIC        comandos
  C:9B3CH         PUBLIC        DisplayCursor
  C:797FH         PUBLIC        prog_cod_park
  C:64C4H         PUBLIC        Ver_Horario
  C:6724H         PUBLIC        _Ver_Horario_dias
  C:5306H         PUBLIC        _Prog_Horario_Desde_Hasta
  C:7097H         PUBLIC        tipo_pantalla
  C:96FFH         PUBLIC        _GetCMD
BL51 BANKED LINKER/LOCATER V6.22.2.0                                                  08/31/2020  09:26:19  PAGE 56


  -------         PROC          _HASH_ID
  X:0071H         SYMBOL        clave
  -------         DO            
  X:0074H         SYMBOL        len_clave
  X:0075H         SYMBOL        i
  X:013BH         SYMBOL        temp
  X:013DH         SYMBOL        temp1
  X:0076H         SYMBOL        aleatorio
  X:0081H         SYMBOL        suma
  X:0091H         SYMBOL        xxor
  X:00A1H         SYMBOL        usuario1
  X:00ACH         SYMBOL        vencimiento_password
  -------         ENDDO         
  C:5108H         LINE#         108
  C:5113H         LINE#         109
  C:5113H         LINE#         112
  C:5126H         LINE#         113
  C:5139H         LINE#         114
  C:514CH         LINE#         118
  C:5159H         LINE#         119
  C:5175H         LINE#         121
  C:5175H         LINE#         122
  C:5179H         LINE#         123
  C:517BH         LINE#         125
  C:517BH         LINE#         126
  C:5182H         LINE#         127
  C:5182H         LINE#         129
  C:5195H         LINE#         130
  C:51A9H         LINE#         131
  C:51A9H         LINE#         132
  C:51D5H         LINE#         133
  C:51E0H         LINE#         134
  C:51EDH         LINE#         135
  C:520BH         LINE#         136
  C:5216H         LINE#         137
  C:5223H         LINE#         138
  C:5247H         LINE#         139
  C:524FH         LINE#         140
  C:524FH         LINE#         141
  C:5254H         LINE#         142
  C:5254H         LINE#         143
  C:526DH         LINE#         144
  C:526DH         LINE#         145
  C:5279H         LINE#         147
  C:5279H         LINE#         148
  C:5288H         LINE#         149
  C:5288H         LINE#         150
  C:5294H         LINE#         151
  C:5294H         LINE#         152
  C:52ADH         LINE#         153
  C:52ADH         LINE#         154
  C:52B8H         LINE#         155
  C:52B8H         LINE#         156
  C:52D1H         LINE#         157
  C:52D1H         LINE#         158
  C:52DCH         LINE#         159
  C:52DCH         LINE#         160
BL51 BANKED LINKER/LOCATER V6.22.2.0                                                  08/31/2020  09:26:19  PAGE 57


  C:52F1H         LINE#         162
  C:52FAH         LINE#         163
  C:52FFH         LINE#         164
  C:5305H         LINE#         165
  -------         ENDPROC       _HASH_ID
  -------         PROC          _LISTACOMANDOS
  X:005AH         SYMBOL        cmd
  -------         DO            
  X:005DH         SYMBOL        buf
  X:0060H         SYMBOL        i
  -------         ENDDO         
  C:9159H         LINE#         172
  C:9164H         LINE#         173
  C:9164H         LINE#         177
  C:9177H         LINE#         178
  C:9177H         LINE#         179
  C:918FH         LINE#         180
  C:91AAH         LINE#         181
  C:91B0H         LINE#         182
  C:91B8H         LINE#         184
  C:91BAH         LINE#         185
  -------         ENDPROC       _LISTACOMANDOS
  -------         PROC          L?0228
  -------         ENDPROC       L?0228
  -------         PROC          _VALIDARCLAVE
  X:0071H         SYMBOL        buffer
  -------         DO            
  X:0074H         SYMBOL        buf
  -------         ENDDO         
  C:963DH         LINE#         191
  C:9648H         LINE#         192
  C:9648H         LINE#         195
  C:9657H         LINE#         196
  C:9672H         LINE#         197
  C:9674H         LINE#         200
  C:9676H         LINE#         201
  -------         ENDPROC       _VALIDARCLAVE
  -------         PROC          L?0229
  -------         ENDPROC       L?0229
  -------         PROC          _GETCMD
  X:0071H         SYMBOL        in
  -------         DO            
  X:0074H         SYMBOL        tokens
  -------         ENDDO         
  C:96FFH         LINE#         208
  C:970AH         LINE#         209
  C:970AH         LINE#         210
  C:971DH         LINE#         211
  -------         ENDPROC       _GETCMD
  -------         PROC          L?0227
  -------         ENDPROC       L?0227
  -------         PROC          _GETOPTION
  X:005AH         SYMBOL        in
  -------         DO            
  X:005DH         SYMBOL        tokensSpace
  X:0061H         SYMBOL        tokensQuote
  -------         ENDDO         
BL51 BANKED LINKER/LOCATER V6.22.2.0                                                  08/31/2020  09:26:19  PAGE 58


  C:8717H         LINE#         217
  C:8722H         LINE#         218
  C:8722H         LINE#         219
  C:8735H         LINE#         220
  C:8748H         LINE#         223
  C:875AH         LINE#         224
  C:8766H         LINE#         227
  C:876DH         LINE#         228
  C:877AH         LINE#         230
  C:8793H         LINE#         231
  -------         ENDPROC       _GETOPTION
  -------         PROC          DISPLAYCURSOR
  C:9B3CH         LINE#         236
  C:9B3CH         LINE#         237
  C:9B3CH         LINE#         238
  -------         ENDPROC       DISPLAYCURSOR
  C:8C55H         SYMBOL        L?0226
  -------         PROC          L?0225
  -------         ENDPROC       L?0225
  C:8C55H         SYMBOL        L?0226
  -------         PROC          _INGRESADATO
  X:0085H         SYMBOL        buffer
  X:0088H         SYMBOL        modo
  -------         DO            
  D:0006H         SYMBOL        i
  -------         ENDDO         
  C:8C59H         LINE#         245
  C:8C67H         LINE#         246
  C:8C67H         LINE#         251
  C:8C67H         LINE#         252
  C:8C79H         LINE#         253
  C:8C7FH         LINE#         254
  C:8C7FH         LINE#         255
  C:8C9AH         LINE#         256
  C:8C9CH         LINE#         258
  C:8C9CH         LINE#         259
  C:8CA1H         LINE#         260
  C:8CA1H         LINE#         261
  C:8CB2H         LINE#         262
  C:8CBCH         LINE#         263
  C:8CCBH         LINE#         265
  C:8CD0H         LINE#         269
  -------         ENDPROC       _INGRESADATO
  -------         PROC          PROG_ID_CLIENTE
  -------         DO            
  X:005AH         SYMBOL        buffer
  X:0064H         SYMBOL        dataee
  -------         ENDDO         
  C:7BB4H         LINE#         286
  C:7BB4H         LINE#         287
  C:7BB4H         LINE#         291
  C:7BC6H         LINE#         292
  C:7BE3H         LINE#         294
  C:7BFAH         LINE#         296
  C:7C03H         LINE#         297
  C:7C0AH         LINE#         298
  C:7C1BH         LINE#         299
BL51 BANKED LINKER/LOCATER V6.22.2.0                                                  08/31/2020  09:26:19  PAGE 59


  C:7C24H         LINE#         301
  C:7C36H         LINE#         302
  C:7C53H         LINE#         303
  -------         ENDPROC       PROG_ID_CLIENTE
  -------         PROC          PROG_COD_PARK
  -------         DO            
  X:005AH         SYMBOL        buffer
  X:0064H         SYMBOL        dataee
  -------         ENDDO         
  C:797FH         LINE#         308
  C:797FH         LINE#         309
  C:797FH         LINE#         313
  C:7992H         LINE#         314
  C:79AFH         LINE#         316
  C:79C6H         LINE#         318
  C:79CFH         LINE#         319
  C:79DAH         LINE#         320
  C:79EBH         LINE#         321
  C:79F5H         LINE#         323
  C:7A08H         LINE#         324
  C:7A25H         LINE#         325
  -------         ENDPROC       PROG_COD_PARK
  -------         PROC          PROG_TIEMPO_GRACIA
  -------         DO            
  X:005AH         SYMBOL        buffer
  X:0064H         SYMBOL        dataee
  -------         ENDDO         
  C:7A3CH         LINE#         330
  C:7A3CH         LINE#         331
  C:7A3CH         LINE#         335
  C:7A4FH         LINE#         336
  C:7A6CH         LINE#         338
  C:7A83H         LINE#         340
  C:7A8CH         LINE#         341
  C:7A97H         LINE#         342
  C:7AA8H         LINE#         343
  C:7AB2H         LINE#         345
  C:7AC5H         LINE#         346
  C:7AE2H         LINE#         347
  -------         ENDPROC       PROG_TIEMPO_GRACIA
  -------         PROC          PROG_SIN_COBRO
  -------         DO            
  X:005AH         SYMBOL        buffer
  X:0064H         SYMBOL        dataee
  -------         ENDDO         
  C:6386H         LINE#         353
  C:6386H         LINE#         354
  C:6386H         LINE#         360
  C:6399H         LINE#         361
  C:63B6H         LINE#         362
  C:63C0H         LINE#         363
  C:63C0H         LINE#         364
  C:63D3H         LINE#         365
  C:63D5H         LINE#         366
  C:63E1H         LINE#         367
  C:63E1H         LINE#         368
  C:63F4H         LINE#         369
BL51 BANKED LINKER/LOCATER V6.22.2.0                                                  08/31/2020  09:26:19  PAGE 60


  C:63F6H         LINE#         371
  C:63F6H         LINE#         372
  C:640DH         LINE#         373
  C:640DH         LINE#         375
  C:6416H         LINE#         376
  C:6421H         LINE#         377
  C:6432H         LINE#         378
  C:643CH         LINE#         380
  C:644FH         LINE#         381
  C:646CH         LINE#         382
  C:6476H         LINE#         383
  C:6476H         LINE#         384
  C:6489H         LINE#         385
  C:648BH         LINE#         386
  C:6497H         LINE#         387
  C:6497H         LINE#         388
  C:64AAH         LINE#         389
  C:64ACH         LINE#         391
  C:64ACH         LINE#         392
  C:64C3H         LINE#         393
  C:64C3H         LINE#         395
  -------         ENDPROC       PROG_SIN_COBRO
  -------         PROC          PROG_DEBUG
  -------         DO            
  X:005AH         SYMBOL        buffer
  X:0064H         SYMBOL        dataee
  -------         ENDDO         
  C:6DA3H         LINE#         401
  C:6DA3H         LINE#         402
  C:6DA3H         LINE#         407
  C:6DB6H         LINE#         408
  C:6DD3H         LINE#         409
  C:6DDDH         LINE#         410
  C:6DDDH         LINE#         411
  C:6DF0H         LINE#         412
  C:6DF2H         LINE#         414
  C:6DF2H         LINE#         415
  C:6E09H         LINE#         416
  C:6E09H         LINE#         418
  C:6E12H         LINE#         419
  C:6E1DH         LINE#         420
  C:6E2EH         LINE#         421
  C:6E38H         LINE#         423
  C:6E4BH         LINE#         424
  C:6E68H         LINE#         425
  C:6E72H         LINE#         426
  C:6E72H         LINE#         427
  C:6E85H         LINE#         428
  C:6E87H         LINE#         430
  C:6E87H         LINE#         431
  C:6E9EH         LINE#         432
  C:6E9EH         LINE#         433
  -------         ENDPROC       PROG_DEBUG
  -------         PROC          PROG_USE_LPR
  -------         DO            
  X:005AH         SYMBOL        buffer
  X:0064H         SYMBOL        dataee
BL51 BANKED LINKER/LOCATER V6.22.2.0                                                  08/31/2020  09:26:19  PAGE 61


  -------         ENDDO         
  C:6E9FH         LINE#         438
  C:6E9FH         LINE#         439
  C:6E9FH         LINE#         444
  C:6EB2H         LINE#         445
  C:6ECFH         LINE#         446
  C:6ED9H         LINE#         447
  C:6ED9H         LINE#         448
  C:6EECH         LINE#         449
  C:6EEEH         LINE#         451
  C:6EEEH         LINE#         452
  C:6F05H         LINE#         453
  C:6F05H         LINE#         455
  C:6F0EH         LINE#         456
  C:6F19H         LINE#         457
  C:6F2AH         LINE#         458
  C:6F34H         LINE#         460
  C:6F47H         LINE#         461
  C:6F64H         LINE#         462
  C:6F6EH         LINE#         463
  C:6F6EH         LINE#         464
  C:6F81H         LINE#         465
  C:6F83H         LINE#         467
  C:6F83H         LINE#         468
  C:6F9AH         LINE#         469
  C:6F9AH         LINE#         470
  -------         ENDPROC       PROG_USE_LPR
  -------         PROC          PROG_COMPARACION_ACTIVA
  -------         DO            
  X:005AH         SYMBOL        buffer
  X:0064H         SYMBOL        dataee
  -------         ENDDO         
  C:6F9BH         LINE#         474
  C:6F9BH         LINE#         475
  C:6F9BH         LINE#         480
  C:6FAEH         LINE#         481
  C:6FCBH         LINE#         482
  C:6FD5H         LINE#         483
  C:6FD5H         LINE#         484
  C:6FE8H         LINE#         485
  C:6FEAH         LINE#         487
  C:6FEAH         LINE#         488
  C:7001H         LINE#         489
  C:7001H         LINE#         491
  C:700AH         LINE#         492
  C:7015H         LINE#         493
  C:7026H         LINE#         494
  C:7030H         LINE#         496
  C:7043H         LINE#         497
  C:7060H         LINE#         498
  C:706AH         LINE#         499
  C:706AH         LINE#         500
  C:707DH         LINE#         501
  C:707FH         LINE#         503
  C:707FH         LINE#         504
  C:7096H         LINE#         505
  C:7096H         LINE#         506
BL51 BANKED LINKER/LOCATER V6.22.2.0                                                  08/31/2020  09:26:19  PAGE 62


  -------         ENDPROC       PROG_COMPARACION_ACTIVA
  -------         PROC          TIPO_PANTALLA
  -------         DO            
  X:005AH         SYMBOL        buffer
  X:0064H         SYMBOL        dataee
  -------         ENDDO         
  C:7097H         LINE#         512
  C:7097H         LINE#         513
  C:7097H         LINE#         518
  C:70AAH         LINE#         519
  C:70C7H         LINE#         520
  C:70D1H         LINE#         521
  C:70D1H         LINE#         522
  C:70E4H         LINE#         523
  C:70E6H         LINE#         525
  C:70E6H         LINE#         526
  C:70FDH         LINE#         527
  C:70FDH         LINE#         529
  C:7106H         LINE#         530
  C:7111H         LINE#         531
  C:7122H         LINE#         532
  C:712CH         LINE#         534
  C:713FH         LINE#         535
  C:715CH         LINE#         536
  C:7166H         LINE#         537
  C:7166H         LINE#         538
  C:7179H         LINE#         539
  C:717BH         LINE#         541
  C:717BH         LINE#         542
  C:7192H         LINE#         543
  C:7192H         LINE#         545
  -------         ENDPROC       TIPO_PANTALLA
  -------         PROC          DCTO_CAJA
  -------         DO            
  X:005AH         SYMBOL        buffer
  X:0064H         SYMBOL        dataee
  -------         ENDDO         
  C:7193H         LINE#         551
  C:7193H         LINE#         552
  C:7193H         LINE#         557
  C:71A6H         LINE#         558
  C:71C3H         LINE#         559
  C:71CDH         LINE#         560
  C:71CDH         LINE#         561
  C:71E0H         LINE#         562
  C:71E2H         LINE#         564
  C:71E2H         LINE#         565
  C:71F9H         LINE#         566
  C:71F9H         LINE#         568
  C:7202H         LINE#         569
  C:720DH         LINE#         570
  C:721EH         LINE#         571
  C:7228H         LINE#         573
  C:723BH         LINE#         574
  C:7258H         LINE#         575
  C:7262H         LINE#         576
  C:7262H         LINE#         577
BL51 BANKED LINKER/LOCATER V6.22.2.0                                                  08/31/2020  09:26:19  PAGE 63


  C:7275H         LINE#         578
  C:7277H         LINE#         580
  C:7277H         LINE#         581
  C:728EH         LINE#         582
  C:728EH         LINE#         583
  -------         ENDPROC       DCTO_CAJA
  -------         PROC          ADDR_HORARIOS
  -------         DO            
  X:0088H         SYMBOL        ee_addr_horario
  -------         ENDDO         
  C:98DCH         LINE#         584
  C:98DCH         LINE#         585
  C:98DCH         LINE#         588
  C:98E2H         LINE#         589
  C:98E6H         LINE#         590
  C:98EAH         LINE#         591
  C:98EEH         LINE#         592
  C:98F2H         LINE#         593
  C:98F6H         LINE#         594
  C:98FAH         LINE#         595
  C:98FEH         LINE#         596
  C:9902H         LINE#         597
  C:9906H         LINE#         598
  C:9909H         LINE#         599
  C:990FH         LINE#         600
  -------         ENDPROC       ADDR_HORARIOS
  -------         PROC          _PROG_HORARIOS_ON_OFF
  X:0075H         SYMBOL        addr
  -------         DO            
  X:0077H         SYMBOL        buffer
  X:0081H         SYMBOL        dataee
  X:0083H         SYMBOL        habilitado
  -------         ENDDO         
  C:684CH         LINE#         601
  C:6856H         LINE#         602
  C:6856H         LINE#         605
  C:6865H         LINE#         606
  C:6882H         LINE#         607
  C:688CH         LINE#         608
  C:688CH         LINE#         609
  C:689FH         LINE#         610
  C:68A1H         LINE#         612
  C:68A1H         LINE#         613
  C:68B8H         LINE#         614
  C:68B8H         LINE#         615
  C:68C1H         LINE#         616
  C:68CCH         LINE#         617
  C:68DDH         LINE#         618
  C:68ECH         LINE#         620
  C:6903H         LINE#         621
  C:6920H         LINE#         622
  C:692DH         LINE#         623
  C:692DH         LINE#         624
  C:6930H         LINE#         625
  C:6943H         LINE#         626
  C:6945H         LINE#         628
  C:6945H         LINE#         629
BL51 BANKED LINKER/LOCATER V6.22.2.0                                                  08/31/2020  09:26:19  PAGE 64


  C:694AH         LINE#         630
  C:695FH         LINE#         631
  C:695FH         LINE#         632
  C:6965H         LINE#         633
  -------         ENDPROC       _PROG_HORARIOS_ON_OFF
  -------         PROC          _PROG_HORARIO_DESDE_HASTA
  X:0075H         SYMBOL        addr
  -------         DO            
  X:0077H         SYMBOL        buffer
  D:0007H         SYMBOL        dataee
  -------         ENDDO         
  C:5306H         LINE#         634
  C:530EH         LINE#         635
  C:530EH         LINE#         640
  C:5317H         LINE#         641
  C:531AH         LINE#         642
  C:5323H         LINE#         643
  C:533BH         LINE#         644
  C:534EH         LINE#         645
  C:535CH         LINE#         646
  C:5374H         LINE#         647
  C:5387H         LINE#         648
  C:5395H         LINE#         649
  C:53ADH         LINE#         650
  C:53C0H         LINE#         651
  C:53CEH         LINE#         652
  C:53E6H         LINE#         653
  C:53F9H         LINE#         654
  C:5407H         LINE#         658
  C:5410H         LINE#         659
  C:5413H         LINE#         661
  C:541CH         LINE#         663
  C:5434H         LINE#         664
  C:5447H         LINE#         665
  C:5455H         LINE#         666
  C:546DH         LINE#         667
  C:5480H         LINE#         668
  C:548EH         LINE#         669
  C:54A6H         LINE#         670
  C:54B9H         LINE#         671
  C:54C7H         LINE#         672
  C:54DFH         LINE#         673
  C:54F2H         LINE#         674
  -------         ENDPROC       _PROG_HORARIO_DESDE_HASTA
  -------         PROC          _VER_HORARIO_DESDE_HASTA
  X:0088H         SYMBOL        addr
  -------         DO            
  D:0007H         SYMBOL        dataee
  -------         ENDDO         
  C:6966H         LINE#         676
  C:696EH         LINE#         677
  C:696EH         LINE#         679
  C:6977H         LINE#         680
  C:698AH         LINE#         681
  C:6998H         LINE#         682
  C:69ABH         LINE#         683
  C:69B9H         LINE#         684
BL51 BANKED LINKER/LOCATER V6.22.2.0                                                  08/31/2020  09:26:19  PAGE 65


  C:69CCH         LINE#         685
  C:69DAH         LINE#         686
  C:69EDH         LINE#         687
  C:69FBH         LINE#         689
  C:6A0EH         LINE#         690
  C:6A1CH         LINE#         692
  C:6A2FH         LINE#         693
  C:6A3DH         LINE#         695
  C:6A50H         LINE#         696
  C:6A5EH         LINE#         698
  C:6A71H         LINE#         699
  -------         ENDPROC       _VER_HORARIO_DESDE_HASTA
  -------         PROC          _PROG_HORARIO_DIAS
  X:0075H         SYMBOL        addr
  -------         DO            
  X:0077H         SYMBOL        buffer
  X:0081H         SYMBOL        dataee
  X:0082H         SYMBOL        j
  X:0083H         SYMBOL        temp
  -------         ENDDO         
  C:49B7H         LINE#         701
  C:49BFH         LINE#         702
  C:49BFH         LINE#         706
  C:49C8H         LINE#         707
  C:49D1H         LINE#         708
  C:49DAH         LINE#         709
  C:49E5H         LINE#         712
  C:49EEH         LINE#         714
  C:4A04H         LINE#         715
  C:4A04H         LINE#         717
  C:4A17H         LINE#         718
  C:4A17H         LINE#         719
  C:4A20H         LINE#         721
  C:4A35H         LINE#         722
  C:4A4DH         LINE#         723
  C:4A5AH         LINE#         724
  C:4A5AH         LINE#         726
  C:4A70H         LINE#         727
  C:4A70H         LINE#         728
  C:4A79H         LINE#         729
  C:4A8EH         LINE#         730
  C:4AA6H         LINE#         731
  C:4AB3H         LINE#         732
  C:4AB3H         LINE#         734
  C:4AC9H         LINE#         735
  C:4AC9H         LINE#         736
  C:4AD2H         LINE#         737
  C:4AE7H         LINE#         738
  C:4AFFH         LINE#         739
  C:4B0CH         LINE#         740
  C:4B0CH         LINE#         742
  C:4B22H         LINE#         743
  C:4B22H         LINE#         744
  C:4B2BH         LINE#         745
  C:4B40H         LINE#         746
  C:4B58H         LINE#         747
  C:4B65H         LINE#         748
BL51 BANKED LINKER/LOCATER V6.22.2.0                                                  08/31/2020  09:26:19  PAGE 66


  C:4B65H         LINE#         750
  C:4B7BH         LINE#         751
  C:4B7BH         LINE#         752
  C:4B84H         LINE#         753
  C:4B99H         LINE#         754
  C:4BB1H         LINE#         755
  C:4BBEH         LINE#         756
  C:4BBEH         LINE#         758
  C:4BD4H         LINE#         759
  C:4BD4H         LINE#         760
  C:4BDDH         LINE#         761
  C:4BF2H         LINE#         762
  C:4C0AH         LINE#         763
  C:4C17H         LINE#         764
  C:4C17H         LINE#         766
  C:4C2DH         LINE#         767
  C:4C2DH         LINE#         768
  C:4C36H         LINE#         769
  C:4C45H         LINE#         770
  C:4C57H         LINE#         771
  C:4C64H         LINE#         772
  C:4C64H         LINE#         773
  C:4C6DH         LINE#         775
  -------         ENDPROC       _PROG_HORARIO_DIAS
  -------         PROC          _VER_HORARIO_DIAS
  X:0088H         SYMBOL        addr
  -------         DO            
  X:008AH         SYMBOL        dataee
  -------         ENDDO         
  C:6724H         LINE#         776
  C:672CH         LINE#         777
  C:672CH         LINE#         780
  C:673CH         LINE#         781
  C:6742H         LINE#         782
  C:6742H         LINE#         783
  C:6746H         LINE#         784
  C:6748H         LINE#         786
  C:6748H         LINE#         787
  C:674FH         LINE#         788
  C:674FH         LINE#         791
  C:6767H         LINE#         792
  C:676DH         LINE#         793
  C:676DH         LINE#         794
  C:6771H         LINE#         795
  C:6773H         LINE#         797
  C:6773H         LINE#         798
  C:677AH         LINE#         799
  C:677AH         LINE#         802
  C:6792H         LINE#         803
  C:6798H         LINE#         804
  C:6798H         LINE#         805
  C:679CH         LINE#         806
  C:679EH         LINE#         808
  C:679EH         LINE#         809
  C:67A5H         LINE#         810
  C:67A5H         LINE#         812
  C:67BDH         LINE#         813
BL51 BANKED LINKER/LOCATER V6.22.2.0                                                  08/31/2020  09:26:19  PAGE 67


  C:67C3H         LINE#         814
  C:67C3H         LINE#         815
  C:67C7H         LINE#         816
  C:67C9H         LINE#         818
  C:67C9H         LINE#         819
  C:67D0H         LINE#         820
  C:67D0H         LINE#         822
  C:67E8H         LINE#         823
  C:67EEH         LINE#         824
  C:67EEH         LINE#         825
  C:67F2H         LINE#         826
  C:67F4H         LINE#         828
  C:67F4H         LINE#         829
  C:67FBH         LINE#         830
  C:67FBH         LINE#         833
  C:6813H         LINE#         834
  C:6819H         LINE#         835
  C:6819H         LINE#         836
  C:681DH         LINE#         837
  C:681FH         LINE#         839
  C:681FH         LINE#         840
  C:6826H         LINE#         841
  C:6826H         LINE#         843
  C:6838H         LINE#         844
  C:683EH         LINE#         845
  C:683EH         LINE#         846
  C:6842H         LINE#         847
  C:6844H         LINE#         849
  C:6844H         LINE#         850
  C:684BH         LINE#         851
  C:684BH         LINE#         852
  -------         ENDPROC       _VER_HORARIO_DIAS
  -------         PROC          PROG_HORARIOS
  -------         DO            
  X:005AH         SYMBOL        buffer
  X:0064H         SYMBOL        ee_addr_horario
  X:006FH         SYMBOL        addr
  X:0071H         SYMBOL        temp
  X:0073H         SYMBOL        dataee
  X:0074H         SYMBOL        j
  -------         ENDDO         
  C:6101H         LINE#         853
  C:6101H         LINE#         854
  C:6101H         LINE#         863
  C:610DH         LINE#         867
  C:6116H         LINE#         868
  C:6121H         LINE#         870
  C:6130H         LINE#         874
  C:6146H         LINE#         875
  C:614CH         LINE#         879
  C:615AH         LINE#         880
  C:6162H         LINE#         881
  C:6162H         LINE#         883
  C:6171H         LINE#         884
  C:6185H         LINE#         885
  C:6185H         LINE#         886
  C:6199H         LINE#         887
BL51 BANKED LINKER/LOCATER V6.22.2.0                                                  08/31/2020  09:26:19  PAGE 68


  C:61A1H         LINE#         889
  C:61B1H         LINE#         892
  C:61B4H         LINE#         896
  C:61BFH         LINE#         899
  C:61C8H         LINE#         900
  C:61D3H         LINE#         901
  C:61E2H         LINE#         902
  C:61F5H         LINE#         904
  C:620DH         LINE#         905
  C:6227H         LINE#         906
  C:622FH         LINE#         907
  C:622FH         LINE#         909
  C:623DH         LINE#         910
  C:6245H         LINE#         911
  C:6245H         LINE#         912
  C:6245H         LINE#         914
  -------         ENDPROC       PROG_HORARIOS
  -------         PROC          PROG_FECHA_VENCIMIENTO
  -------         DO            
  X:005AH         SYMBOL        buffer
  X:0065H         SYMBOL        cmd
  X:0068H         SYMBOL        fecha
  X:006FH         SYMBOL        dataee
  -------         ENDDO         
  C:5500H         LINE#         915
  C:5500H         LINE#         916
  C:5500H         LINE#         923
  C:550DH         LINE#         924
  C:5524H         LINE#         927
  C:553BH         LINE#         929
  C:553BH         LINE#         930
  C:5544H         LINE#         931
  C:5551H         LINE#         932
  C:5568H         LINE#         933
  C:557AH         LINE#         934
  C:5583H         LINE#         939
  C:558EH         LINE#         940
  C:55A2H         LINE#         941
  C:55AFH         LINE#         943
  C:55B8H         LINE#         946
  C:55C1H         LINE#         947
  C:55CCH         LINE#         948
  C:55E3H         LINE#         950
  C:55EBH         LINE#         951
  C:55F3H         LINE#         952
  C:55F6H         LINE#         954
  C:5607H         LINE#         955
  C:5618H         LINE#         957
  C:5627H         LINE#         958
  C:562FH         LINE#         959
  C:5637H         LINE#         960
  C:563AH         LINE#         961
  C:564BH         LINE#         962
  C:565CH         LINE#         963
  C:566BH         LINE#         964
  C:5673H         LINE#         965
  C:567BH         LINE#         966
BL51 BANKED LINKER/LOCATER V6.22.2.0                                                  08/31/2020  09:26:19  PAGE 69


  C:567EH         LINE#         967
  C:568FH         LINE#         968
  C:56A0H         LINE#         969
  C:56AFH         LINE#         970
  C:56BAH         LINE#         972
  C:56C7H         LINE#         974
  C:56DEH         LINE#         975
  -------         ENDPROC       PROG_FECHA_VENCIMIENTO
  -------         PROC          VER_HORARIO
  -------         DO            
  X:006DH         SYMBOL        buffer
  X:0077H         SYMBOL        ee_addr_horario
  X:0082H         SYMBOL        conta
  X:0083H         SYMBOL        addr
  X:0085H         SYMBOL        temp
  X:0087H         SYMBOL        dataee
  -------         ENDDO         
  C:64C4H         LINE#         978
  C:64C4H         LINE#         979
  C:64C4H         LINE#         988
  C:64D0H         LINE#         989
  C:64E6H         LINE#         990
  C:64E6H         LINE#         992
  C:64F6H         LINE#         995
  C:650FH         LINE#         996
  C:6515H         LINE#         999
  C:6523H         LINE#         1000
  C:6532H         LINE#         1001
  C:654CH         LINE#         1002
  C:6557H         LINE#         1003
  C:6557H         LINE#         1004
  C:6560H         LINE#         1006
  C:6569H         LINE#         1007
  C:6579H         LINE#         1008
  C:657CH         LINE#         1010
  C:6587H         LINE#         1011
  C:659FH         LINE#         1012
  C:65B9H         LINE#         1013
  C:65C3H         LINE#         1014
  C:65C3H         LINE#         1015
  C:65CAH         LINE#         1017
  C:65D8H         LINE#         1018
  C:65E0H         LINE#         1019
  C:65E2H         LINE#         1021
  C:65E2H         LINE#         1022
  C:65E6H         LINE#         1023
  C:65E6H         LINE#         1024
  C:65E8H         LINE#         1026
  C:65E8H         LINE#         1027
  C:65F1H         LINE#         1028
  C:65F1H         LINE#         1030
  C:65FAH         LINE#         1033
  -------         ENDPROC       VER_HORARIO
  -------         PROC          VER_PROG
  -------         DO            
  X:005AH         SYMBOL        buffer
  X:0064H         SYMBOL        dataee
BL51 BANKED LINKER/LOCATER V6.22.2.0                                                  08/31/2020  09:26:19  PAGE 70


  X:0066H         SYMBOL        fecha
  -------         ENDDO         
  C:4125H         LINE#         1034
  C:4125H         LINE#         1035
  C:4125H         LINE#         1041
  C:4137H         LINE#         1042
  C:4154H         LINE#         1044
  C:416BH         LINE#         1046
  C:417EH         LINE#         1047
  C:419BH         LINE#         1049
  C:41B2H         LINE#         1051
  C:41C5H         LINE#         1052
  C:41E2H         LINE#         1054
  C:41F9H         LINE#         1056
  C:420CH         LINE#         1057
  C:4229H         LINE#         1058
  C:4233H         LINE#         1059
  C:4233H         LINE#         1060
  C:4239H         LINE#         1061
  C:423BH         LINE#         1062
  C:4247H         LINE#         1063
  C:4247H         LINE#         1064
  C:4250H         LINE#         1065
  C:4250H         LINE#         1068
  C:4263H         LINE#         1069
  C:4280H         LINE#         1070
  C:428EH         LINE#         1071
  C:428EH         LINE#         1072
  C:4292H         LINE#         1073
  C:4294H         LINE#         1075
  C:4294H         LINE#         1076
  C:429BH         LINE#         1077
  C:429BH         LINE#         1079
  C:42AEH         LINE#         1080
  C:42CBH         LINE#         1081
  C:42D7H         LINE#         1082
  C:42D7H         LINE#         1083
  C:42DBH         LINE#         1084
  C:42DDH         LINE#         1086
  C:42DDH         LINE#         1087
  C:42E4H         LINE#         1088
  C:42E4H         LINE#         1090
  C:42F7H         LINE#         1091
  C:4314H         LINE#         1092
  C:4320H         LINE#         1093
  C:4320H         LINE#         1094
  C:4324H         LINE#         1095
  C:4326H         LINE#         1097
  C:4326H         LINE#         1098
  C:432DH         LINE#         1099
  C:432DH         LINE#         1102
  C:4340H         LINE#         1103
  C:435DH         LINE#         1104
  C:4369H         LINE#         1105
  C:4369H         LINE#         1106
  C:436DH         LINE#         1107
  C:436FH         LINE#         1109
BL51 BANKED LINKER/LOCATER V6.22.2.0                                                  08/31/2020  09:26:19  PAGE 71


  C:436FH         LINE#         1110
  C:4376H         LINE#         1111
  C:4376H         LINE#         1113
  C:4389H         LINE#         1114
  C:43A6H         LINE#         1115
  C:43B0H         LINE#         1116
  C:43B0H         LINE#         1117
  C:43C3H         LINE#         1118
  C:43C5H         LINE#         1120
  C:43C5H         LINE#         1121
  C:43DCH         LINE#         1122
  C:43DCH         LINE#         1125
  C:43DFH         LINE#         1128
  C:43ECH         LINE#         1130
  C:4403H         LINE#         1131
  -------         ENDPROC       VER_PROG
  -------         PROC          SHOW
  C:8E4DH         LINE#         1136
  C:8E4DH         LINE#         1137
  C:8E4DH         LINE#         1138
  C:8E56H         LINE#         1139
  C:8E5FH         LINE#         1140
  C:8E68H         LINE#         1141
  C:8E71H         LINE#         1142
  C:8E7AH         LINE#         1143
  C:8E83H         LINE#         1144
  C:8E8CH         LINE#         1145
  C:8E95H         LINE#         1146
  C:8E9EH         LINE#         1147
  C:8EA7H         LINE#         1148
  C:8EB0H         LINE#         1149
  C:8EB9H         LINE#         1150
  -------         ENDPROC       SHOW
  -------         PROC          FIRST_CLAVE
  -------         DO            
  X:005AH         SYMBOL        clave
  -------         ENDDO         
  C:9404H         LINE#         1156
  C:9404H         LINE#         1157
  C:9404H         LINE#         1161
  C:940DH         LINE#         1162
  C:9412H         LINE#         1163
  C:9424H         LINE#         1164
  C:9431H         LINE#         1165
  C:9437H         LINE#         1166
  C:943AH         LINE#         1167
  C:943DH         LINE#         1168
  C:943FH         LINE#         1170
  -------         ENDPROC       FIRST_CLAVE
  -------         PROC          MENU
  -------         DO            
  X:0001H         SYMBOL        cmd
  X:0004H         SYMBOL        option1
  X:0007H         SYMBOL        option2
  X:000AH         SYMBOL        opt_buffer
  X:0032H         SYMBOL        buffer
  -------         ENDDO         
BL51 BANKED LINKER/LOCATER V6.22.2.0                                                  08/31/2020  09:26:19  PAGE 72


  C:4F00H         LINE#         1178
  C:4F00H         LINE#         1179
  C:4F00H         LINE#         1188
  C:4F09H         LINE#         1189
  C:4F15H         LINE#         1190
  C:4F15H         LINE#         1191
  C:4F18H         LINE#         1192
  C:4F22H         LINE#         1195
  C:4F22H         LINE#         1199
  C:4F22H         LINE#         1200
  C:4F2BH         LINE#         1201
  C:4F38H         LINE#         1202
  C:4F3DH         LINE#         1203
  C:4F53H         LINE#         1204
  C:4F65H         LINE#         1205
  C:4F6EH         LINE#         1210
  C:4F79H         LINE#         1211
  C:4F87H         LINE#         1212
  C:4F94H         LINE#         1213
  C:4F9DH         LINE#         1227
  C:4FA0H         LINE#         1228
  C:4FA0H         LINE#         1229
  C:4FA0H         LINE#         1230
  C:4FA3H         LINE#         1233
  C:4FAEH         LINE#         1234
  C:4FBCH         LINE#         1235
  C:4FD0H         LINE#         1236
  C:4FE4H         LINE#         1241
  C:4FFAH         LINE#         1242
  C:4FFAH         LINE#         1244
  C:5009H         LINE#         1245
  C:500BH         LINE#         1246
  C:501BH         LINE#         1247
  C:501BH         LINE#         1249
  C:502AH         LINE#         1250
  C:5048H         LINE#         1251
  C:5048H         LINE#         1257
  C:505BH         LINE#         1258
  C:505BH         LINE#         1259
  C:5098H         LINE#         1260
  C:5098H         LINE#         1261
  C:5098H         LINE#         1262
  C:509BH         LINE#         1264
  C:509EH         LINE#         1266
  C:509EH         LINE#         1267
  C:50A1H         LINE#         1268
  C:50A4H         LINE#         1270
  C:50A4H         LINE#         1272
  C:50A7H         LINE#         1274
  C:50AAH         LINE#         1276
  C:50AAH         LINE#         1277
  C:50ADH         LINE#         1279
  C:50B0H         LINE#         1281
  C:50B0H         LINE#         1282
  C:50B3H         LINE#         1283
  C:50B6H         LINE#         1284
  C:50B6H         LINE#         1285
BL51 BANKED LINKER/LOCATER V6.22.2.0                                                  08/31/2020  09:26:19  PAGE 73


  C:50B9H         LINE#         1286
  C:50BCH         LINE#         1287
  C:50BCH         LINE#         1288
  C:50BFH         LINE#         1290
  C:50C2H         LINE#         1291
  C:50C2H         LINE#         1292
  C:50C5H         LINE#         1293
  C:50C8H         LINE#         1295
  C:50C8H         LINE#         1296
  C:50CBH         LINE#         1297
  C:50CEH         LINE#         1298
  C:50CEH         LINE#         1299
  C:50D1H         LINE#         1300
  C:50D4H         LINE#         1301
  C:50D4H         LINE#         1303
  C:50D7H         LINE#         1304
  C:50DAH         LINE#         1305
  C:50DAH         LINE#         1307
  C:50DDH         LINE#         1308
  C:50E0H         LINE#         1309
  C:50E0H         LINE#         1312
  C:50E0H         LINE#         1313
  C:50E0H         LINE#         1314
  C:50E3H         LINE#         1315
  C:50E6H         LINE#         1318
  C:50E6H         LINE#         1319
  C:5104H         LINE#         1320
  C:5107H         LINE#         1321
  C:5107H         LINE#         1322
  C:5107H         LINE#         1323
  C:5107H         LINE#         1324
  -------         ENDPROC       MENU
  -------         ENDMOD        PROG

  -------         MODULE        PTO_PARALELO
  C:0000H         SYMBOL        _ICE_DUMMY_
  D:0080H         PUBLIC        P0
  D:00A0H         PUBLIC        P2
  D:00B0H         PUBLIC        P3
  B:0080H.2       PUBLIC        led_err_imp
  C:6B94H         PUBLIC        load_and_send_id_cod
  C:82F6H         PUBLIC        _recibe_port
  B:00B0H.2       PUBLIC        ready
  B:0080H.6       PUBLIC        rx_in_data
  C:9BB4H         PUBLIC        Pulso_Bus
  C:88AFH         PUBLIC        _send_portERR
  B:00B0H.3       PUBLIC        busy
  C:9910H         PUBLIC        load_and_send_info_reloj
  C:7C6AH         PUBLIC        _send_port
  B:00B0H.4       PUBLIC        port_clk
  C:46EAH         PUBLIC        _Trama_pto_Paralelo_new
  C:6CA4H         PUBLIC        _Trama_pto_Paralelo_P
  C:9C25H         PUBLIC        cond_ini_pto
  -------         PROC          _RECIBE_PORT
  X:0001H         SYMBOL        buffer_port
  -------         DO            
  D:0006H         SYMBOL        count
BL51 BANKED LINKER/LOCATER V6.22.2.0                                                  08/31/2020  09:26:19  PAGE 74


  X:0004H         SYMBOL        time_out
  X:0005H         SYMBOL        num_data
  X:0006H         SYMBOL        T_ANCHO
  X:0008H         SYMBOL        data_temp
  -------         ENDDO         
  C:82F6H         LINE#         46
  C:8301H         LINE#         47
  C:8301H         LINE#         51
  C:830AH         LINE#         52
  C:830DH         LINE#         55
  C:8310H         LINE#         56
  C:8310H         LINE#         58
  C:8313H         LINE#         59
  C:8318H         LINE#         60
  C:831AH         LINE#         61
  C:831EH         LINE#         62
  C:8320H         LINE#         65
  C:8325H         LINE#         66
  C:832EH         LINE#         67
  C:832EH         LINE#         68
  C:8331H         LINE#         69
  C:8331H         LINE#         71
  C:8336H         LINE#         72
  C:833AH         LINE#         73
  C:833AH         LINE#         74
  C:833CH         LINE#         75
  C:833EH         LINE#         76
  C:833EH         LINE#         77
  C:833EH         LINE#         79
  C:833EH         LINE#         80
  C:834BH         LINE#         81
  C:834BH         LINE#         83
  C:834EH         LINE#         84
  C:834EH         LINE#         86
  C:8354H         LINE#         88
  C:8356H         LINE#         89
  C:836AH         LINE#         90
  C:8374H         LINE#         91
  C:837AH         LINE#         92
  C:8380H         LINE#         93
  C:8382H         LINE#         94
  C:8382H         LINE#         95
  C:8382H         LINE#         96
  C:8382H         LINE#         97
  C:8382H         LINE#         99
  C:8385H         LINE#         100
  C:8387H         LINE#         101
  C:8389H         LINE#         102
  C:8389H         LINE#         103
  C:838CH         LINE#         105
  C:8391H         LINE#         106
  -------         ENDPROC       _RECIBE_PORT
  -------         PROC          _SEND_PORT
  X:0034H         SYMBOL        buffer_port
  X:0037H         SYMBOL        length_char
  -------         DO            
  X:0038H         SYMBOL        cont
BL51 BANKED LINKER/LOCATER V6.22.2.0                                                  08/31/2020  09:26:19  PAGE 75


  X:003CH         SYMBOL        timeOut
  X:003DH         SYMBOL        length
  -------         ENDDO         
  C:7C6AH         LINE#         113
  C:7C78H         LINE#         114
  C:7C78H         LINE#         119
  C:7C7CH         LINE#         121
  C:7C7EH         LINE#         122
  C:7C80H         LINE#         123
  C:7C82H         LINE#         124
  C:7C87H         LINE#         125
  C:7C89H         LINE#         126
  C:7C93H         LINE#         128
  C:7C9CH         LINE#         129
  C:7C9CH         LINE#         130
  C:7C9EH         LINE#         131
  C:7CA0H         LINE#         132
  C:7CC4H         LINE#         133
  C:7CD8H         LINE#         134
  C:7CD8H         LINE#         135
  C:7CDBH         LINE#         136
  C:7CDDH         LINE#         137
  C:7CDDH         LINE#         138
  C:7CDFH         LINE#         139
  C:7CE8H         LINE#         140
  C:7CE8H         LINE#         144
  C:7CE8H         LINE#         146
  C:7CF8H         LINE#         147
  C:7CFBH         LINE#         148
  C:7D05H         LINE#         150
  C:7D0BH         LINE#         151
  C:7D0EH         LINE#         153
  C:7D0EH         LINE#         154
  C:7D11H         LINE#         155
  C:7D13H         LINE#         156
  C:7D15H         LINE#         157
  C:7D17H         LINE#         158
  -------         ENDPROC       _SEND_PORT
  -------         PROC          _TRAMA_PTO_PARALELO_P
  D:0001H         SYMBOL        buffer_S1_B0
  X:0011H         SYMBOL        buffer_S1_B2
  X:0014H         SYMBOL        cmd
  -------         DO            
  X:01BEH         SYMBOL        Buffer_port
  X:0015H         SYMBOL        j
  -------         ENDDO         
  C:6CA4H         LINE#         226
  C:6CA4H         LINE#         227
  C:6CA4H         LINE#         230
  C:6CAAH         LINE#         231
  C:6CAFH         LINE#         232
  C:6CB7H         LINE#         233
  C:6CBBH         LINE#         235
  C:6CBBH         LINE#         236
  C:6CD2H         LINE#         237
  C:6CD9H         LINE#         238
  C:6CDEH         LINE#         239
BL51 BANKED LINKER/LOCATER V6.22.2.0                                                  08/31/2020  09:26:19  PAGE 76


  C:6CE8H         LINE#         240
  C:6CFBH         LINE#         242
  C:6CFBH         LINE#         243
  C:6D0FH         LINE#         244
  C:6D2BH         LINE#         245
  C:6D2BH         LINE#         258
  C:6D3FH         LINE#         261
  C:6D55H         LINE#         262
  C:6D55H         LINE#         263
  C:6D66H         LINE#         264
  C:6D68H         LINE#         266
  C:6D68H         LINE#         267
  C:6D79H         LINE#         268
  C:6D79H         LINE#         271
  C:6D7BH         LINE#         273
  C:6D89H         LINE#         274
  C:6D8CH         LINE#         276
  C:6DA0H         LINE#         277
  -------         ENDPROC       _TRAMA_PTO_PARALELO_P
  -------         PROC          _TRAMA_PTO_PARALELO_NEW
  D:0001H         SYMBOL        buffer_S1_B0
  X:0011H         SYMBOL        buffer_S1_B2
  X:0014H         SYMBOL        cmd
  -------         DO            
  X:0015H         SYMBOL        Buffer_port
  X:0033H         SYMBOL        j
  -------         ENDDO         
  C:46EAH         LINE#         351
  C:46EAH         LINE#         352
  C:46EAH         LINE#         354
  C:46F0H         LINE#         356
  C:46F4H         LINE#         357
  C:46FCH         LINE#         360
  C:46FCH         LINE#         361
  C:4713H         LINE#         362
  C:471AH         LINE#         363
  C:471FH         LINE#         365
  C:4735H         LINE#         367
  C:4735H         LINE#         368
  C:4746H         LINE#         369
  C:4762H         LINE#         370
  C:4764H         LINE#         372
  C:4764H         LINE#         373
  C:4775H         LINE#         374
  C:4789H         LINE#         375
  C:4789H         LINE#         377
  C:47A3H         LINE#         378
  C:47A3H         LINE#         379
  C:47A6H         LINE#         380
  C:47A8H         LINE#         382
  C:47A8H         LINE#         383
  C:47ABH         LINE#         384
  C:47ABH         LINE#         386
  C:47BFH         LINE#         387
  C:47D8H         LINE#         388
  C:47F4H         LINE#         389
  C:4810H         LINE#         390
BL51 BANKED LINKER/LOCATER V6.22.2.0                                                  08/31/2020  09:26:19  PAGE 77


  C:482CH         LINE#         391
  C:4848H         LINE#         392
  C:485CH         LINE#         394
  C:486CH         LINE#         396
  C:4890H         LINE#         397
  C:48B4H         LINE#         398
  C:48D8H         LINE#         399
  C:48FCH         LINE#         400
  C:4920H         LINE#         404
  C:4934H         LINE#         407
  C:494AH         LINE#         408
  C:494AH         LINE#         409
  C:495BH         LINE#         410
  C:495DH         LINE#         412
  C:495DH         LINE#         413
  C:496EH         LINE#         414
  C:496EH         LINE#         415
  C:4982H         LINE#         418
  C:4984H         LINE#         419
  C:4987H         LINE#         420
  C:4995H         LINE#         422
  C:4998H         LINE#         423
  C:49A1H         LINE#         424
  C:49B4H         LINE#         425
  -------         ENDPROC       _TRAMA_PTO_PARALELO_NEW
  -------         PROC          PULSO_BUS
  C:9BB4H         LINE#         433
  C:9BB4H         LINE#         434
  C:9BB4H         LINE#         435
  C:9BB6H         LINE#         436
  C:9BBDH         LINE#         437
  C:9BBFH         LINE#         438
  -------         ENDPROC       PULSO_BUS
  -------         PROC          _SEND_PORTERR
  X:000EH         SYMBOL        cod_err
  -------         DO            
  X:000FH         SYMBOL        timeOut
  X:0010H         SYMBOL        cont
  -------         ENDDO         
  C:88AFH         LINE#         443
  C:88B5H         LINE#         444
  C:88B5H         LINE#         448
  C:88B7H         LINE#         449
  C:88B9H         LINE#         450
  C:88BCH         LINE#         451
  C:88C4H         LINE#         453
  C:88C6H         LINE#         454
  C:88C8H         LINE#         455
  C:88D1H         LINE#         456
  C:88D1H         LINE#         457
  C:88F3H         LINE#         458
  C:8907H         LINE#         459
  C:8907H         LINE#         460
  C:890CH         LINE#         461
  C:890CH         LINE#         462
  C:890EH         LINE#         463
  C:8917H         LINE#         464
BL51 BANKED LINKER/LOCATER V6.22.2.0                                                  08/31/2020  09:26:19  PAGE 78


  C:8917H         LINE#         465
  C:891DH         LINE#         466
  C:8920H         LINE#         467
  C:8920H         LINE#         468
  C:8922H         LINE#         469
  C:8924H         LINE#         470
  C:8926H         LINE#         472
  C:8929H         LINE#         474
  C:8930H         LINE#         475
  -------         ENDPROC       _SEND_PORTERR
  -------         PROC          COND_INI_PTO
  C:9C25H         LINE#         481
  C:9C25H         LINE#         482
  C:9C25H         LINE#         484
  C:9C27H         LINE#         485
  C:9C29H         LINE#         486
  C:9C2BH         LINE#         487
  C:9C2EH         LINE#         488
  -------         ENDPROC       COND_INI_PTO
  -------         PROC          LOAD_AND_SEND_INFO_RELOJ
  -------         DO            
  X:0002H         SYMBOL        buffer_info
  -------         ENDDO         
  C:9910H         LINE#         493
  C:9910H         LINE#         494
  C:9910H         LINE#         497
  C:9916H         LINE#         499
  C:991AH         LINE#         501
  C:9923H         LINE#         502
  C:992DH         LINE#         503
  C:9931H         LINE#         507
  -------         ENDPROC       LOAD_AND_SEND_INFO_RELOJ
  -------         PROC          LOAD_AND_SEND_ID_COD
  -------         DO            
  X:0002H         SYMBOL        buffer_info
  X:000DH         SYMBOL        buf
  X:0011H         SYMBOL        i
  X:0012H         SYMBOL        k
  -------         ENDDO         
  C:6B94H         LINE#         514
  C:6B94H         LINE#         515
  C:6B94H         LINE#         519
  C:6B99H         LINE#         521
  C:6B9FH         LINE#         522
  C:6BA3H         LINE#         523
  C:6BC9H         LINE#         524
  C:6BCFH         LINE#         525
  C:6BCFH         LINE#         526
  C:6BE0H         LINE#         527
  C:6BE0H         LINE#         528
  C:6BEFH         LINE#         529
  C:6BF5H         LINE#         530
  C:6BF7H         LINE#         531
  C:6C0FH         LINE#         533
  C:6C17H         LINE#         536
  C:6C3DH         LINE#         538
  C:6C42H         LINE#         539
BL51 BANKED LINKER/LOCATER V6.22.2.0                                                  08/31/2020  09:26:19  PAGE 79


  C:6C42H         LINE#         540
  C:6C53H         LINE#         541
  C:6C53H         LINE#         542
  C:6C62H         LINE#         543
  C:6C68H         LINE#         544
  C:6C82H         LINE#         545
  C:6C8AH         LINE#         548
  C:6C9BH         LINE#         549
  -------         ENDPROC       LOAD_AND_SEND_ID_COD
  -------         ENDMOD        PTO_PARALELO

  -------         MODULE        TIBBO
  C:0000H         SYMBOL        _ICE_DUMMY_
  C:9567H         PUBLIC        _Debug_HexDec
  C:95F7H         PUBLIC        _Debug_txt_Tibbo
  D:0080H         PUBLIC        P0
  D:0090H         PUBLIC        P1
  C:806FH         PUBLIC        _Debug_Fecha_actual
  B:0090H.0       PUBLIC        txd2
  B:00A8H.7       PUBLIC        EA
  C:93BCH         PUBLIC        _tx_aux
  B:0080H.0       PUBLIC        rx_ip
  C:9C38H         PUBLIC        Debug_Dividir_texto
  C:9C82H         PUBLIC        cond_ini_tibbo
  C:9B53H         PUBLIC        time_mbit
  C:8937H         PUBLIC        rx_Data
  C:9ACDH         PUBLIC        time_bit
  C:944CH         PUBLIC        _Debug_pto_paralelo
  C:8F35H         PUBLIC        _DebugBufferMF
  C:9494H         PUBLIC        _Debug_chr_Tibbo
  C:9AC7H         SYMBOL        L?0066
  -------         PROC          L?0065
  -------         ENDPROC       L?0065
  C:9AC7H         SYMBOL        L?0066
  -------         PROC          TIME_BIT
  -------         DO            
  D:0007H         SYMBOL        j
  -------         ENDDO         
  C:9ACDH         LINE#         18
  C:9ACDH         LINE#         19
  C:9ACDH         LINE#         22
  C:9AD9H         LINE#         23
  C:9AD9H         LINE#         24
  C:9ADAH         LINE#         25
  C:9ADBH         LINE#         26
  C:9ADCH         LINE#         27
  C:9ADDH         LINE#         28
  C:9ADEH         LINE#         29
  C:9ADFH         LINE#         30
  C:9AE0H         LINE#         31
  C:9AE1H         LINE#         32
  C:9AE2H         LINE#         37
  C:9AE5H         LINE#         38
  -------         ENDPROC       TIME_BIT
  -------         PROC          TIME_MBIT
  -------         DO            
  D:0007H         SYMBOL        j
BL51 BANKED LINKER/LOCATER V6.22.2.0                                                  08/31/2020  09:26:19  PAGE 80


  -------         ENDDO         
  C:9B53H         LINE#         41
  C:9B53H         LINE#         42
  C:9B53H         LINE#         44
  C:9B5FH         LINE#         45
  C:9B5FH         LINE#         46
  C:9B60H         LINE#         47
  C:9B61H         LINE#         48
  C:9B62H         LINE#         49
  C:9B63H         LINE#         50
  C:9B64H         LINE#         51
  C:9B65H         LINE#         52
  C:9B66H         LINE#         53
  C:9B69H         LINE#         55
  -------         ENDPROC       TIME_MBIT
  -------         PROC          L?0067
  -------         ENDPROC       L?0067
  -------         PROC          _TX_AUX
  D:0006H         SYMBOL        caracter
  -------         DO            
  D:0004H         SYMBOL        j
  D:0005H         SYMBOL        temporal
  D:0006H         SYMBOL        bitTX
  -------         ENDDO         
  C:93BCH         LINE#         60
  C:93BEH         LINE#         61
  C:93BEH         LINE#         64
  C:93C0H         LINE#         65
  C:93C2H         LINE#         66
  C:93C5H         LINE#         67
  C:93C6H         LINE#         68
  C:93C7H         LINE#         69
  C:93C9H         LINE#         70
  C:93CDH         LINE#         71
  C:93CFH         LINE#         72
  C:93CFH         LINE#         73
  C:93D1H         LINE#         74
  C:93D3H         LINE#         76
  C:93D3H         LINE#         77
  C:93D5H         LINE#         78
  C:93D5H         LINE#         79
  C:93D8H         LINE#         80
  C:93E4H         LINE#         81
  C:93E4H         LINE#         82
  C:93E8H         LINE#         83
  C:93EBH         LINE#         84
  C:93EDH         LINE#         85
  C:93EDH         LINE#         86
  C:93EFH         LINE#         87
  C:93F1H         LINE#         89
  C:93F1H         LINE#         90
  C:93F3H         LINE#         91
  C:93F3H         LINE#         92
  C:93F6H         LINE#         93
  C:93F9H         LINE#         94
  C:93FBH         LINE#         95
  C:93FEH         LINE#         96
BL51 BANKED LINKER/LOCATER V6.22.2.0                                                  08/31/2020  09:26:19  PAGE 81


  C:9401H         LINE#         98
  C:9403H         LINE#         99
  -------         ENDPROC       _TX_AUX
  -------         PROC          _DEBUG_HEXDEC
  D:0007H         SYMBOL        xfc
  -------         DO            
  X:000EH         SYMBOL        valor
  D:0006H         SYMBOL        centena
  D:0003H         SYMBOL        decena
  D:0002H         SYMBOL        unidad
  -------         ENDDO         
  C:9567H         LINE#         102
  C:9567H         LINE#         103
  C:9567H         LINE#         106
  C:956EH         LINE#         108
  C:956FH         LINE#         109
  C:9570H         LINE#         110
  C:9571H         LINE#         112
  C:9579H         LINE#         113
  C:9579H         LINE#         114
  C:9583H         LINE#         115
  C:9583H         LINE#         116
  C:9587H         LINE#         117
  C:9588H         LINE#         118
  C:958AH         LINE#         119
  C:9594H         LINE#         120
  C:9594H         LINE#         121
  C:9598H         LINE#         122
  C:9599H         LINE#         123
  C:959BH         LINE#         124
  C:959DH         LINE#         125
  C:95A1H         LINE#         126
  C:95A5H         LINE#         127
  C:95ACH         LINE#         129
  C:95ACH         LINE#         130
  -------         ENDPROC       _DEBUG_HEXDEC
  -------         PROC          _DEBUG_CHR_TIBBO
  D:0003H         SYMBOL        Dat
  -------         DO            
  D:0007H         SYMBOL        temp
  -------         ENDDO         
  C:9494H         LINE#         135
  C:9496H         LINE#         136
  C:9496H         LINE#         139
  C:949EH         LINE#         140
  C:949EH         LINE#         141
  C:94A5H         LINE#         142
  C:94B8H         LINE#         144
  C:94BBH         LINE#         146
  C:94BFH         LINE#         147
  C:94D2H         LINE#         148
  C:94D5H         LINE#         149
  C:94DAH         LINE#         151
  C:94DAH         LINE#         152
  -------         ENDPROC       _DEBUG_CHR_TIBBO
  -------         PROC          _DEBUGBUFFERMF
  X:0034H         SYMBOL        str
BL51 BANKED LINKER/LOCATER V6.22.2.0                                                  08/31/2020  09:26:19  PAGE 82


  X:0037H         SYMBOL        num_char
  X:0038H         SYMBOL        io
  -------         DO            
  X:0039H         SYMBOL        j
  -------         ENDDO         
  C:8F35H         LINE#         159
  C:8F43H         LINE#         160
  C:8F43H         LINE#         164
  C:8F4BH         LINE#         165
  C:8F4BH         LINE#         167
  C:8F5AH         LINE#         168
  C:8F5AH         LINE#         169
  C:8F5EH         LINE#         170
  C:8F67H         LINE#         171
  C:8F79H         LINE#         172
  C:8F79H         LINE#         173
  C:8F8BH         LINE#         174
  C:8F95H         LINE#         175
  C:8F9DH         LINE#         177
  C:8FA2H         LINE#         178
  C:8FA7H         LINE#         180
  C:8FA7H         LINE#         182
  -------         ENDPROC       _DEBUGBUFFERMF
  -------         PROC          L?0068
  -------         ENDPROC       L?0068
  -------         PROC          _DEBUG_TXT_TIBBO
  X:003AH         SYMBOL        str
  -------         DO            
  X:003DH         SYMBOL        i
  -------         ENDDO         
  C:95F7H         LINE#         187
  C:9602H         LINE#         188
  C:9602H         LINE#         190
  C:9605H         LINE#         193
  C:960DH         LINE#         194
  C:960DH         LINE#         195
  C:9629H         LINE#         196
  C:9629H         LINE#         197
  C:962CH         LINE#         198
  C:9634H         LINE#         200
  C:9634H         LINE#         201
  -------         ENDPROC       _DEBUG_TXT_TIBBO
  -------         PROC          DEBUG_DIVIDIR_TEXTO
  C:9C38H         LINE#         203
  C:9C38H         LINE#         204
  C:9C38H         LINE#         205
  -------         ENDPROC       DEBUG_DIVIDIR_TEXTO
  -------         PROC          RX_DATA
  -------         DO            
  D:0006H         SYMBOL        temporal
  -------         ENDDO         
  C:8937H         LINE#         211
  C:8937H         LINE#         212
  C:8937H         LINE#         215
  C:8939H         LINE#         216
  C:893CH         LINE#         218
  C:893FH         LINE#         220
BL51 BANKED LINKER/LOCATER V6.22.2.0                                                  08/31/2020  09:26:19  PAGE 83


  C:894BH         LINE#         221
  C:894BH         LINE#         223
  C:894EH         LINE#         225
  C:895AH         LINE#         226
  C:895AH         LINE#         228
  C:895DH         LINE#         230
  C:8969H         LINE#         231
  C:8969H         LINE#         233
  C:896CH         LINE#         235
  C:8978H         LINE#         236
  C:8978H         LINE#         238
  C:897BH         LINE#         240
  C:8987H         LINE#         241
  C:8987H         LINE#         243
  C:898AH         LINE#         245
  C:8996H         LINE#         246
  C:8996H         LINE#         248
  C:8999H         LINE#         250
  C:89A5H         LINE#         251
  C:89A5H         LINE#         253
  C:89A8H         LINE#         254
  C:89B6H         LINE#         256
  C:89B9H         LINE#         257
  C:89BCH         LINE#         258
  C:89BCH         LINE#         259
  C:89BCH         LINE#         261
  C:89BEH         LINE#         263
  -------         ENDPROC       RX_DATA
  -------         PROC          _DEBUG_FECHA_ACTUAL
  X:0018H         SYMBOL        buffer
  C:806FH         LINE#         264
  C:807AH         LINE#         265
  C:807AH         LINE#         266
  C:8083H         LINE#         267
  C:8098H         LINE#         268
  C:809DH         LINE#         269
  C:80B5H         LINE#         270
  C:80BAH         LINE#         271
  C:80D2H         LINE#         272
  C:80D7H         LINE#         273
  C:80EFH         LINE#         274
  C:80F4H         LINE#         275
  C:810CH         LINE#         276
  -------         ENDPROC       _DEBUG_FECHA_ACTUAL
  -------         PROC          COND_INI_TIBBO
  C:9C82H         LINE#         281
  C:9C82H         LINE#         282
  C:9C82H         LINE#         284
  C:9C84H         LINE#         285
  C:9C86H         LINE#         286
  -------         ENDPROC       COND_INI_TIBBO
  -------         PROC          _DEBUG_PTO_PARALELO
  X:0001H         SYMBOL        buffer
  X:0004H         SYMBOL        Length_trama
  C:944CH         LINE#         287
  C:945AH         LINE#         288
  C:945AH         LINE#         290
BL51 BANKED LINKER/LOCATER V6.22.2.0                                                  08/31/2020  09:26:19  PAGE 84


  C:9463H         LINE#         291
  C:947AH         LINE#         292
  C:947DH         LINE#         293
  C:9486H         LINE#         294
  C:948EH         LINE#         295
  C:9491H         LINE#         296
  -------         ENDPROC       _DEBUG_PTO_PARALELO
  -------         ENDMOD        TIBBO

  -------         MODULE        UART
  C:0000H         SYMBOL        _ICE_DUMMY_
  C:99DDH         PUBLIC        com_getchar
  C:9BC6H         PUBLIC        com_rbuflen
  C:9BD8H         PUBLIC        com_tbuflen
  B:00A8H.4       PUBLIC        ES
  B:0098H.0       PUBLIC        RI
  C:9830H         PUBLIC        _com_putchar
  B:0098H.1       PUBLIC        TI
  B:0021H.3       PUBLIC        aSk
  B:00B8H.4       PUBLIC        PS
  D:000DH         SYMBOL        r_in
  D:000EH         SYMBOL        r_out
  D:000FH         SYMBOL        t_in
  D:0010H         SYMBOL        t_out
  D:0099H         PUBLIC        SBUF
  D:0087H         PUBLIC        PCON
  D:0089H         PUBLIC        TMOD
  B:0021H.4       SYMBOL        ti_restart
  B:00A8H.3       PUBLIC        ET1
  D:008DH         PUBLIC        TH1
  B:0098H.7       PUBLIC        SM0
  B:0098H.6       PUBLIC        SM1
  D:008BH         PUBLIC        TL1
  B:0098H.5       PUBLIC        SM2
  B:0088H.6       PUBLIC        TR1
  C:993CH         PUBLIC        com_initialize
  B:0098H.4       PUBLIC        REN
  C:998EH         PUBLIC        com_baudrate
  C:56F5H         SYMBOL        com_isr
  X:01F7H         PUBLIC        error_rx
  -------         PROC          COM_ISR
  -------         DO            
  X:01F5H         SYMBOL        cDatoRx
  D:0006H         SYMBOL        k
  D:0007H         SYMBOL        bcc
  X:01F6H         SYMBOL        num_datos
  -------         ENDDO         
  C:56F5H         LINE#         95
  C:570AH         LINE#         108
  C:5710H         LINE#         109
  C:5710H         LINE#         111
  C:5712H         LINE#         112
  C:5718H         LINE#         113
  C:5728H         LINE#         114
  C:5728H         LINE#         115
  C:5733H         LINE#         116
  C:5735H         LINE#         118
BL51 BANKED LINKER/LOCATER V6.22.2.0                                                  08/31/2020  09:26:19  PAGE 85


  C:5735H         LINE#         119
  C:5745H         LINE#         120
  C:5745H         LINE#         121
  C:574AH         LINE#         122
  C:574AH         LINE#         123
  C:5761H         LINE#         124
  C:5761H         LINE#         128
  C:5761H         LINE#         131
  C:5770H         LINE#         132
  C:5770H         LINE#         133
  C:5772H         LINE#         134
  C:577AH         LINE#         135
  C:577FH         LINE#         137
  C:577FH         LINE#         138
  C:5782H         LINE#         142
  C:5782H         LINE#         143
  C:5782H         LINE#         144
  C:579AH         LINE#         145
  C:57A9H         LINE#         146
  C:57A9H         LINE#         147
  C:57A9H         LINE#         148
  C:57ABH         LINE#         150
  C:57ABH         LINE#         151
  C:57ADH         LINE#         152
  C:57ADH         LINE#         153
  C:57ADH         LINE#         154
  C:57B0H         LINE#         158
  C:57B0H         LINE#         160
  C:57B9H         LINE#         161
  C:57B9H         LINE#         163
  C:57BFH         LINE#         164
  C:57D2H         LINE#         165
  C:57D2H         LINE#         166
  C:57D5H         LINE#         168
  C:57D5H         LINE#         169
  C:57EAH         LINE#         170
  C:57F0H         LINE#         171
  C:57F0H         LINE#         173
  C:57F3H         LINE#         177
  C:57F3H         LINE#         179
  C:580BH         LINE#         180
  C:5811H         LINE#         181
  C:5814H         LINE#         182
  C:5814H         LINE#         184
  C:582CH         LINE#         185
  C:582CH         LINE#         186
  C:582DH         LINE#         187
  C:583AH         LINE#         188
  C:583AH         LINE#         189
  C:5847H         LINE#         190
  C:584AH         LINE#         191
  C:5858H         LINE#         192
  C:5858H         LINE#         193
  C:585AH         LINE#         194
  C:585FH         LINE#         195
  C:5861H         LINE#         196
  C:5865H         LINE#         198
BL51 BANKED LINKER/LOCATER V6.22.2.0                                                  08/31/2020  09:26:19  PAGE 86


  C:5867H         LINE#         200
  C:5867H         LINE#         201
  C:5867H         LINE#         202
  C:5867H         LINE#         203
  C:5869H         LINE#         205
  C:5869H         LINE#         206
  C:5869H         LINE#         207
  C:5869H         LINE#         209
  C:586BH         LINE#         211
  C:586BH         LINE#         212
  C:5871H         LINE#         213
  C:5871H         LINE#         215
  C:5873H         LINE#         220
  C:5873H         LINE#         221
  C:5878H         LINE#         222
  C:5878H         LINE#         223
  C:5878H         LINE#         224
  C:5878H         LINE#         229
  C:587BH         LINE#         230
  C:587BH         LINE#         231
  C:587DH         LINE#         233
  C:5883H         LINE#         234
  C:5883H         LINE#         235
  C:588DH         LINE#         236
  C:588FH         LINE#         237
  C:5891H         LINE#         238
  C:5893H         LINE#         240
  C:5893H         LINE#         241
  C:5895H         LINE#         242
  C:5895H         LINE#         243
  C:5895H         LINE#         245
  -------         ENDPROC       COM_ISR
  -------         PROC          COM_INITIALIZE
  C:993CH         LINE#         261
  C:9943H         LINE#         262
  C:9943H         LINE#         266
  C:9946H         LINE#         271
  C:9949H         LINE#         272
  C:994BH         LINE#         274
  C:994DH         LINE#         275
  C:994FH         LINE#         280
  C:9953H         LINE#         281
  C:9955H         LINE#         282
  C:9957H         LINE#         284
  C:9959H         LINE#         285
  C:995BH         LINE#         286
  C:995DH         LINE#         288
  C:995FH         LINE#         289
  C:9961H         LINE#         290
  -------         ENDPROC       COM_INITIALIZE
  -------         PROC          COM_BAUDRATE
  C:998EH         LINE#         296
  C:9995H         LINE#         298
  C:9995H         LINE#         302
  C:9997H         LINE#         303
  C:999AH         LINE#         304
  C:999CH         LINE#         309
BL51 BANKED LINKER/LOCATER V6.22.2.0                                                  08/31/2020  09:26:19  PAGE 87


  C:999EH         LINE#         310
  C:99A0H         LINE#         312
  C:99A3H         LINE#         314
  C:99A6H         LINE#         315
  C:99A9H         LINE#         317
  C:99ACH         LINE#         318
  C:99AFH         LINE#         319
  C:99B1H         LINE#         320
  -------         ENDPROC       COM_BAUDRATE
  -------         PROC          _COM_PUTCHAR
  X:00BEH         SYMBOL        c
  C:9830H         LINE#         326
  C:983CH         LINE#         328
  C:983CH         LINE#         332
  C:9849H         LINE#         333
  C:984DH         LINE#         339
  C:985BH         LINE#         340
  C:985DH         LINE#         342
  C:9860H         LINE#         343
  C:9860H         LINE#         344
  C:9862H         LINE#         345
  C:9864H         LINE#         346
  C:9864H         LINE#         348
  C:9866H         LINE#         349
  -------         ENDPROC       _COM_PUTCHAR
  -------         PROC          COM_GETCHAR
  C:99DDH         LINE#         355
  C:99E4H         LINE#         356
  C:99E4H         LINE#         357
  C:99EAH         LINE#         358
  C:99F0H         LINE#         360
  C:99FEH         LINE#         361
  -------         ENDPROC       COM_GETCHAR
  -------         PROC          COM_RBUFLEN
  C:9BC6H         LINE#         367
  C:9BCDH         LINE#         368
  C:9BCDH         LINE#         369
  C:9BD3H         LINE#         370
  -------         ENDPROC       COM_RBUFLEN
  -------         PROC          COM_TBUFLEN
  C:9BD8H         LINE#         376
  C:9BDFH         LINE#         377
  C:9BDFH         LINE#         378
  C:9BE5H         LINE#         379
  -------         ENDPROC       COM_TBUFLEN
  -------         ENDMOD        UART

  -------         MODULE        VERIFICADOR
  C:0000H         SYMBOL        _ICE_DUMMY_
  D:0080H         PUBLIC        P0
  D:0090H         PUBLIC        P1
  C:6246H         PUBLIC        Secuencia_inicio_expedidor
  B:0080H.3       PUBLIC        Atascado
  C:728FH         PUBLIC        _Bloque_Horario
  B:0090H.7       PUBLIC        lock
  C:7D1EH         PUBLIC        error_rx_pto
  C:9A03H         PUBLIC        Trama_Validacion_P_N
BL51 BANKED LINKER/LOCATER V6.22.2.0                                                  08/31/2020  09:26:19  PAGE 88


  C:0F28H         PUBLIC        SecuenciaExpedidor
  C:7388H         PUBLIC        _Horarios
  C:7DCDH         PUBLIC        _Hora_Maxima
  X:01BDH         SYMBOL        Estado
  C:8FA8H         PUBLIC        _En_Horario
  -------         PROC          TRAMA_VALIDACION_P_N
  -------         DO            
  D:0007H         SYMBOL        Trama_Validacion_P_N
  -------         ENDDO         
  C:9A03H         LINE#         328
  C:9A03H         LINE#         329
  C:9A03H         LINE#         330
  C:9A05H         LINE#         332
  C:9A10H         LINE#         333
  C:9A10H         LINE#         334
  C:9A13H         LINE#         335
  C:9A13H         LINE#         336
  C:9A15H         LINE#         339
  C:9A1DH         LINE#         340
  C:9A1DH         LINE#         342
  C:9A1FH         LINE#         344
  C:9A20H         LINE#         345
  C:9A21H         LINE#         346
  C:9A21H         LINE#         348
  C:9A21H         LINE#         350
  C:9A21H         LINE#         352
  C:9A21H         LINE#         354
  C:9A23H         LINE#         356
  C:9A23H         LINE#         357
  C:9A24H         LINE#         359
  C:9A24H         LINE#         361
  C:9A26H         LINE#         363
  C:9A26H         LINE#         365
  C:9A26H         LINE#         367
  C:9A26H         LINE#         368
  -------         ENDPROC       TRAMA_VALIDACION_P_N
  -------         PROC          ERROR_RX_PTO
  -------         DO            
  X:0186H         SYMBOL        cont_error_rx
  X:000EH         SYMBOL        error_rx_pto
  -------         ENDDO         
  C:7D1EH         LINE#         385
  C:7D1EH         LINE#         386
  C:7D1EH         LINE#         388
  C:7D23H         LINE#         392
  C:7D2CH         LINE#         393
  C:7D34H         LINE#         394
  C:7D3DH         LINE#         395
  C:7D45H         LINE#         396
  C:7D4EH         LINE#         397
  C:7D51H         LINE#         399
  C:7D51H         LINE#         400
  C:7D57H         LINE#         401
  C:7D61H         LINE#         402
  C:7D61H         LINE#         403
  C:7D63H         LINE#         404
  C:7D6AH         LINE#         405
BL51 BANKED LINKER/LOCATER V6.22.2.0                                                  08/31/2020  09:26:19  PAGE 89


  C:7D6FH         LINE#         406
  C:7D75H         LINE#         407
  C:7D79H         LINE#         408
  C:7D7BH         LINE#         409
  C:7D81H         LINE#         410
  C:7D81H         LINE#         411
  C:7D83H         LINE#         413
  C:7D83H         LINE#         414
  C:7D89H         LINE#         415
  C:7D89H         LINE#         416
  C:7D89H         LINE#         417
  C:7D8BH         LINE#         419
  C:7D8BH         LINE#         420
  C:7D99H         LINE#         421
  C:7DACH         LINE#         422
  C:7DACH         LINE#         423
  C:7DADH         LINE#         424
  C:7DB3H         LINE#         425
  C:7DB8H         LINE#         426
  C:7DBAH         LINE#         427
  C:7DBAH         LINE#         428
  C:7DBCH         LINE#         430
  C:7DBCH         LINE#         431
  C:7DBDH         LINE#         432
  C:7DC1H         LINE#         433
  C:7DC7H         LINE#         434
  C:7DC7H         LINE#         435
  C:7DC7H         LINE#         436
  C:7DCCH         LINE#         437
  -------         ENDPROC       ERROR_RX_PTO
  -------         PROC          SECUENCIA_INICIO_EXPEDIDOR
  -------         DO            
  X:0001H         SYMBOL        temp
  -------         ENDDO         
  C:6246H         LINE#         444
  C:6246H         LINE#         445
  C:6246H         LINE#         449
  C:6266H         LINE#         450
  C:6266H         LINE#         451
  C:6266H         LINE#         453
  C:6268H         LINE#         454
  C:626DH         LINE#         455
  C:6273H         LINE#         458
  C:6275H         LINE#         459
  C:6275H         LINE#         470
  C:6275H         LINE#         472
  C:6283H         LINE#         473
  C:6283H         LINE#         474
  C:628FH         LINE#         475
  C:628FH         LINE#         476
  C:6295H         LINE#         477
  C:6298H         LINE#         478
  C:62A0H         LINE#         479
  C:62A0H         LINE#         480
  C:62A7H         LINE#         481
  C:62BBH         LINE#         482
  C:62BBH         LINE#         483
BL51 BANKED LINKER/LOCATER V6.22.2.0                                                  08/31/2020  09:26:19  PAGE 90


  C:62BDH         LINE#         485
  C:62BDH         LINE#         487
  C:62C4H         LINE#         488
  C:62CAH         LINE#         489
  C:62CAH         LINE#         490
  C:62CDH         LINE#         492
  C:62CDH         LINE#         493
  C:62D6H         LINE#         494
  C:62EAH         LINE#         495
  C:62F0H         LINE#         496
  C:62F0H         LINE#         497
  C:62F3H         LINE#         498
  C:62F3H         LINE#         504
  C:62F3H         LINE#         506
  C:62F6H         LINE#         507
  C:62FCH         LINE#         511
  C:62FEH         LINE#         512
  C:62FEH         LINE#         522
  C:62FEH         LINE#         524
  C:630CH         LINE#         525
  C:630CH         LINE#         526
  C:6318H         LINE#         527
  C:6318H         LINE#         528
  C:631EH         LINE#         529
  C:6320H         LINE#         530
  C:6328H         LINE#         531
  C:6328H         LINE#         532
  C:632FH         LINE#         533
  C:6343H         LINE#         534
  C:6343H         LINE#         535
  C:6345H         LINE#         537
  C:6345H         LINE#         540
  C:634CH         LINE#         541
  C:6352H         LINE#         542
  C:6352H         LINE#         543
  C:6354H         LINE#         545
  C:6354H         LINE#         546
  C:635DH         LINE#         547
  C:6371H         LINE#         548
  C:6376H         LINE#         549
  C:6376H         LINE#         551
  C:6378H         LINE#         552
  C:6378H         LINE#         558
  C:6378H         LINE#         560
  C:637EH         LINE#         561
  C:637EH         LINE#         564
  C:637EH         LINE#         565
  C:6385H         LINE#         566
  C:6385H         LINE#         567
  C:6385H         LINE#         568
  -------         ENDPROC       SECUENCIA_INICIO_EXPEDIDOR
  -------         PROC          _HORARIOS
  X:000EH         SYMBOL        Horario
  -------         DO            
  X:000FH         SYMBOL        Estado_Horario
  X:0010H         SYMBOL        Addr_horarios
  X:001BH         SYMBOL        dia_semana
BL51 BANKED LINKER/LOCATER V6.22.2.0                                                  08/31/2020  09:26:19  PAGE 91


  X:001CH         SYMBOL        EE_dia_semana
  X:001DH         SYMBOL        addr
  -------         ENDDO         
  C:7388H         LINE#         579
  C:738DH         LINE#         580
  C:738DH         LINE#         586
  C:7392H         LINE#         587
  C:7392H         LINE#         589
  C:739EH         LINE#         591
  C:73B7H         LINE#         595
  C:73CAH         LINE#         596
  C:73CAH         LINE#         598
  C:73D4H         LINE#         599
  C:73DDH         LINE#         600
  C:73E5H         LINE#         601
  C:73EEH         LINE#         604
  C:7413H         LINE#         605
  C:741CH         LINE#         606
  C:7424H         LINE#         607
  C:742DH         LINE#         609
  C:7437H         LINE#         610
  C:7437H         LINE#         612
  C:7445H         LINE#         613
  C:7447H         LINE#         615
  C:7447H         LINE#         617
  C:7450H         LINE#         618
  C:7455H         LINE#         619
  C:7455H         LINE#         620
  C:7457H         LINE#         622
  C:7457H         LINE#         624
  C:745CH         LINE#         626
  C:7462H         LINE#         628
  C:7462H         LINE#         630
  C:7464H         LINE#         632
  C:7464H         LINE#         633
  C:746AH         LINE#         635
  C:7473H         LINE#         636
  C:7473H         LINE#         637
  C:7478H         LINE#         638
  -------         ENDPROC       _HORARIOS
  -------         PROC          _HORA_MAXIMA
  X:002BH         SYMBOL        addr
  -------         DO            
  X:002DH         SYMBOL        Hora_High
  X:002EH         SYMBOL        Minuto_High
  X:002FH         SYMBOL        HoraIni
  X:0030H         SYMBOL        MinutoIni
  X:0031H         SYMBOL        Hora_Prog
  -------         ENDDO         
  C:7DCDH         LINE#         639
  C:7DD5H         LINE#         640
  C:7DD5H         LINE#         645
  C:7DEAH         LINE#         646
  C:7E0AH         LINE#         647
  C:7E27H         LINE#         648
  C:7E47H         LINE#         649
  C:7E4FH         LINE#         650
BL51 BANKED LINKER/LOCATER V6.22.2.0                                                  08/31/2020  09:26:19  PAGE 92


  C:7E57H         LINE#         651
  C:7E60H         LINE#         653
  C:7E78H         LINE#         654
  -------         ENDPROC       _HORA_MAXIMA
  -------         PROC          _EN_HORARIO
  X:0026H         SYMBOL        HoraNow
  D:0004H         SYMBOL        Hora_Prog
  X:0028H         SYMBOL        addr
  -------         DO            
  X:002AH         SYMBOL        Estado_Horario
  -------         ENDDO         
  C:8FA8H         LINE#         655
  C:8FB6H         LINE#         656
  C:8FB6H         LINE#         659
  C:8FC3H         LINE#         660
  C:8FC3H         LINE#         663
  C:8FCCH         LINE#         664
  C:8FE1H         LINE#         667
  C:8FF0H         LINE#         668
  C:8FF0H         LINE#         670
  C:8FF7H         LINE#         671
  C:8FFDH         LINE#         672
  C:8FFFH         LINE#         674
  C:8FFFH         LINE#         677
  C:9003H         LINE#         678
  C:9003H         LINE#         679
  C:9003H         LINE#         681
  C:9005H         LINE#         683
  C:9005H         LINE#         686
  C:900EH         LINE#         687
  C:9013H         LINE#         689
  C:9013H         LINE#         690
  C:9018H         LINE#         691
  -------         ENDPROC       _EN_HORARIO
  -------         PROC          _BLOQUE_HORARIO
  X:001FH         SYMBOL        addr
  -------         DO            
  X:0021H         SYMBOL        Estado_Horario
  X:0022H         SYMBOL        HoraNow
  X:0024H         SYMBOL        Hora_Prog
  -------         ENDDO         
  C:728FH         LINE#         693
  C:7297H         LINE#         694
  C:7297H         LINE#         700
  C:72A0H         LINE#         701
  C:72A8H         LINE#         702
  C:72B0H         LINE#         703
  C:72B9H         LINE#         704
  C:72E7H         LINE#         709
  C:72F0H         LINE#         710
  C:7305H         LINE#         711
  C:731DH         LINE#         712
  C:731FH         LINE#         713
  C:731FH         LINE#         716
  C:7337H         LINE#         717
  C:7337H         LINE#         718
  C:7340H         LINE#         719
BL51 BANKED LINKER/LOCATER V6.22.2.0                                                  08/31/2020  09:26:19  PAGE 93


  C:735BH         LINE#         720
  C:7379H         LINE#         721
  C:737BH         LINE#         723
  C:737BH         LINE#         726
  C:7380H         LINE#         727
  C:7380H         LINE#         728
  C:7380H         LINE#         730
  C:7387H         LINE#         731
  -------         ENDPROC       _BLOQUE_HORARIO
  -------         PROC          SECUENCIAEXPEDIDOR
  -------         DO            
  X:0001H         SYMBOL        temp
  X:0002H         SYMBOL        tiempo
  X:0004H         SYMBOL        Estado_Tiempo
  X:0188H         SYMBOL        buffer_S1_B0
  X:0199H         SYMBOL        buffer_S1_B1
  X:01AAH         SYMBOL        buffer_S1_B2
  X:0008H         SYMBOL        clock_temp
  X:01BBH         SYMBOL        Horario
  X:01BCH         SYMBOL        contador
  D:0001H         SYMBOL        atributos
  -------         ENDDO         
  C:0F28H         LINE#         733
  C:0F28H         LINE#         734
  C:0F28H         LINE#         746
  C:0F81H         LINE#         747
  C:0F81H         LINE#         750
  C:0F81H         LINE#         752
  C:0F8CH         LINE#         753
  C:0F8CH         LINE#         755
  C:0F8EH         LINE#         756
  C:0F93H         LINE#         757
  C:0F93H         LINE#         759
  C:0F93H         LINE#         761
  C:0F95H         LINE#         771
  C:0F95H         LINE#         773
  C:0F9FH         LINE#         774
  C:0F9FH         LINE#         775
  C:0FA7H         LINE#         776
  C:0FA7H         LINE#         777
  C:0FACH         LINE#         778
  C:0FADH         LINE#         779
  C:0FB3H         LINE#         780
  C:0FB3H         LINE#         781
  C:0FB9H         LINE#         782
  C:0FB9H         LINE#         783
  C:0FB9H         LINE#         784
  C:0FBCH         LINE#         786
  C:0FBCH         LINE#         789
  C:0FCFH         LINE#         790
  C:0FCFH         LINE#         791
  C:0FD5H         LINE#         792
  C:0FD6H         LINE#         793
  C:0FEEH         LINE#         794
  C:0FEEH         LINE#         795
  C:0FEEH         LINE#         796
  C:0FEEH         LINE#         798
BL51 BANKED LINKER/LOCATER V6.22.2.0                                                  08/31/2020  09:26:19  PAGE 94


  C:0FEEH         LINE#         799
  C:0FF1H         LINE#         801
  C:0FF1H         LINE#         802
  C:0FF7H         LINE#         803
  C:0FF7H         LINE#         804
  C:0FF7H         LINE#         805
  C:0FF7H         LINE#         807
  C:0FFAH         LINE#         813
  C:0FFAH         LINE#         814
  C:1005H         LINE#         815
  C:1005H         LINE#         816
  C:100AH         LINE#         817
  C:100AH         LINE#         818
  C:100AH         LINE#         819
  C:100CH         LINE#         829
  C:100CH         LINE#         831
  C:1016H         LINE#         832
  C:1016H         LINE#         833
  C:101EH         LINE#         834
  C:101EH         LINE#         835
  C:101EH         LINE#         836
  C:1020H         LINE#         837
  C:1026H         LINE#         838
  C:1026H         LINE#         839
  C:102CH         LINE#         840
  C:102CH         LINE#         841
  C:102CH         LINE#         842
  C:102FH         LINE#         844
  C:102FH         LINE#         848
  C:1042H         LINE#         849
  C:1042H         LINE#         850
  C:1048H         LINE#         851
  C:1049H         LINE#         852
  C:1061H         LINE#         853
  C:1061H         LINE#         854
  C:1061H         LINE#         855
  C:1061H         LINE#         857
  C:1061H         LINE#         858
  C:1064H         LINE#         860
  C:1064H         LINE#         861
  C:106DH         LINE#         862
  C:1081H         LINE#         863
  C:1089H         LINE#         864
  C:1089H         LINE#         866
  C:1092H         LINE#         867
  C:1098H         LINE#         868
  C:109EH         LINE#         869
  C:10A4H         LINE#         870
  C:10A4H         LINE#         871
  C:10AAH         LINE#         872
  C:10AAH         LINE#         873
  C:10ADH         LINE#         874
  C:10B6H         LINE#         875
  C:10BBH         LINE#         876
  C:10C0H         LINE#         878
  C:10C0H         LINE#         879
  C:10C0H         LINE#         880
BL51 BANKED LINKER/LOCATER V6.22.2.0                                                  08/31/2020  09:26:19  PAGE 95


  C:10C6H         LINE#         881
  C:10D5H         LINE#         882
  C:10D5H         LINE#         883
  C:10DBH         LINE#         886
  C:10DCH         LINE#         887
  C:10E3H         LINE#         888
  C:10E3H         LINE#         890
  C:10E9H         LINE#         891
  C:10E9H         LINE#         894
  C:10ECH         LINE#         895
  C:10F7H         LINE#         896
  C:10F7H         LINE#         897
  C:1100H         LINE#         900
  C:1108H         LINE#         901
  C:1108H         LINE#         902
  C:110FH         LINE#         903
  C:1112H         LINE#         905
  C:1112H         LINE#         906
  C:1114H         LINE#         908
  C:1114H         LINE#         909
  C:111BH         LINE#         910
  C:1120H         LINE#         911
  C:1122H         LINE#         912
  C:1122H         LINE#         914
  C:1122H         LINE#         916
  C:1122H         LINE#         918
  C:1122H         LINE#         920
  C:1125H         LINE#         933
  C:1125H         LINE#         935
  C:112FH         LINE#         936
  C:112FH         LINE#         937
  C:1137H         LINE#         938
  C:1137H         LINE#         939
  C:113DH         LINE#         940
  C:113EH         LINE#         941
  C:1146H         LINE#         942
  C:1146H         LINE#         944
  C:114DH         LINE#         945
  C:1161H         LINE#         946
  C:1167H         LINE#         948
  C:1168H         LINE#         950
  C:1168H         LINE#         951
  C:116FH         LINE#         952
  C:1174H         LINE#         953
  C:1176H         LINE#         954
  C:1176H         LINE#         956
  C:1176H         LINE#         957
  C:1179H         LINE#         959
  C:1179H         LINE#         960
  C:1181H         LINE#         961
  C:1181H         LINE#         962
  C:1188H         LINE#         963
  C:1188H         LINE#         964
  C:118FH         LINE#         965
  C:11A3H         LINE#         966
  C:11A6H         LINE#         967
  C:11A6H         LINE#         969
BL51 BANKED LINKER/LOCATER V6.22.2.0                                                  08/31/2020  09:26:19  PAGE 96


  C:11A8H         LINE#         970
  C:11A8H         LINE#         971
  C:11AFH         LINE#         972
  C:11C3H         LINE#         973
  C:11C8H         LINE#         974
  C:11CDH         LINE#         975
  C:11CFH         LINE#         976
  C:11CFH         LINE#         978
  C:11CFH         LINE#         979
  C:11D2H         LINE#         981
  C:11D2H         LINE#         982
  C:11DBH         LINE#         983
  C:11EFH         LINE#         984
  C:11F4H         LINE#         985
  C:11F9H         LINE#         986
  C:11FBH         LINE#         987
  C:11FBH         LINE#         989
  C:11FBH         LINE#         991
  C:11FBH         LINE#         993
  C:11FEH         LINE#         1001
  C:11FEH         LINE#         1003
  C:1208H         LINE#         1004
  C:1208H         LINE#         1005
  C:1210H         LINE#         1006
  C:1210H         LINE#         1007
  C:1216H         LINE#         1008
  C:1217H         LINE#         1009
  C:121FH         LINE#         1010
  C:121FH         LINE#         1011
  C:1226H         LINE#         1012
  C:123AH         LINE#         1013
  C:123AH         LINE#         1014
  C:123CH         LINE#         1016
  C:123CH         LINE#         1017
  C:1243H         LINE#         1018
  C:1243H         LINE#         1019
  C:1243H         LINE#         1020
  C:1246H         LINE#         1022
  C:1246H         LINE#         1023
  C:124FH         LINE#         1024
  C:1263H         LINE#         1026
  C:1263H         LINE#         1027
  C:1263H         LINE#         1030
  C:1265H         LINE#         1036
  C:1265H         LINE#         1038
  C:126CH         LINE#         1039
  C:126CH         LINE#         1041
  C:126EH         LINE#         1047
  C:126EH         LINE#         1049
  C:1278H         LINE#         1050
  C:1278H         LINE#         1051
  C:1280H         LINE#         1052
  C:1280H         LINE#         1053
  C:1280H         LINE#         1054
  C:1282H         LINE#         1055
  C:1288H         LINE#         1056
  C:1288H         LINE#         1057
BL51 BANKED LINKER/LOCATER V6.22.2.0                                                  08/31/2020  09:26:19  PAGE 97


  C:128EH         LINE#         1058
  C:128EH         LINE#         1059
  C:128EH         LINE#         1060
  C:1291H         LINE#         1062
  C:1291H         LINE#         1066
  C:12A4H         LINE#         1067
  C:12A4H         LINE#         1068
  C:12AAH         LINE#         1069
  C:12ABH         LINE#         1070
  C:12C3H         LINE#         1071
  C:12C3H         LINE#         1072
  C:12C9H         LINE#         1073
  C:12C9H         LINE#         1075
  C:12C9H         LINE#         1076
  C:12CAH         LINE#         1078
  C:12CAH         LINE#         1079
  C:12D3H         LINE#         1082
  C:12E3H         LINE#         1083
  C:12E3H         LINE#         1085
  C:12F5H         LINE#         1086
  C:12F5H         LINE#         1087
  C:130EH         LINE#         1088
  C:1316H         LINE#         1089
  C:1327H         LINE#         1090
  C:135BH         LINE#         1091
  C:135BH         LINE#         1093
  C:1364H         LINE#         1094
  C:136CH         LINE#         1095
  C:1375H         LINE#         1097
  C:137EH         LINE#         1098
  C:1386H         LINE#         1099
  C:138FH         LINE#         1105
  C:1398H         LINE#         1106
  C:13A0H         LINE#         1107
  C:13A9H         LINE#         1110
  C:13A9H         LINE#         1119
  C:13ACH         LINE#         1121
  C:13ACH         LINE#         1122
  C:13B1H         LINE#         1123
  C:13B3H         LINE#         1124
  C:13B3H         LINE#         1125
  C:13B3H         LINE#         1126
  C:13B6H         LINE#         1128
  C:13B6H         LINE#         1129
  C:13BBH         LINE#         1130
  C:13BDH         LINE#         1131
  C:13BDH         LINE#         1132
  C:13BDH         LINE#         1134
  C:13BDH         LINE#         1135
  C:13C0H         LINE#         1140
  C:13C0H         LINE#         1142
  C:13C7H         LINE#         1143
  C:13C7H         LINE#         1144
  C:13C9H         LINE#         1150
  C:13C9H         LINE#         1152
  C:13D3H         LINE#         1153
  C:13D3H         LINE#         1154
BL51 BANKED LINKER/LOCATER V6.22.2.0                                                  08/31/2020  09:26:19  PAGE 98


  C:13DBH         LINE#         1155
  C:13DBH         LINE#         1156
  C:13DBH         LINE#         1157
  C:13DDH         LINE#         1158
  C:13E3H         LINE#         1159
  C:13E3H         LINE#         1160
  C:13E9H         LINE#         1161
  C:13E9H         LINE#         1162
  C:13E9H         LINE#         1163
  C:13ECH         LINE#         1165
  C:13ECH         LINE#         1168
  C:13FFH         LINE#         1169
  C:13FFH         LINE#         1170
  C:1405H         LINE#         1171
  C:1406H         LINE#         1172
  C:141EH         LINE#         1173
  C:141EH         LINE#         1174
  C:141EH         LINE#         1175
  C:141EH         LINE#         1177
  C:141EH         LINE#         1178
  C:1421H         LINE#         1180
  C:1421H         LINE#         1181
  C:1431H         LINE#         1182
  C:1431H         LINE#         1184
  C:143AH         LINE#         1186
  C:144CH         LINE#         1187
  C:144CH         LINE#         1188
  C:1465H         LINE#         1189
  C:146DH         LINE#         1190
  C:147EH         LINE#         1195
  C:148AH         LINE#         1196
  C:148AH         LINE#         1197
  C:1493H         LINE#         1198
  C:1498H         LINE#         1199
  C:149DH         LINE#         1200
  C:149FH         LINE#         1201
  C:149FH         LINE#         1203
  C:14A2H         LINE#         1205
  C:14A2H         LINE#         1211
  C:14AAH         LINE#         1212
  C:14AAH         LINE#         1213
  C:14B3H         LINE#         1214
  C:14B9H         LINE#         1216
  C:14BAH         LINE#         1217
  C:14C4H         LINE#         1218
  C:14C4H         LINE#         1219
  C:14CBH         LINE#         1220
  C:14D1H         LINE#         1222
  C:14D2H         LINE#         1224
  C:14D2H         LINE#         1225
  C:14D6H         LINE#         1226
  C:14D6H         LINE#         1228
  C:14D6H         LINE#         1229
  C:14D6H         LINE#         1230
  C:14D9H         LINE#         1231
  C:14D9H         LINE#         1233
  C:14D9H         LINE#         1234
BL51 BANKED LINKER/LOCATER V6.22.2.0                                                  08/31/2020  09:26:19  PAGE 99


  C:14DFH         LINE#         1236
  C:14DFH         LINE#         1237
  C:14DFH         LINE#         1238
  C:14E0H         LINE#         1239
  C:14E0H         LINE#         1245
  C:14EBH         LINE#         1246
  C:14EBH         LINE#         1247
  C:14F1H         LINE#         1248
  C:14F1H         LINE#         1249
  C:14F1H         LINE#         1251
  C:14F1H         LINE#         1252
  C:14F4H         LINE#         1253
  C:14F4H         LINE#         1254
  C:1503H         LINE#         1255
  C:1503H         LINE#         1256
  C:150CH         LINE#         1259
  C:1530H         LINE#         1260
  C:1530H         LINE#         1261
  C:1530H         LINE#         1263
  C:1530H         LINE#         1264
  C:1533H         LINE#         1265
  C:1533H         LINE#         1267
  C:1533H         LINE#         1268
  C:153CH         LINE#         1269
  C:1541H         LINE#         1270
  C:1543H         LINE#         1271
  C:1543H         LINE#         1272
  C:1546H         LINE#         1273
  C:1546H         LINE#         1276
  C:1546H         LINE#         1277
  C:1546H         LINE#         1282
  C:154FH         LINE#         1283
  C:154FH         LINE#         1285
  C:155EH         LINE#         1286
  C:155EH         LINE#         1287
  C:1561H         LINE#         1288
  C:156AH         LINE#         1289
  C:1572H         LINE#         1290
  C:157BH         LINE#         1292
  C:1589H         LINE#         1293
  C:158FH         LINE#         1294
  C:15A0H         LINE#         1296
  C:15A9H         LINE#         1297
  C:15CFH         LINE#         1298
  C:15D8H         LINE#         1299
  C:15E1H         LINE#         1300
  C:15E4H         LINE#         1304
  C:15ECH         LINE#         1305
  C:15ECH         LINE#         1306
  C:15F5H         LINE#         1307
  C:15FEH         LINE#         1309
  C:1600H         LINE#         1311
  C:1600H         LINE#         1312
  C:160CH         LINE#         1313
  C:160CH         LINE#         1314
  C:1615H         LINE#         1315
  C:1617H         LINE#         1317
BL51 BANKED LINKER/LOCATER V6.22.2.0                                                  08/31/2020  09:26:19  PAGE 100


  C:1617H         LINE#         1318
  C:161AH         LINE#         1319
  C:161AH         LINE#         1321
  C:161AH         LINE#         1322
  C:1623H         LINE#         1323
  C:1628H         LINE#         1324
  C:162DH         LINE#         1325
  C:1633H         LINE#         1326
  C:1633H         LINE#         1327
  C:1633H         LINE#         1328
  C:1633H         LINE#         1329
  C:1635H         LINE#         1334
  C:163FH         LINE#         1335
  C:163FH         LINE#         1336
  C:1648H         LINE#         1337
  C:1651H         LINE#         1338
  C:165AH         LINE#         1339
  C:166BH         LINE#         1341
  C:166BH         LINE#         1345
  C:1679H         LINE#         1346
  C:167DH         LINE#         1347
  C:167DH         LINE#         1348
  C:1686H         LINE#         1349
  C:168BH         LINE#         1350
  C:1690H         LINE#         1351
  C:1695H         LINE#         1353
  C:1695H         LINE#         1355
  C:1698H         LINE#         1356
  C:16A2H         LINE#         1357
  C:16A2H         LINE#         1358
  C:16A9H         LINE#         1359
  C:16AEH         LINE#         1360
  C:16B3H         LINE#         1361
  C:16B8H         LINE#         1362
  C:16B8H         LINE#         1363
  C:16BBH         LINE#         1365
  C:16BBH         LINE#         1366
  C:16BFH         LINE#         1368
  C:16BFH         LINE#         1369
  C:16BFH         LINE#         1376
  C:16C1H         LINE#         1377
  C:16C1H         LINE#         1379
  C:16CFH         LINE#         1380
  C:16D7H         LINE#         1381
  C:16D7H         LINE#         1382
  C:16DDH         LINE#         1384
  C:16EDH         LINE#         1385
  C:16EDH         LINE#         1388
  C:16F4H         LINE#         1392
  C:16F4H         LINE#         1395
  C:16F6H         LINE#         1397
  C:16F6H         LINE#         1401
  C:16FDH         LINE#         1402
  C:16FDH         LINE#         1404
  C:16FDH         LINE#         1405
  C:1700H         LINE#         1407
  C:1700H         LINE#         1409
BL51 BANKED LINKER/LOCATER V6.22.2.0                                                  08/31/2020  09:26:19  PAGE 101


  C:1700H         LINE#         1410
  C:1700H         LINE#         1411
  C:1703H         LINE#         1412
  C:1703H         LINE#         1414
  C:170AH         LINE#         1415
  C:170AH         LINE#         1416
  C:170CH         LINE#         1422
  C:170CH         LINE#         1424
  C:1716H         LINE#         1425
  C:1716H         LINE#         1426
  C:171EH         LINE#         1427
  C:171EH         LINE#         1428
  C:171EH         LINE#         1429
  C:1720H         LINE#         1430
  C:1726H         LINE#         1431
  C:1726H         LINE#         1432
  C:172CH         LINE#         1433
  C:172CH         LINE#         1434
  C:172CH         LINE#         1435
  C:172FH         LINE#         1437
  C:172FH         LINE#         1440
  C:1742H         LINE#         1441
  C:1742H         LINE#         1442
  C:1748H         LINE#         1443
  C:1749H         LINE#         1444
  C:1761H         LINE#         1445
  C:1761H         LINE#         1446
  C:1767H         LINE#         1447
  C:1767H         LINE#         1448
  C:1767H         LINE#         1449
  C:1768H         LINE#         1451
  C:1768H         LINE#         1452
  C:1771H         LINE#         1455
  C:1784H         LINE#         1456
  C:1784H         LINE#         1458
  C:179DH         LINE#         1459
  C:17AAH         LINE#         1460
  C:17AAH         LINE#         1461
  C:17AAH         LINE#         1462
  C:17AAH         LINE#         1463
  C:17B2H         LINE#         1464
  C:17C3H         LINE#         1465
  C:17CCH         LINE#         1466
  C:17D5H         LINE#         1467
  C:17DEH         LINE#         1471
  C:17E3H         LINE#         1472
  C:17FDH         LINE#         1473
  C:1806H         LINE#         1474
  C:1806H         LINE#         1475
  C:181DH         LINE#         1476
  C:181DH         LINE#         1480
  C:181DH         LINE#         1481
  C:181DH         LINE#         1482
  C:181FH         LINE#         1489
  C:181FH         LINE#         1492
  C:182CH         LINE#         1493
  C:182CH         LINE#         1495
BL51 BANKED LINKER/LOCATER V6.22.2.0                                                  08/31/2020  09:26:19  PAGE 102


  C:182EH         LINE#         1500
  C:182EH         LINE#         1501
  C:1838H         LINE#         1502
  C:1838H         LINE#         1503
  C:1840H         LINE#         1504
  C:1840H         LINE#         1505
  C:1840H         LINE#         1506
  C:1842H         LINE#         1507
  C:1848H         LINE#         1508
  C:1848H         LINE#         1509
  C:184EH         LINE#         1510
  C:184EH         LINE#         1511
  C:184EH         LINE#         1512
  C:1851H         LINE#         1514
  C:1851H         LINE#         1518
  C:1864H         LINE#         1519
  C:1864H         LINE#         1520
  C:186AH         LINE#         1521
  C:186BH         LINE#         1522
  C:1883H         LINE#         1523
  C:1883H         LINE#         1524
  C:1889H         LINE#         1525
  C:1889H         LINE#         1529
  C:1889H         LINE#         1530
  C:188AH         LINE#         1532
  C:188AH         LINE#         1534
  C:1893H         LINE#         1535
  C:18A7H         LINE#         1536
  C:18A7H         LINE#         1537
  C:18A7H         LINE#         1538
  C:18A9H         LINE#         1539
  C:18A9H         LINE#         1540
  C:18B6H         LINE#         1542
  C:18B6H         LINE#         1543
  C:18B8H         LINE#         1546
  C:18B8H         LINE#         1548
  C:18C2H         LINE#         1549
  C:18C2H         LINE#         1550
  C:18CAH         LINE#         1551
  C:18CAH         LINE#         1552
  C:18CAH         LINE#         1553
  C:18CCH         LINE#         1554
  C:18D2H         LINE#         1555
  C:18D2H         LINE#         1556
  C:18D8H         LINE#         1557
  C:18D8H         LINE#         1558
  C:18D8H         LINE#         1559
  C:18DBH         LINE#         1561
  C:18DBH         LINE#         1564
  C:18EEH         LINE#         1565
  C:18EEH         LINE#         1566
  C:18F4H         LINE#         1567
  C:18F5H         LINE#         1568
  C:190DH         LINE#         1569
  C:190DH         LINE#         1570
  C:1913H         LINE#         1571
  C:1913H         LINE#         1574
BL51 BANKED LINKER/LOCATER V6.22.2.0                                                  08/31/2020  09:26:19  PAGE 103


  C:1913H         LINE#         1575
  C:1914H         LINE#         1577
  C:1914H         LINE#         1580
  C:1916H         LINE#         1581
  C:191FH         LINE#         1582
  C:1933H         LINE#         1583
  C:1938H         LINE#         1584
  C:193DH         LINE#         1585
  C:1942H         LINE#         1587
  C:194BH         LINE#         1591
  C:194BH         LINE#         1592
  C:194BH         LINE#         1593
  C:194DH         LINE#         1595
  C:194DH         LINE#         1597
  C:1952H         LINE#         1598
  C:1958H         LINE#         1599
  C:195AH         LINE#         1600
  C:195BH         LINE#         1609
  C:195BH         LINE#         1611
  C:1965H         LINE#         1612
  C:1965H         LINE#         1613
  C:196AH         LINE#         1614
  C:196AH         LINE#         1616
  C:1972H         LINE#         1617
  C:1972H         LINE#         1618
  C:1974H         LINE#         1619
  C:197DH         LINE#         1621
  C:197DH         LINE#         1623
  C:197DH         LINE#         1626
  C:197FH         LINE#         1627
  C:1987H         LINE#         1628
  C:1987H         LINE#         1629
  C:198DH         LINE#         1630
  C:198DH         LINE#         1631
  C:198DH         LINE#         1632
  C:1990H         LINE#         1634
  C:1990H         LINE#         1640
  C:19A3H         LINE#         1641
  C:19A3H         LINE#         1642
  C:19A9H         LINE#         1643
  C:19AAH         LINE#         1644
  C:19C2H         LINE#         1645
  C:19C2H         LINE#         1647
  C:19C8H         LINE#         1648
  C:19C8H         LINE#         1652
  C:19C8H         LINE#         1653
  C:19C9H         LINE#         1655
  C:19C9H         LINE#         1657
  C:19CBH         LINE#         1658
  C:19D4H         LINE#         1659
  C:19E8H         LINE#         1661
  C:19EAH         LINE#         1662
  C:19F0H         LINE#         1663
  C:19F5H         LINE#         1665
  C:19F5H         LINE#         1668
  C:19F6H         LINE#         1672
  C:19F6H         LINE#         1673
BL51 BANKED LINKER/LOCATER V6.22.2.0                                                  08/31/2020  09:26:19  PAGE 104


  C:19FDH         LINE#         1674
  C:19FDH         LINE#         1675
  C:19FFH         LINE#         1683
  C:19FFH         LINE#         1685
  C:1A09H         LINE#         1686
  C:1A09H         LINE#         1687
  C:1A11H         LINE#         1688
  C:1A11H         LINE#         1689
  C:1A11H         LINE#         1690
  C:1A13H         LINE#         1691
  C:1A19H         LINE#         1692
  C:1A19H         LINE#         1693
  C:1A22H         LINE#         1694
  C:1A36H         LINE#         1695
  C:1A36H         LINE#         1696
  C:1A39H         LINE#         1698
  C:1A39H         LINE#         1701
  C:1A4CH         LINE#         1702
  C:1A4CH         LINE#         1703
  C:1A52H         LINE#         1704
  C:1A53H         LINE#         1705
  C:1A6BH         LINE#         1706
  C:1A6BH         LINE#         1707
  C:1A71H         LINE#         1708
  C:1A71H         LINE#         1710
  C:1A71H         LINE#         1711
  C:1A72H         LINE#         1713
  C:1A72H         LINE#         1715
  C:1A7BH         LINE#         1718
  C:1A8EH         LINE#         1719
  C:1A8EH         LINE#         1721
  C:1AA7H         LINE#         1722
  C:1AB4H         LINE#         1723
  C:1AB4H         LINE#         1724
  C:1AB4H         LINE#         1725
  C:1AB4H         LINE#         1726
  C:1ABCH         LINE#         1727
  C:1ACDH         LINE#         1728
  C:1AE8H         LINE#         1729
  C:1AEEH         LINE#         1730
  C:1AEEH         LINE#         1731
  C:1AEFH         LINE#         1737
  C:1AEFH         LINE#         1738
  C:1AF4H         LINE#         1739
  C:1AF4H         LINE#         1740
  C:1AF6H         LINE#         1743
  C:1AF6H         LINE#         1744
  C:1B00H         LINE#         1745
  C:1B00H         LINE#         1746
  C:1B05H         LINE#         1747
  C:1B05H         LINE#         1748
  C:1B0BH         LINE#         1749
  C:1B0CH         LINE#         1750
  C:1B0CH         LINE#         1751
  C:1B0EH         LINE#         1753
  C:1B0EH         LINE#         1754
  C:1B14H         LINE#         1755
BL51 BANKED LINKER/LOCATER V6.22.2.0                                                  08/31/2020  09:26:19  PAGE 105


  C:1B14H         LINE#         1757
  C:1B15H         LINE#         1759
  C:1B15H         LINE#         1760
  C:1B1AH         LINE#         1761
  C:1B20H         LINE#         1763
  C:1B20H         LINE#         1764
  C:1B2AH         LINE#         1765
  C:1B2AH         LINE#         1766
  C:1B2FH         LINE#         1767
  C:1B2FH         LINE#         1768
  C:1B35H         LINE#         1769
  C:1B36H         LINE#         1770
  C:1B36H         LINE#         1771
  C:1B38H         LINE#         1773
  C:1B38H         LINE#         1774
  C:1B38H         LINE#         1775
  C:1B38H         LINE#         1777
  C:1B3AH         LINE#         1783
  C:1B3AH         LINE#         1784
  C:1B3FH         LINE#         1785
  C:1B3FH         LINE#         1787
  C:1B3FH         LINE#         1788
  -------         ENDPROC       SECUENCIAEXPEDIDOR
  -------         ENDMOD        VERIFICADOR

  -------         MODULE        LINTECH
  C:0000H         SYMBOL        _ICE_DUMMY_
  C:8259H         PUBLIC        _Inicializa
  C:78BCH         PUBLIC        _RD_MF
  C:7E79H         PUBLIC        Dwload_EEprom
  C:8552H         PUBLIC        _Card_Insercion
  C:7479H         PUBLIC        _Mov_Card
  C:5FB8H         PUBLIC        _WR_MF
  C:85E3H         PUBLIC        LoadVerify_EEprom
  C:89BFH         PUBLIC        Unique_Identifier_UID
  C:8D51H         PUBLIC        Power_off
  C:8DD1H         PUBLIC        _Check_Status
  C:8CD1H         PUBLIC        Aut_Card_check_Status
  -------         PROC          _INICIALIZA
  X:0002H         SYMBOL        TipoMovimiento
  -------         DO            
  D:0003H         SYMBOL        j
  X:0003H         SYMBOL        bcc
  X:0004H         SYMBOL        g_scArrTxComSoft
  -------         ENDDO         
  C:8259H         LINE#         101
  C:825EH         LINE#         102
  C:825EH         LINE#         105
  C:8261H         LINE#         106
  C:8277H         LINE#         107
  C:8277H         LINE#         109
  C:8280H         LINE#         111
  C:8286H         LINE#         112
  C:8289H         LINE#         113
  C:828BH         LINE#         114
  C:828FH         LINE#         115
  C:8293H         LINE#         116
BL51 BANKED LINKER/LOCATER V6.22.2.0                                                  08/31/2020  09:26:19  PAGE 106


  C:8297H         LINE#         117
  C:829FH         LINE#         118
  C:82A3H         LINE#         119
  C:82AFH         LINE#         120
  C:82AFH         LINE#         121
  C:82C3H         LINE#         122
  C:82C6H         LINE#         123
  C:82CEH         LINE#         124
  C:82D0H         LINE#         125
  C:82D5H         LINE#         126
  C:82E4H         LINE#         127
  C:82EFH         LINE#         128
  C:82F5H         LINE#         129
  C:82F5H         LINE#         130
  -------         ENDPROC       _INICIALIZA
  -------         PROC          _CHECK_STATUS
  X:000EH         SYMBOL        Detalle
  -------         DO            
  D:0006H         SYMBOL        j
  D:0007H         SYMBOL        bcc
  X:000FH         SYMBOL        g_scArrTxComSoft
  -------         ENDDO         
  C:8DD1H         LINE#         139
  C:8DD6H         LINE#         140
  C:8DD6H         LINE#         143
  C:8DDFH         LINE#         145
  C:8DE1H         LINE#         147
  C:8DE7H         LINE#         148
  C:8DEAH         LINE#         149
  C:8DECH         LINE#         150
  C:8DF0H         LINE#         151
  C:8DF4H         LINE#         152
  C:8DF8H         LINE#         153
  C:8E00H         LINE#         154
  C:8E04H         LINE#         155
  C:8E10H         LINE#         156
  C:8E10H         LINE#         157
  C:8E1DH         LINE#         158
  C:8E20H         LINE#         159
  C:8E25H         LINE#         160
  C:8E27H         LINE#         161
  C:8E2CH         LINE#         162
  C:8E3BH         LINE#         163
  C:8E46H         LINE#         164
  C:8E4CH         LINE#         165
  -------         ENDPROC       _CHECK_STATUS
  -------         PROC          _CARD_INSERCION
  D:0007H         SYMBOL        Tipo
  -------         DO            
  D:0006H         SYMBOL        j
  D:0007H         SYMBOL        bcc
  X:000EH         SYMBOL        g_scArrTxComSoft
  -------         ENDDO         
  C:8552H         LINE#         173
  C:8552H         LINE#         174
  C:8552H         LINE#         177
  C:855FH         LINE#         178
BL51 BANKED LINKER/LOCATER V6.22.2.0                                                  08/31/2020  09:26:19  PAGE 107


  C:855FH         LINE#         179
  C:8566H         LINE#         180
  C:856CH         LINE#         181
  C:856EH         LINE#         183
  C:856EH         LINE#         185
  C:8575H         LINE#         186
  C:857BH         LINE#         188
  C:857BH         LINE#         190
  C:857DH         LINE#         192
  C:8583H         LINE#         193
  C:8586H         LINE#         194
  C:8588H         LINE#         195
  C:858CH         LINE#         196
  C:8590H         LINE#         197
  C:8594H         LINE#         199
  C:859AH         LINE#         200
  C:85A6H         LINE#         201
  C:85A6H         LINE#         202
  C:85B3H         LINE#         203
  C:85B6H         LINE#         205
  C:85BBH         LINE#         207
  C:85BDH         LINE#         208
  C:85C2H         LINE#         209
  C:85D1H         LINE#         210
  C:85DCH         LINE#         211
  C:85E2H         LINE#         212
  -------         ENDPROC       _CARD_INSERCION
  -------         PROC          _MOV_CARD
  X:000EH         SYMBOL        Posicion
  -------         DO            
  D:0003H         SYMBOL        j
  X:000FH         SYMBOL        bcc
  X:0010H         SYMBOL        g_scArrTxComSoft
  -------         ENDDO         
  C:7479H         LINE#         223
  C:747EH         LINE#         224
  C:747EH         LINE#         227
  C:7481H         LINE#         229
  C:74A1H         LINE#         230
  C:74A1H         LINE#         231
  C:74A8H         LINE#         232
  C:74A8H         LINE#         233
  C:74AEH         LINE#         234
  C:74B0H         LINE#         235
  C:74B7H         LINE#         236
  C:74B7H         LINE#         237
  C:74BDH         LINE#         238
  C:74BFH         LINE#         239
  C:74C6H         LINE#         240
  C:74C6H         LINE#         241
  C:74CCH         LINE#         242
  C:74CEH         LINE#         243
  C:74D5H         LINE#         244
  C:74D5H         LINE#         245
  C:74DBH         LINE#         246
  C:74DDH         LINE#         247
  C:74E4H         LINE#         248
BL51 BANKED LINKER/LOCATER V6.22.2.0                                                  08/31/2020  09:26:19  PAGE 108


  C:74E4H         LINE#         249
  C:74EDH         LINE#         250
  C:74EDH         LINE#         252
  C:74F3H         LINE#         253
  C:74F6H         LINE#         254
  C:74F8H         LINE#         255
  C:74FCH         LINE#         256
  C:7500H         LINE#         257
  C:7504H         LINE#         258
  C:750CH         LINE#         259
  C:7510H         LINE#         260
  C:751CH         LINE#         261
  C:751CH         LINE#         262
  C:7530H         LINE#         263
  C:7533H         LINE#         264
  C:753BH         LINE#         265
  C:753DH         LINE#         266
  C:7542H         LINE#         267
  C:7551H         LINE#         268
  C:755CH         LINE#         269
  C:7562H         LINE#         270
  C:7562H         LINE#         272
  -------         ENDPROC       _MOV_CARD
  -------         PROC          AUT_CARD_CHECK_STATUS
  -------         DO            
  D:0003H         SYMBOL        j
  X:000EH         SYMBOL        bcc
  X:000FH         SYMBOL        g_scArrTxComSoft
  -------         ENDDO         
  C:8CD1H         LINE#         278
  C:8CD1H         LINE#         279
  C:8CD1H         LINE#         282
  C:8CD6H         LINE#         284
  C:8CDFH         LINE#         286
  C:8CE5H         LINE#         287
  C:8CE8H         LINE#         288
  C:8CEAH         LINE#         289
  C:8CEEH         LINE#         290
  C:8CF2H         LINE#         291
  C:8CF6H         LINE#         292
  C:8CFAH         LINE#         293
  C:8CFEH         LINE#         294
  C:8D0AH         LINE#         295
  C:8D0AH         LINE#         296
  C:8D1EH         LINE#         297
  C:8D21H         LINE#         298
  C:8D29H         LINE#         299
  C:8D2BH         LINE#         300
  C:8D30H         LINE#         301
  C:8D3FH         LINE#         302
  C:8D4AH         LINE#         303
  C:8D50H         LINE#         304
  -------         ENDPROC       AUT_CARD_CHECK_STATUS
  -------         PROC          DWLOAD_EEPROM
  -------         DO            
  D:0003H         SYMBOL        j
  X:0002H         SYMBOL        bcc
BL51 BANKED LINKER/LOCATER V6.22.2.0                                                  08/31/2020  09:26:19  PAGE 109


  X:0003H         SYMBOL        g_scArrTxComSoft
  -------         ENDDO         
  C:7E79H         LINE#         310
  C:7E79H         LINE#         311
  C:7E79H         LINE#         314
  C:7E7EH         LINE#         315
  C:7E87H         LINE#         317
  C:7E8DH         LINE#         318
  C:7E90H         LINE#         319
  C:7E92H         LINE#         320
  C:7E96H         LINE#         321
  C:7E9AH         LINE#         322
  C:7E9EH         LINE#         323
  C:7EA2H         LINE#         324
  C:7EA5H         LINE#         325
  C:7EA9H         LINE#         326
  C:7EACH         LINE#         327
  C:7EAFH         LINE#         328
  C:7EB3H         LINE#         329
  C:7EB7H         LINE#         330
  C:7EBBH         LINE#         331
  C:7EBFH         LINE#         332
  C:7EC3H         LINE#         333
  C:7EC7H         LINE#         334
  C:7ECBH         LINE#         335
  C:7ECFH         LINE#         337
  C:7EDBH         LINE#         338
  C:7EDBH         LINE#         339
  C:7EEFH         LINE#         340
  C:7EF2H         LINE#         341
  C:7EFAH         LINE#         342
  C:7EFCH         LINE#         343
  C:7F01H         LINE#         344
  C:7F10H         LINE#         345
  C:7F1BH         LINE#         346
  C:7F21H         LINE#         347
  -------         ENDPROC       DWLOAD_EEPROM
  -------         PROC          LOADVERIFY_EEPROM
  -------         DO            
  D:0003H         SYMBOL        j
  X:000EH         SYMBOL        bcc
  X:000FH         SYMBOL        g_scArrTxComSoft
  -------         ENDDO         
  C:85E3H         LINE#         353
  C:85E3H         LINE#         354
  C:85E3H         LINE#         357
  C:85E8H         LINE#         358
  C:85F1H         LINE#         361
  C:85F7H         LINE#         362
  C:85FAH         LINE#         363
  C:85FCH         LINE#         364
  C:8600H         LINE#         365
  C:8604H         LINE#         366
  C:8608H         LINE#         367
  C:860CH         LINE#         368
  C:860FH         LINE#         369
  C:8613H         LINE#         370
BL51 BANKED LINKER/LOCATER V6.22.2.0                                                  08/31/2020  09:26:19  PAGE 110


  C:8616H         LINE#         371
  C:8619H         LINE#         372
  C:861DH         LINE#         373
  C:8621H         LINE#         377
  C:862DH         LINE#         378
  C:862DH         LINE#         379
  C:8641H         LINE#         380
  C:8644H         LINE#         381
  C:864CH         LINE#         382
  C:864EH         LINE#         383
  C:8653H         LINE#         384
  C:8662H         LINE#         385
  C:866DH         LINE#         386
  C:8673H         LINE#         388
  -------         ENDPROC       LOADVERIFY_EEPROM
  -------         PROC          _RD_MF
  X:000EH         SYMBOL        Sector
  X:000FH         SYMBOL        Bloque
  -------         DO            
  D:0003H         SYMBOL        j
  X:0010H         SYMBOL        bcc
  X:0011H         SYMBOL        g_scArrTxComSoft
  -------         ENDDO         
  C:78BCH         LINE#         394
  C:78C4H         LINE#         395
  C:78C4H         LINE#         399
  C:78C7H         LINE#         401
  C:78D0H         LINE#         402
  C:78D8H         LINE#         404
  C:78E1H         LINE#         405
  C:78E9H         LINE#         406
  C:78F2H         LINE#         409
  C:78F8H         LINE#         410
  C:78FBH         LINE#         411
  C:78FDH         LINE#         412
  C:7901H         LINE#         413
  C:7905H         LINE#         414
  C:7909H         LINE#         415
  C:790DH         LINE#         416
  C:7910H         LINE#         417
  C:7914H         LINE#         418
  C:791CH         LINE#         419
  C:7924H         LINE#         420
  C:7928H         LINE#         421
  C:792CH         LINE#         423
  C:7938H         LINE#         424
  C:7938H         LINE#         425
  C:794CH         LINE#         426
  C:794FH         LINE#         427
  C:7957H         LINE#         430
  C:7959H         LINE#         431
  C:795EH         LINE#         432
  C:796DH         LINE#         433
  C:7978H         LINE#         434
  C:797EH         LINE#         436
  -------         ENDPROC       _RD_MF
  -------         PROC          _WR_MF
BL51 BANKED LINKER/LOCATER V6.22.2.0                                                  08/31/2020  09:26:19  PAGE 111


  X:000EH         SYMBOL        Sector
  X:000FH         SYMBOL        Bloque
  X:0010H         SYMBOL        buffer
  -------         DO            
  X:0013H         SYMBOL        j
  X:0014H         SYMBOL        bcc
  X:0015H         SYMBOL        g_scArrTxComSoft
  -------         ENDDO         
  C:5FB8H         LINE#         443
  C:5FC9H         LINE#         445
  C:5FC9H         LINE#         448
  C:5FCEH         LINE#         450
  C:5FD7H         LINE#         451
  C:5FDFH         LINE#         453
  C:5FE8H         LINE#         454
  C:5FF0H         LINE#         455
  C:5FF9H         LINE#         457
  C:5FFFH         LINE#         458
  C:6002H         LINE#         459
  C:6004H         LINE#         460
  C:6008H         LINE#         462
  C:600CH         LINE#         463
  C:6010H         LINE#         464
  C:6014H         LINE#         465
  C:6017H         LINE#         466
  C:601BH         LINE#         467
  C:6024H         LINE#         468
  C:602CH         LINE#         469
  C:6030H         LINE#         471
  C:6035H         LINE#         472
  C:6035H         LINE#         477
  C:6038H         LINE#         478
  C:603AH         LINE#         479
  C:603CH         LINE#         480
  C:603EH         LINE#         481
  C:6040H         LINE#         486
  C:6042H         LINE#         487
  C:6044H         LINE#         488
  C:6046H         LINE#         494
  C:6058H         LINE#         499
  C:6062H         LINE#         504
  C:6066H         LINE#         510
  C:6069H         LINE#         511
  C:606BH         LINE#         512
  C:606DH         LINE#         513
  C:606FH         LINE#         514
  C:6071H         LINE#         516
  C:6073H         LINE#         518
  C:6073H         LINE#         519
  C:6087H         LINE#         520
  C:6087H         LINE#         521
  C:6093H         LINE#         522
  C:609BH         LINE#         523
  C:609BH         LINE#         528
  C:60A1H         LINE#         530
  C:60B4H         LINE#         531
  C:60B4H         LINE#         532
BL51 BANKED LINKER/LOCATER V6.22.2.0                                                  08/31/2020  09:26:19  PAGE 112


  C:60C9H         LINE#         533
  C:60D1H         LINE#         534
  C:60D9H         LINE#         537
  C:60DBH         LINE#         538
  C:60E0H         LINE#         539
  C:60EFH         LINE#         540
  C:60FAH         LINE#         541
  C:6100H         LINE#         543
  -------         ENDPROC       _WR_MF
  -------         PROC          UNIQUE_IDENTIFIER_UID
  -------         DO            
  D:0003H         SYMBOL        j
  X:01DCH         SYMBOL        bcc
  X:01DDH         SYMBOL        g_scArrTxComSoft
  -------         ENDDO         
  C:89BFH         LINE#         548
  C:89BFH         LINE#         549
  C:89BFH         LINE#         552
  C:89C4H         LINE#         554
  C:89CDH         LINE#         556
  C:89D3H         LINE#         557
  C:89D6H         LINE#         558
  C:89D8H         LINE#         559
  C:89DCH         LINE#         560
  C:89E0H         LINE#         561
  C:89E4H         LINE#         562
  C:89E8H         LINE#         563
  C:89ECH         LINE#         564
  C:89F0H         LINE#         565
  C:89F4H         LINE#         566
  C:8A00H         LINE#         567
  C:8A00H         LINE#         568
  C:8A14H         LINE#         569
  C:8A17H         LINE#         570
  C:8A1FH         LINE#         571
  C:8A21H         LINE#         572
  C:8A26H         LINE#         573
  C:8A35H         LINE#         574
  C:8A40H         LINE#         575
  C:8A46H         LINE#         576
  -------         ENDPROC       UNIQUE_IDENTIFIER_UID
  -------         PROC          POWER_OFF
  -------         DO            
  D:0003H         SYMBOL        j
  X:01E7H         SYMBOL        bcc
  X:01E8H         SYMBOL        g_scArrTxComSoft
  -------         ENDDO         
  C:8D51H         LINE#         577
  C:8D51H         LINE#         578
  C:8D51H         LINE#         581
  C:8D56H         LINE#         583
  C:8D5FH         LINE#         585
  C:8D65H         LINE#         586
  C:8D68H         LINE#         587
  C:8D6AH         LINE#         588
  C:8D6EH         LINE#         589
  C:8D72H         LINE#         590
BL51 BANKED LINKER/LOCATER V6.22.2.0                                                  08/31/2020  09:26:19  PAGE 113


  C:8D76H         LINE#         591
  C:8D7AH         LINE#         592
  C:8D7EH         LINE#         593
  C:8D8AH         LINE#         594
  C:8D8AH         LINE#         595
  C:8D9EH         LINE#         596
  C:8DA1H         LINE#         597
  C:8DA9H         LINE#         598
  C:8DABH         LINE#         599
  C:8DB0H         LINE#         600
  C:8DBFH         LINE#         601
  C:8DCAH         LINE#         602
  C:8DD0H         LINE#         605
  -------         ENDPROC       POWER_OFF
  -------         ENDMOD        LINTECH

  -------         MODULE        ?C?FPADD
  C:1B47H         PUBLIC        ?C?FPADD
  C:1B43H         PUBLIC        ?C?FPSUB
  -------         ENDMOD        ?C?FPADD

  -------         MODULE        ?C?FPMUL
  C:1C38H         PUBLIC        ?C?FPMUL
  -------         ENDMOD        ?C?FPMUL

  -------         MODULE        ?C?FCAST
  C:1D48H         PUBLIC        ?C?FCASTC
  C:1D43H         PUBLIC        ?C?FCASTI
  C:1D3EH         PUBLIC        ?C?FCASTL
  -------         ENDMOD        ?C?FCAST

  -------         MODULE        ?C?CASTF
  C:1D7CH         PUBLIC        ?C?CASTF
  -------         ENDMOD        ?C?CASTF

  -------         MODULE        PRINTF
  X:008BH         PUBLIC        ?_PRINTF?BYTE
  X:008BH         PUBLIC        ?_SPRINTF?BYTE
  C:3263H         PUBLIC        _PRINTF
  C:325DH         PUBLIC        _SPRINTF
  -------         ENDMOD        PRINTF

  -------         MODULE        POW
  X:001CH         PUBLIC        ?_pow?BYTE
  C:5B8FH         PUBLIC        _pow
  -------         ENDMOD        POW

  -------         MODULE        ?C?CHKFLOAT
  C:1DFDH         PUBLIC        ?C?CHKFLOAT
  -------         ENDMOD        ?C?CHKFLOAT

  -------         MODULE        ?C?FPCMP
  C:1E19H         PUBLIC        ?C?FPCMP
  C:1E17H         PUBLIC        ?C?FPCMP3
  -------         ENDMOD        ?C?FPCMP

  -------         MODULE        ?C?FPNEG
BL51 BANKED LINKER/LOCATER V6.22.2.0                                                  08/31/2020  09:26:19  PAGE 114


  C:1E90H         PUBLIC        ?C?FPNEG
  -------         ENDMOD        ?C?FPNEG

  -------         MODULE        ?C?FPROUND
  C:1EA1H         PUBLIC        ?C?FPROUND
  -------         ENDMOD        ?C?FPROUND

  -------         MODULE        ?C?FPCONVERT
  C:1EDEH         PUBLIC        ?C?FPCONVERT
  -------         ENDMOD        ?C?FPCONVERT

  -------         MODULE        EXP
  C:83CAH         PUBLIC        _EXP
  -------         ENDMOD        EXP

  -------         MODULE        LOG
  C:662FH         PUBLIC        _LOG
  C:662BH         PUBLIC        _LOG10
  -------         ENDMOD        LOG

  -------         MODULE        ?C?FPDIV
  C:1FE6H         PUBLIC        ?C?FPDIV
  -------         ENDMOD        ?C?FPDIV

  -------         MODULE        ?C?FTNPWR
  C:20B3H         PUBLIC        ?C?FTNPWR
  -------         ENDMOD        ?C?FTNPWR

  -------         MODULE        ?C?COPY
  C:2210H         PUBLIC        ?C?COPY
  -------         ENDMOD        ?C?COPY

  -------         MODULE        ?C?CLDPTR
  C:2236H         PUBLIC        ?C?CLDPTR
  -------         ENDMOD        ?C?CLDPTR

  -------         MODULE        ?C?CLDOPTR
  C:224FH         PUBLIC        ?C?CLDOPTR
  -------         ENDMOD        ?C?CLDOPTR

  -------         MODULE        ?C?CSTPTR
  C:227CH         PUBLIC        ?C?CSTPTR
  -------         ENDMOD        ?C?CSTPTR

  -------         MODULE        ?C?CSTOPTR
  C:228EH         PUBLIC        ?C?CSTOPTR
  -------         ENDMOD        ?C?CSTOPTR

  -------         MODULE        ?C?IMUL
  C:22B0H         PUBLIC        ?C?IMUL
  -------         ENDMOD        ?C?IMUL

  -------         MODULE        ?C?UIDIV
  C:22C2H         PUBLIC        ?C?UIDIV
  -------         ENDMOD        ?C?UIDIV

  -------         MODULE        ?C?IILDX
BL51 BANKED LINKER/LOCATER V6.22.2.0                                                  08/31/2020  09:26:19  PAGE 115


  C:2317H         PUBLIC        ?C?IILDX
  -------         ENDMOD        ?C?IILDX

  -------         MODULE        ?C?LNEG
  C:232DH         PUBLIC        ?C?LNEG
  -------         ENDMOD        ?C?LNEG

  -------         MODULE        ?C?ULCMP
  C:233BH         PUBLIC        ?C?ULCMP
  -------         ENDMOD        ?C?ULCMP

  -------         MODULE        ?C?LLDCODE
  C:234CH         PUBLIC        ?C?LLDCODE
  -------         ENDMOD        ?C?LLDCODE

  -------         MODULE        ?C?LLDXDATA0
  C:235CH         PUBLIC        ?C?LLDXDATA0
  -------         ENDMOD        ?C?LLDXDATA0

  -------         MODULE        ?C?LLDCODE0
  C:2368H         PUBLIC        ?C?LLDCODE0
  -------         ENDMOD        ?C?LLDCODE0

  -------         MODULE        ?C?LSTXDATA
  C:2378H         PUBLIC        ?C?LSTXDATA
  -------         ENDMOD        ?C?LSTXDATA

  -------         MODULE        ?C?LSTKXDATA
  C:2384H         PUBLIC        ?C?LSTKXDATA
  -------         ENDMOD        ?C?LSTKXDATA

  -------         MODULE        ?C?PLDIXDATA
  C:23B5H         PUBLIC        ?C?PLDIXDATA
  -------         ENDMOD        ?C?PLDIXDATA

  -------         MODULE        ?C?PSTXDATA
  C:23CCH         PUBLIC        ?C?PSTXDATA
  -------         ENDMOD        ?C?PSTXDATA

  -------         MODULE        ?C?CCASE
  C:23D5H         PUBLIC        ?C?CCASE
  -------         ENDMOD        ?C?CCASE

  -------         MODULE        STRCAT
  X:005AH         PUBLIC        ?_strcat?BYTE
  C:9088H         PUBLIC        _strcat
  -------         ENDMOD        STRCAT

  -------         MODULE        ?C?STRCMP
  C:2579H         PUBLIC        ?C?STRCMP
  -------         ENDMOD        ?C?STRCMP

  -------         MODULE        ?C?STRCPY
  C:2662H         PUBLIC        ?C?STRCPY
  -------         ENDMOD        ?C?STRCPY

  -------         MODULE        STRLEN
BL51 BANKED LINKER/LOCATER V6.22.2.0                                                  08/31/2020  09:26:19  PAGE 116


  C:000EH         PUBLIC        _STRLEN
  -------         ENDMOD        STRLEN

  -------         MODULE        STRTOK
  X:0078H         PUBLIC        ?_strtok?BYTE
  C:7563H         PUBLIC        _strtok
  -------         ENDMOD        STRTOK

  -------         MODULE        ATOI
  C:7647H         PUBLIC        _atoi
  -------         ENDMOD        ATOI

  -------         MODULE        ?C?ILDIX
  C:267FH         PUBLIC        ?C?ILDIX
  -------         ENDMOD        ?C?ILDIX

  -------         MODULE        ISDIGIT
  C:9C0AH         PUBLIC        _isdigit
  -------         ENDMOD        ISDIGIT

  -------         MODULE        ISSPACE
  C:9B6AH         PUBLIC        _isspace
  -------         ENDMOD        ISSPACE

  -------         MODULE        STRSPN
  X:007EH         PUBLIC        ?_strspn?BYTE
  C:8ACCH         PUBLIC        _strspn
  -------         ENDMOD        STRSPN

  -------         MODULE        STRPBRK
  X:007EH         PUBLIC        ?_strpbrk?BYTE
  C:8B50H         PUBLIC        _strpbrk
  -------         ENDMOD        STRPBRK

*** WARNING L16: UNCALLED SEGMENT, IGNORED FOR OVERLAY PROCESS
    SEGMENT: ?PR?UNIQUE_IDENTIFIER_UID?LINTECH

*** WARNING L16: UNCALLED SEGMENT, IGNORED FOR OVERLAY PROCESS
    SEGMENT: ?PR?POWER_OFF?LINTECH

Program Size: data=119.6 xdata=512 code=40075
LINK/LOCATE RUN COMPLETE.  2 WARNING(S),  0 ERROR(S)
