BL51 BANKED LINKER/LOCATER V6.22.2.0                                                    09/02/2020  07:28:03  PAGE 1


BL51 BANKED LINKER/LOCATER V6.22.2.0, INVOKED BY:
C:\KEIL_V5\C51\BIN\BL51.EXE .\Objects\main.obj, .\Objects\Accescan.obj, .\Objects\Clock.obj, .\Objects\delay.obj, .\Obje
>> cts\eeprom.obj, .\Objects\io_sensores.obj, .\Objects\pantallas.obj, .\Objects\prog.obj, .\Objects\pto_paralelo.obj, .
>> \Objects\tibbo.obj, .\Objects\uart.obj, .\Objects\verificador.obj, .\Objects\lintech.obj TO .\Objects\verificador_v_0
>> 1_raspberry PRINT (.\Listings\verificador_v_01_raspberry.m51) RAMSIZE (256)


MEMORY MODEL: LARGE WITH FLOATING POINT ARITHMETIC


INPUT MODULES INCLUDED:
  .\Objects\main.obj (MAIN)
  .\Objects\Accescan.obj (ACCESCAN)
  .\Objects\Clock.obj (CLOCK)
  .\Objects\delay.obj (DELAY)
  .\Objects\eeprom.obj (EEPROM)
  .\Objects\io_sensores.obj (IO_SENSORES)
  .\Objects\pantallas.obj (PANTALLAS)
  .\Objects\prog.obj (PROG)
  .\Objects\pto_paralelo.obj (PTO_PARALELO)
  .\Objects\tibbo.obj (TIBBO)
  .\Objects\uart.obj (UART)
  .\Objects\verificador.obj (VERIFICADOR)
  .\Objects\lintech.obj (LINTECH)
  C:\KEIL_V5\C51\LIB\C51FPL.LIB (?C?FPADD)
  C:\KEIL_V5\C51\LIB\C51FPL.LIB (?C?FPMUL)
  C:\KEIL_V5\C51\LIB\C51FPL.LIB (?C?FCAST)
  C:\KEIL_V5\C51\LIB\C51FPL.LIB (?C?CASTF)
  C:\KEIL_V5\C51\LIB\C51FPL.LIB (PRINTF)
  C:\KEIL_V5\C51\LIB\C51FPL.LIB (POW)
  C:\KEIL_V5\C51\LIB\C51FPL.LIB (?C?FPGETOPN)
  C:\KEIL_V5\C51\LIB\C51FPL.LIB (?C?CHKFLOAT)
  C:\KEIL_V5\C51\LIB\C51FPL.LIB (?C?FPCMP)
  C:\KEIL_V5\C51\LIB\C51FPL.LIB (?C?FPNEG)
  C:\KEIL_V5\C51\LIB\C51FPL.LIB (?C?FPROUND)
  C:\KEIL_V5\C51\LIB\C51FPL.LIB (?C?FPCONVERT)
  C:\KEIL_V5\C51\LIB\C51FPL.LIB (EXP)
  C:\KEIL_V5\C51\LIB\C51FPL.LIB (LOG)
  C:\KEIL_V5\C51\LIB\C51FPL.LIB (?C?FPDIV)
  C:\KEIL_V5\C51\LIB\C51FPL.LIB (?C?FTNPWR)
  C:\KEIL_V5\C51\LIB\C51FPL.LIB (?C?FPSERIES)
  C:\KEIL_V5\C51\LIB\C51L.LIB (?C_STARTUP)
  C:\KEIL_V5\C51\LIB\C51L.LIB (?C?COPY)
  C:\KEIL_V5\C51\LIB\C51L.LIB (?C?CLDPTR)
  C:\KEIL_V5\C51\LIB\C51L.LIB (?C?CLDOPTR)
  C:\KEIL_V5\C51\LIB\C51L.LIB (?C?CSTPTR)
  C:\KEIL_V5\C51\LIB\C51L.LIB (?C?CSTOPTR)
  C:\KEIL_V5\C51\LIB\C51L.LIB (?C?IMUL)
  C:\KEIL_V5\C51\LIB\C51L.LIB (?C?UIDIV)
  C:\KEIL_V5\C51\LIB\C51L.LIB (?C?IILDX)
  C:\KEIL_V5\C51\LIB\C51L.LIB (?C?LNEG)
  C:\KEIL_V5\C51\LIB\C51L.LIB (?C?ULCMP)
  C:\KEIL_V5\C51\LIB\C51L.LIB (?C?LLDCODE)
  C:\KEIL_V5\C51\LIB\C51L.LIB (?C?LLDXDATA0)
  C:\KEIL_V5\C51\LIB\C51L.LIB (?C?LLDCODE0)
  C:\KEIL_V5\C51\LIB\C51L.LIB (?C?LSTXDATA)
  C:\KEIL_V5\C51\LIB\C51L.LIB (?C?LSTKXDATA)
  C:\KEIL_V5\C51\LIB\C51L.LIB (?C?PLDIXDATA)
BL51 BANKED LINKER/LOCATER V6.22.2.0                                                  09/02/2020  07:28:03  PAGE 2


  C:\KEIL_V5\C51\LIB\C51L.LIB (?C?PSTXDATA)
  C:\KEIL_V5\C51\LIB\C51L.LIB (?C?CCASE)
  C:\KEIL_V5\C51\LIB\C51L.LIB (STRCAT)
  C:\KEIL_V5\C51\LIB\C51L.LIB (?C?STRCMP)
  C:\KEIL_V5\C51\LIB\C51L.LIB (?C?STRCPY)
  C:\KEIL_V5\C51\LIB\C51L.LIB (STRLEN)
  C:\KEIL_V5\C51\LIB\C51L.LIB (STRTOK)
  C:\KEIL_V5\C51\LIB\C51L.LIB (ATOI)
  C:\KEIL_V5\C51\LIB\C51L.LIB (?C_INIT)
  C:\KEIL_V5\C51\LIB\C51L.LIB (?C?ILDIX)
  C:\KEIL_V5\C51\LIB\C51L.LIB (ISDIGIT)
  C:\KEIL_V5\C51\LIB\C51L.LIB (ISSPACE)
  C:\KEIL_V5\C51\LIB\C51L.LIB (STRSPN)
  C:\KEIL_V5\C51\LIB\C51L.LIB (STRPBRK)


LINK MAP OF MODULE:  .\Objects\verificador_v_01_raspberry (MAIN)


            TYPE    BASE      LENGTH    RELOCATION   SEGMENT NAME
            -----------------------------------------------------

            * * * * * * *   D A T A   M E M O R Y   * * * * * * *
            REG     0000H     0008H     ABSOLUTE     "REG BANK 0"
            DATA    0008H     0005H     UNIT         _DATA_GROUP_
            DATA    000DH     0004H     UNIT         ?DT?UART
            IDATA   0011H     0009H     UNIT         ?ID?ACCESCAN
                    001AH     0006H                  *** GAP ***
            BIT     0020H.0   0001H.1   UNIT         _BIT_GROUP_
            BIT     0021H.1   0000H.3   UNIT         ?BI?MAIN
            BIT     0021H.4   0000H.2   UNIT         ?BI?UART
            BIT     0021H.6   0000H.1   UNIT         ?BI?EEPROM
                    0021H.7   0000H.1                *** GAP ***
            IDATA   0022H     0064H     UNIT         ?ID?MAIN
            IDATA   0086H     0001H     UNIT         ?STACK

            * * * * * * *  X D A T A   M E M O R Y  * * * * * * *
            XDATA   0000H     00CBH     UNIT         _XDATA_GROUP_
            XDATA   00CBH     0070H     UNIT         ?XD?MAIN
            XDATA   013BH     0054H     UNIT         ?XD?VERIFICADOR
            XDATA   018FH     004BH     UNIT         ?XD?PROG
            XDATA   01DAH     001EH     UNIT         ?XD?PTO_PARALELO
            XDATA   01F8H     0003H     UNIT         ?XD?_VALIDA_TRAMA_MONITOR?ACCESCAN
            XDATA   01FBH     0003H     UNIT         ?XD?EEPROM
            XDATA   01FEH     0003H     UNIT         ?XD?UART
            XDATA   0201H     0003H     UNIT         ?XD?STRTOK
            XDATA   0204H     0002H     UNIT         ?XD?ACCESCAN
            XDATA   0206H     0001H     UNIT         ?XD?CLOCK
            XDATA   0207H     0001H     UNIT         ?XD?IO_SENSORES
            XDATA   0208H     0001H     UNIT         ?XD?PANTALLAS

            * * * * * * *   C O D E   M E M O R Y   * * * * * * *
            CODE    0000H     0003H     ABSOLUTE     
            CODE    0003H     0008H     UNIT         ?PR?P_CK?CLOCK
            CODE    000BH     0003H     ABSOLUTE     
            CODE    000EH     0015H     UNIT         ?PR?_STRLEN?STRLEN
            CODE    0023H     0003H     ABSOLUTE     
BL51 BANKED LINKER/LOCATER V6.22.2.0                                                  09/02/2020  07:28:03  PAGE 3


            CODE    0026H     0F02H     UNIT         ?CO?PROG
            CODE    0F28H     0B55H     UNIT         ?C?LIB_CODE
            CODE    1A7DH     0A89H     UNIT         ?PR?SECUENCIAEXPEDIDOR?VERIFICADOR
            CODE    2506H     0665H     UNIT         ?CO?VERIFICADOR
            CODE    2B6BH     0537H     UNIT         ?PR?_ANALIZA_TIEMPO?CLOCK
            CODE    30A2H     0483H     UNIT         ?PR?PRINTF?PRINTF
            CODE    3525H     0431H     UNIT         ?CO?PANTALLAS
            CODE    3956H     0368H     UNIT         ?PR?_PANTALLALCD?PANTALLAS
            CODE    3CBEH     0337H     UNIT         ?PR?_CMD_LPR_SALIDA?ACCESCAN
            CODE    3FF5H     0311H     UNIT         ?PR?_VALIDA_TRAMA_PTO?ACCESCAN
            CODE    4306H     02F5H     UNIT         ?PR?VER_PROG?PROG
            CODE    45FBH     02D0H     UNIT         ?PR?_TWO_BYTEHEX_DECIMAL?CLOCK
            CODE    48CBH     02CDH     UNIT         ?PR?_TRAMA_PTO_PARALELO_NEW?PTO_PARALELO
            CODE    4B98H     02B7H     UNIT         ?PR?_PROG_HORARIO_DIAS?PROG
            CODE    4E4FH     0208H     UNIT         ?PR?MENU?PROG
            CODE    5057H     01FEH     UNIT         ?PR?_HASH_ID?PROG
            CODE    5255H     01FAH     UNIT         ?PR?_PROG_HORARIO_DESDE_HASTA?PROG
            CODE    544FH     01F5H     UNIT         ?PR?PROG_FECHA_VENCIMIENTO?PROG
            CODE    5644H     01B3H     UNIT         ?PR?COM_ISR?UART
            CODE    57F7H     01A1H     UNIT         ?PR?_RESPONDE_LECTURA_TARJETA_SECTOR1_BLOQUE2?VERIFICADOR
            CODE    5998H     018CH     UNIT         ?PR?_WR_MF?LINTECH
            CODE    5B24H     0179H     UNIT         ?PR?_CHECK_FECHAOUT?CLOCK
            CODE    5C9DH     016EH     UNIT         ?PR?_BLOCK_READ_CLOCK_ASCII?CLOCK
            CODE    5E0BH     0166H     UNIT         ?PR?_POW?POW
            CODE    5F71H     0162H     UNIT         ?PR?_PANTALLALCD_LINEA_2?PANTALLAS
            CODE    60D3H     0161H     UNIT         ?CO?LINTECH
            CODE    6234H     0146H     UNIT         ?PR?_RESPONDE_LECTURA_TARJETA_SECTOR1_BLOQUE1?VERIFICADOR
            CODE    637AH     0145H     UNIT         ?PR?PROG_HORARIOS?PROG
            CODE    64BFH     0140H     UNIT         ?PR?SECUENCIA_INICIO_EXPEDIDOR?VERIFICADOR
            CODE    65FFH     013EH     UNIT         ?PR?PROG_SIN_COBRO?PROG
            CODE    673DH     0137H     UNIT         ?PR?VER_HORARIO?PROG
            CODE    6874H     0129H     UNIT         ?PR?LOG?LOG
            CODE    699DH     0128H     UNIT         ?PR?_VER_HORARIO_DIAS?PROG
            CODE    6AC5H     011AH     UNIT         ?PR?_PROG_HORARIOS_ON_OFF?PROG
            CODE    6BDFH     0119H     UNIT         ?PR?_VER_HORARIO_DESDE_HASTA?PROG
            CODE    6CF8H     0115H     UNIT         ?PR?_VALIDAR_CLK?CLOCK
            CODE    6E0DH     0115H     UNIT         ?PR?_RESPONDE_LECTURA_TARJETA_SECTOR1_BLOQUE0?VERIFICADOR
            CODE    6F22H     0110H     UNIT         ?PR?LOAD_AND_SEND_ID_COD?PTO_PARALELO
            CODE    7032H     00FFH     UNIT         ?PR?_TRAMA_PTO_PARALELO_P?PTO_PARALELO
            CODE    7131H     00FEH     UNIT         ?PR?_ARMAR_TRAMA_PTO_PARALELO_EXPEDIDOR_MENSUAL?VERIFICADOR
            CODE    722FH     00FCH     UNIT         ?PR?PROG_DEBUG?PROG
            CODE    732BH     00FCH     UNIT         ?PR?PROG_USE_LPR?PROG
            CODE    7427H     00FCH     UNIT         ?PR?PROG_COMPARACION_ACTIVA?PROG
            CODE    7523H     00FCH     UNIT         ?PR?TIPO_PANTALLA?PROG
            CODE    761FH     00FCH     UNIT         ?PR?DCTO_CAJA?PROG
            CODE    771BH     00F9H     UNIT         ?PR?_BLOQUE_HORARIO?VERIFICADOR
            CODE    7814H     00F1H     UNIT         ?PR?_HORARIOS?VERIFICADOR
            CODE    7905H     00EAH     UNIT         ?PR?_MOV_CARD?LINTECH
            CODE    79EFH     00E4H     UNIT         ?PR?_STRTOK?STRTOK
            CODE    7AD3H     00DBH     UNIT         ?PR?_ATOI?ATOI
            CODE    7BAEH     00D7H     UNIT         ?PR?_ANALIZA_UID_CARD?VERIFICADOR
            CODE    7C85H     00D6H     UNIT         ?PR?_CMD_LPR_SALIDA_WIEGAND?ACCESCAN
            CODE    7D5BH     00C4H     UNIT         ?PR?_BLOCK_READ_CLOCK?CLOCK
            CODE    7E1FH     00C3H     UNIT         ?PR?_RD_MF?LINTECH
            CODE    7EE2H     00BDH     UNIT         ?PR?PROG_COD_PARK?PROG
            CODE    7F9FH     00BDH     UNIT         ?PR?PROG_TIEMPO_GRACIA?PROG
            CODE    805CH     00BBH     UNIT         ?PR?_CHECK_FECHAOUT_2?CLOCK
BL51 BANKED LINKER/LOCATER V6.22.2.0                                                  09/02/2020  07:28:03  PAGE 4


            CODE    8117H     00B6H     UNIT         ?PR?PROG_ID_CLIENTE?PROG
            CODE    81CDH     00B4H     UNIT         ?PR?_SEND_PORT?PTO_PARALELO
            CODE    8281H     00B1H     UNIT         ?C_INITSEG
            CODE    8332H     00AFH     UNIT         ?PR?ERROR_RX_PTO?VERIFICADOR
            CODE    83E1H     00ACH     UNIT         ?PR?_HORA_MAXIMA?VERIFICADOR
            CODE    848DH     00A9H     UNIT         ?PR?DWLOAD_EEPROM?LINTECH
            CODE    8536H     00A7H     UNIT         ?CO?TIBBO
            CODE    85DDH     00A6H     UNIT         ?PR?_BLOCK_READ_CLOCK_HEX?CLOCK
            CODE    8683H     00A6H     UNIT         ?PR?_DEBUG_FECHA_ACTUAL?TIBBO
            CODE    8729H     00A0H     UNIT         ?CO?IO_SENSORES
            CODE    87C9H     009DH     UNIT         ?PR?_INICIALIZA?LINTECH
            CODE    8866H     009CH     UNIT         ?PR?_RECIBE_PORT?PTO_PARALELO
            CODE    8902H     009AH     UNIT         ?PR?EXP?EXP
            CODE    899CH     0095H     UNIT         ?PR?_RECIBE_CMD_MONITOR?ACCESCAN
            CODE    8A31H     0095H     UNIT         ?PR?_VALIDA_TRAMA_MONITOR?ACCESCAN
            CODE    8AC6H     0091H     UNIT         ?PR?_HEX_ASCII?CLOCK
            CODE    8B57H     0091H     UNIT         ?PR?_CARD_INSERCION?LINTECH
            CODE    8BE8H     0091H     UNIT         ?PR?LOADVERIFY_EEPROM?LINTECH
            CODE    8C79H     0090H     UNIT         ?PR?_LEE_CLK?CLOCK
            CODE    8D09H     0090H     UNIT         ?PR?_GETOPTION?PROG
            CODE    8D99H     008FH     UNIT         ?PR?_BLOCK_WRITE_CLOCK_ASCII?CLOCK
            CODE    8E28H     008CH     UNIT         ?C_C51STARTUP
            CODE    8EB4H     0088H     UNIT         ?PR?_SEND_PORTERR?PTO_PARALELO
            CODE    8F3CH     0088H     UNIT         ?PR?RX_DATA?TIBBO
            CODE    8FC4H     0088H     UNIT         ?PR?UNIQUE_IDENTIFIER_UID?LINTECH
            CODE    904CH     0085H     UNIT         ?PR?MAIN?MAIN
            CODE    90D1H     0084H     UNIT         ?PR?_STRSPN?STRSPN
            CODE    9155H     0081H     UNIT         ?PR?_STRPBRK?STRPBRK
            CODE    91D6H     0080H     UNIT         ?PR?MSJ_LCD_INFORMATIVO?IO_SENSORES
            CODE    9256H     0080H     UNIT         ?PR?_INGRESADATO?PROG
            CODE    92D6H     0080H     UNIT         ?PR?AUT_CARD_CHECK_STATUS?LINTECH
            CODE    9356H     0080H     UNIT         ?PR?POWER_OFF?LINTECH
            CODE    93D6H     007CH     UNIT         ?PR?_CHECK_STATUS?LINTECH
            CODE    9452H     0075H     UNIT         ?PR?SHOW?PROG
            CODE    94C7H     0073H     UNIT         ?PR?VALIDASENSORESPASO?IO_SENSORES
            CODE    953AH     0073H     UNIT         ?PR?_DEBUGBUFFERMF?TIBBO
            CODE    95ADH     0071H     UNIT         ?PR?_EN_HORARIO?VERIFICADOR
            CODE    961EH     006FH     UNIT         ?PR?_ESCRIBIRMEMORIA?EEPROM
            CODE    968DH     006BH     UNIT         ?PR?_STRCAT?STRCAT
            CODE    96F8H     0066H     UNIT         ?PR?_LEERMEMORIA?EEPROM
            CODE    975EH     0062H     UNIT         ?PR?_LISTACOMANDOS?PROG
            CODE    97C0H     005EH     UNIT         ?PR?_BYTEHEX_DECIMAL?CLOCK
            CODE    981EH     005BH     UNIT         ?PR?_RASPBERRY_DATA?PANTALLAS
            CODE    9879H     0057H     UNIT         ?PR?RELOJ_PANTALLA_LCD?PANTALLAS
            CODE    98D0H     0056H     UNIT         ?PR?_WR_EEPROM?EEPROM
            CODE    9926H     0056H     UNIT         ?PR?VARIABLE_INICIO?EEPROM
            CODE    997CH     004DH     UNIT         ?PR?L_D_M?EEPROM
            CODE    99C9H     004BH     UNIT         ?PR?_TX_AUX?TIBBO
            CODE    9A14H     0048H     UNIT         ?PR?FIRST_CLAVE?PROG
            CODE    9A5CH     0048H     UNIT         ?PR?_DEBUG_PTO_PARALELO?TIBBO
            CODE    9AA4H     0047H     UNIT         ?PR?_DEBUG_CHR_TIBBO?TIBBO
            CODE    9AEBH     0046H     UNIT         ?PR?_ESCRIBIRCADENASOFT_BUFFER?MAIN
            CODE    9B31H     0046H     UNIT         ?PR?_LCD_TXT_NUM_CHAR?PANTALLAS
            CODE    9B77H     0046H     UNIT         ?PR?_DEBUG_HEXDEC?TIBBO
            CODE    9BBDH     0044H     UNIT         ?PR?_LCD_TXT?PANTALLAS
            CODE    9C01H     0044H     UNIT         ?PR?_DEBUG_TXT_TIBBO?TIBBO
            CODE    9C45H     0042H     UNIT         ?PR?_VALIDARCLAVE?PROG
BL51 BANKED LINKER/LOCATER V6.22.2.0                                                  09/02/2020  07:28:03  PAGE 5


            CODE    9C87H     0041H     UNIT         ?PR?_MONITOR_CHR?ACCESCAN
            CODE    9CC8H     0041H     UNIT         ?PR?_TWO_ONE?CLOCK
            CODE    9D09H     0040H     UNIT         ?PR?_GETCMD?PROG
            CODE    9D49H     003FH     UNIT         ?PR?_EB_CLK?CLOCK
            CODE    9D88H     003EH     UNIT         ?PR?_PUTCHAR?MAIN
            CODE    9DC6H     003DH     UNIT         ?PR?_HEX_BCD?CLOCK
            CODE    9E03H     003DH     UNIT         ?PR?_RD_EEPROM?EEPROM
            CODE    9E40H     003BH     UNIT         ?PR?_COM_PUTCHAR?UART
            CODE    9E7BH     003AH     UNIT         ?PR?_DELAY_10MS?DELAY
            CODE    9EB5H     0037H     UNIT         ?PR?TIMER0_INT?MAIN
            CODE    9EECH     0034H     UNIT         ?PR?ADDR_HORARIOS?PROG
            CODE    9F20H     002CH     UNIT         ?PR?LOAD_AND_SEND_INFO_RELOJ?PTO_PARALELO
            CODE    9F4CH     002AH     UNIT         ?PR?COM_INITIALIZE?UART
            CODE    9F76H     0028H     UNIT         ?PR?_WR_CLK?CLOCK
            CODE    9F9EH     0028H     UNIT         ?PR?COM_BAUDRATE?UART
            CODE    9FC6H     0027H     UNIT         ?PR?_TX_CHRLCD?PANTALLAS
            CODE    9FEDH     0026H     UNIT         ?PR?COM_GETCHAR?UART
            CODE    A013H     0024H     UNIT         ?PR?TRAMA_VALIDACION_P_N?VERIFICADOR
            CODE    A037H     0022H     UNIT         ?PR?_E_D_M?EEPROM
            CODE    A059H     0020H     UNIT         ?PR?ACKD?EEPROM
            CODE    A079H     0020H     UNIT         ?PR?ACK_LECT?EEPROM
            CODE    A099H     001FH     UNIT         ?PR?VALIDASENSOR?IO_SENSORES
            CODE    A0B8H     001FH     UNIT         ?PR?VALIDASENSORES_OUT?IO_SENSORES
            CODE    A0D7H     001FH     UNIT         ?PR?TIME_BIT?TIBBO
            CODE    A0F6H     001EH     UNIT         ?PR?_BCD_HEX?CLOCK
            CODE    A114H     001DH     UNIT         ?CO?PTO_PARALELO
            CODE    A131H     001BH     UNIT         ?PR?_DELAY_1MS?DELAY
            CODE    A14CH     0018H     UNIT         ?PR?CLEAR_PLACA?ACCESCAN
            CODE    A164H     0017H     UNIT         ?PR?DISPLAYCURSOR?PROG
            CODE    A17BH     0017H     UNIT         ?PR?TIME_MBIT?TIBBO
            CODE    A192H     0014H     UNIT         ?PR?_ISSPACE?ISSPACE
            CODE    A1A6H     0012H     UNIT         ?PR?_DELAY_20US?DELAY
            CODE    A1B8H     0012H     UNIT         ?PR?START?EEPROM
            CODE    A1CAH     0012H     UNIT         ?PR?DIR_BOARD?IO_SENSORES
            CODE    A1DCH     0012H     UNIT         ?PR?PULSO_BUS?PTO_PARALELO
            CODE    A1EEH     0012H     UNIT         ?PR?COM_RBUFLEN?UART
            CODE    A200H     0012H     UNIT         ?PR?COM_TBUFLEN?UART
            CODE    A212H     0010H     UNIT         ?PR?INI_TIMER?MAIN
            CODE    A222H     0010H     UNIT         ?PR?INICIA_BOARD?MAIN
            CODE    A232H     000FH     UNIT         ?PR?_ISDIGIT?ISDIGIT
            CODE    A241H     000CH     UNIT         ?PR?_GETKEY?MAIN
            CODE    A24DH     000AH     UNIT         ?PR?COND_INI_PTO?PTO_PARALELO
            CODE    A257H     0009H     UNIT         ?PR?STOP?EEPROM
            CODE    A260H     0009H     UNIT         ?PR?DEBUG_DIVIDIR_TEXTO?TIBBO
            CODE    A269H     0007H     UNIT         ?PR?COND_INI_CLOCK?CLOCK
            CODE    A270H     0007H     UNIT         ?PR?SEL_FUNCION?IO_SENSORES
            CODE    A277H     0007H     UNIT         ?PR?SEL_AUTO?IO_SENSORES
            CODE    A27EH     0007H     UNIT         ?PR?SEL_SENSOR2?IO_SENSORES
            CODE    A285H     0007H     UNIT         ?PR?SEL_SENSOR1?IO_SENSORES
            CODE    A28CH     0007H     UNIT         ?PR?SEL_DIR1?IO_SENSORES
            CODE    A293H     0007H     UNIT         ?PR?SEL_DIR2?IO_SENSORES
            CODE    A29AH     0006H     UNIT         ?PR?P_ME?EEPROM
            CODE    A2A0H     0005H     UNIT         ?PR?ON_TIMER0_INTERRUP?MAIN
            CODE    A2A5H     0005H     UNIT         ?CO?ACCESCAN
            CODE    A2AAH     0005H     UNIT         ?PR?COND_INI_TIBBO?TIBBO
            CODE    A2AFH     0003H     UNIT         ?PR?OFF_TIMER0_INTERRUP?MAIN
            CODE    A2B2H     0001H     UNIT         ?PR?DELAY?DELAY
BL51 BANKED LINKER/LOCATER V6.22.2.0                                                  09/02/2020  07:28:03  PAGE 6





OVERLAY MAP OF MODULE:   .\Objects\verificador_v_01_raspberry (MAIN)


SEGMENT                                             BIT_GROUP          DATA_GROUP          XDATA_GROUP
  +--> CALLED SEGMENT                            START    LENGTH     START    LENGTH     START    LENGTH
--------------------------------------------------------------------------------------------------------
?C_C51STARTUP                                    -----    -----      -----    -----      -----    -----
  +--> ?PR?MAIN?MAIN
  +--> ?C_INITSEG

?PR?MAIN?MAIN                                    -----    -----      -----    -----      0000H    0001H
  +--> ?PR?INI_TIMER?MAIN
  +--> ?PR?ON_TIMER0_INTERRUP?MAIN
  +--> ?PR?COM_INITIALIZE?UART
  +--> ?PR?COM_BAUDRATE?UART
  +--> ?PR?INICIA_BOARD?MAIN
  +--> ?PR?TIME_BIT?TIBBO
  +--> ?PR?_DELAY_20US?DELAY
  +--> ?PR?TIME_MBIT?TIBBO
  +--> ?PR?_TX_AUX?TIBBO
  +--> ?PR?SEL_FUNCION?IO_SENSORES
  +--> ?PR?MENU?PROG
  +--> ?PR?VARIABLE_INICIO?EEPROM
  +--> ?PR?SECUENCIA_INICIO_EXPEDIDOR?VERIFI...
  +--> ?PR?_RECIBE_CMD_MONITOR?ACCESCAN
  +--> ?PR?SECUENCIAEXPEDIDOR?VERIFICADOR
  +--> ?PR?_RECIBE_PORT?PTO_PARALELO
  +--> ?PR?_VALIDA_TRAMA_PTO?ACCESCAN
  +--> ?PR?_DEBUG_PTO_PARALELO?TIBBO
  +--> ?PR?MSJ_LCD_INFORMATIVO?IO_SENSORES

?PR?COM_INITIALIZE?UART                          -----    -----      -----    -----      -----    -----
  +--> ?PR?COM_BAUDRATE?UART

?PR?INICIA_BOARD?MAIN                            -----    -----      -----    -----      -----    -----
  +--> ?PR?COND_INI_TIBBO?TIBBO
  +--> ?PR?COND_INI_CLOCK?CLOCK
  +--> ?PR?COND_INI_PTO?PTO_PARALELO

?PR?_TX_AUX?TIBBO                                -----    -----      -----    -----      -----    -----
  +--> ?PR?TIME_BIT?TIBBO

?PR?MENU?PROG                                    -----    -----      -----    -----      0001H    0059H
  +--> ?CO?PROG
  +--> ?PR?PRINTF?PRINTF
  +--> ?PR?_RD_EEPROM?EEPROM
  +--> ?PR?FIRST_CLAVE?PROG
  +--> ?PR?_WR_EEPROM?EEPROM
  +--> ?PR?_LEERMEMORIA?EEPROM
  +--> ?PR?_HASH_ID?PROG
  +--> ?PR?_INGRESADATO?PROG
  +--> ?PR?_GETCMD?PROG
  +--> ?PR?_ESCRIBIRMEMORIA?EEPROM
  +--> ?PR?_VALIDARCLAVE?PROG
BL51 BANKED LINKER/LOCATER V6.22.2.0                                                  09/02/2020  07:28:03  PAGE 7


  +--> ?PR?DISPLAYCURSOR?PROG
  +--> ?PR?_STRLEN?STRLEN
  +--> ?PR?_GETOPTION?PROG
  +--> ?PR?_STRCAT?STRCAT
  +--> ?PR?_LISTACOMANDOS?PROG
  +--> ?PR?PROG_ID_CLIENTE?PROG
  +--> ?PR?PROG_COD_PARK?PROG
  +--> ?PR?PROG_TIEMPO_GRACIA?PROG
  +--> ?PR?PROG_SIN_COBRO?PROG
  +--> ?PR?PROG_DEBUG?PROG
  +--> ?PR?PROG_USE_LPR?PROG
  +--> ?PR?PROG_COMPARACION_ACTIVA?PROG
  +--> ?PR?TIPO_PANTALLA?PROG
  +--> ?PR?DCTO_CAJA?PROG
  +--> ?PR?PROG_HORARIOS?PROG
  +--> ?PR?VER_PROG?PROG
  +--> ?PR?SHOW?PROG
  +--> ?PR?PROG_FECHA_VENCIMIENTO?PROG

?PR?PRINTF?PRINTF                                0020H.0  0001H.1    0008H    0005H      008BH    0030H
  +--> ?PR?_PUTCHAR?MAIN

?PR?_PUTCHAR?MAIN                                -----    -----      -----    -----      00BBH    0003H
  +--> ?PR?_COM_PUTCHAR?UART

?PR?_COM_PUTCHAR?UART                            -----    -----      -----    -----      00BEH    0001H
  +--> ?PR?COM_TBUFLEN?UART

?PR?_RD_EEPROM?EEPROM                            -----    -----      -----    -----      -----    -----
  +--> ?PR?START?EEPROM
  +--> ?PR?ACK_LECT?EEPROM
  +--> ?PR?_E_D_M?EEPROM
  +--> ?PR?ACKD?EEPROM
  +--> ?PR?L_D_M?EEPROM
  +--> ?PR?STOP?EEPROM

?PR?ACK_LECT?EEPROM                              -----    -----      -----    -----      -----    -----
  +--> ?PR?_E_D_M?EEPROM

?PR?_E_D_M?EEPROM                                -----    -----      -----    -----      -----    -----
  +--> ?PR?P_ME?EEPROM

?PR?ACKD?EEPROM                                  -----    -----      -----    -----      -----    -----
  +--> ?PR?_E_D_M?EEPROM

?PR?FIRST_CLAVE?PROG                             -----    -----      -----    -----      005AH    000BH
  +--> ?PR?_BLOCK_READ_CLOCK_ASCII?CLOCK
  +--> ?PR?_HASH_ID?PROG
  +--> ?PR?_ESCRIBIRMEMORIA?EEPROM

?PR?_BLOCK_READ_CLOCK_ASCII?CLOCK                -----    -----      -----    -----      0065H    0003H
  +--> ?PR?_LEE_CLK?CLOCK

?PR?_LEE_CLK?CLOCK                               -----    -----      -----    -----      00C5H    0003H
  +--> ?PR?_DELAY_20US?DELAY
  +--> ?PR?_EB_CLK?CLOCK
  +--> ?PR?P_CK?CLOCK
BL51 BANKED LINKER/LOCATER V6.22.2.0                                                  09/02/2020  07:28:03  PAGE 8



?PR?_EB_CLK?CLOCK                                -----    -----      -----    -----      00C8H    0003H
  +--> ?PR?P_CK?CLOCK

?PR?P_CK?CLOCK                                   -----    -----      -----    -----      -----    -----
  +--> ?PR?DELAY?DELAY

?PR?_HASH_ID?PROG                                -----    -----      -----    -----      0071H    003FH
  +--> ?CO?PROG
  +--> ?PR?_LEERMEMORIA?EEPROM
  +--> ?PR?_CHECK_FECHAOUT_2?CLOCK
  +--> ?PR?_STRLEN?STRLEN

?PR?_LEERMEMORIA?EEPROM                          -----    -----      -----    -----      00B0H    0005H
  +--> ?PR?_RD_EEPROM?EEPROM

?PR?_CHECK_FECHAOUT_2?CLOCK                      -----    -----      -----    -----      00B0H    0012H
  +--> ?PR?_BLOCK_READ_CLOCK_HEX?CLOCK

?PR?_BLOCK_READ_CLOCK_HEX?CLOCK                  -----    -----      -----    -----      00C2H    0003H
  +--> ?PR?_LEE_CLK?CLOCK
  +--> ?PR?_BCD_HEX?CLOCK

?PR?_ESCRIBIRMEMORIA?EEPROM                      -----    -----      -----    -----      0071H    0005H
  +--> ?PR?_WR_EEPROM?EEPROM

?PR?_WR_EEPROM?EEPROM                            -----    -----      -----    -----      -----    -----
  +--> ?PR?START?EEPROM
  +--> ?PR?ACKD?EEPROM
  +--> ?PR?_E_D_M?EEPROM
  +--> ?PR?STOP?EEPROM
  +--> ?PR?_DELAY_1MS?DELAY
  +--> ?PR?_DELAY_20US?DELAY

?PR?_DELAY_1MS?DELAY                             -----    -----      -----    -----      -----    -----
  +--> ?PR?_DELAY_20US?DELAY

?PR?_INGRESADATO?PROG                            -----    -----      -----    -----      0085H    0004H
  +--> ?PR?_GETKEY?MAIN
  +--> ?CO?PROG
  +--> ?PR?PRINTF?PRINTF
  +--> ?PR?_PUTCHAR?MAIN

?PR?_GETKEY?MAIN                                 -----    -----      -----    -----      -----    -----
  +--> ?PR?COM_GETCHAR?UART

?PR?COM_GETCHAR?UART                             -----    -----      -----    -----      -----    -----
  +--> ?PR?COM_RBUFLEN?UART

?PR?_GETCMD?PROG                                 -----    -----      -----    -----      0071H    0007H
  +--> ?CO?PROG
  +--> ?PR?_STRTOK?STRTOK

?PR?_STRTOK?STRTOK                               -----    -----      -----    -----      0078H    0006H
  +--> ?PR?_STRSPN?STRSPN
  +--> ?PR?_STRPBRK?STRPBRK

BL51 BANKED LINKER/LOCATER V6.22.2.0                                                  09/02/2020  07:28:03  PAGE 9


?PR?_STRSPN?STRSPN                               -----    -----      -----    -----      007EH    0008H

?PR?_STRPBRK?STRPBRK                             -----    -----      -----    -----      007EH    0009H

?PR?_VALIDARCLAVE?PROG                           -----    -----      -----    -----      0071H    000AH

?PR?DISPLAYCURSOR?PROG                           -----    -----      -----    -----      -----    -----
  +--> ?CO?PROG
  +--> ?PR?PRINTF?PRINTF

?PR?_GETOPTION?PROG                              -----    -----      -----    -----      005AH    000BH
  +--> ?CO?PROG
  +--> ?PR?_STRTOK?STRTOK

?PR?_STRCAT?STRCAT                               -----    -----      -----    -----      005AH    0009H

?PR?_LISTACOMANDOS?PROG                          -----    -----      -----    -----      005AH    0007H

?PR?PROG_ID_CLIENTE?PROG                         -----    -----      -----    -----      005AH    000CH
  +--> ?PR?_RD_EEPROM?EEPROM
  +--> ?CO?PROG
  +--> ?PR?PRINTF?PRINTF
  +--> ?PR?_INGRESADATO?PROG
  +--> ?PR?_ATOI?ATOI
  +--> ?PR?_WR_EEPROM?EEPROM

?PR?_ATOI?ATOI                                   0020H.0  0000H.1    -----    -----      0085H    0005H
  +--> ?PR?_ISSPACE?ISSPACE
  +--> ?PR?_ISDIGIT?ISDIGIT

?PR?PROG_COD_PARK?PROG                           -----    -----      -----    -----      005AH    000CH
  +--> ?PR?_RD_EEPROM?EEPROM
  +--> ?CO?PROG
  +--> ?PR?PRINTF?PRINTF
  +--> ?PR?_INGRESADATO?PROG
  +--> ?PR?_ATOI?ATOI
  +--> ?PR?_WR_EEPROM?EEPROM

?PR?PROG_TIEMPO_GRACIA?PROG                      -----    -----      -----    -----      005AH    000CH
  +--> ?PR?_RD_EEPROM?EEPROM
  +--> ?CO?PROG
  +--> ?PR?PRINTF?PRINTF
  +--> ?PR?_INGRESADATO?PROG
  +--> ?PR?_ATOI?ATOI
  +--> ?PR?_WR_EEPROM?EEPROM

?PR?PROG_SIN_COBRO?PROG                          -----    -----      -----    -----      005AH    000CH
  +--> ?PR?_RD_EEPROM?EEPROM
  +--> ?CO?PROG
  +--> ?PR?PRINTF?PRINTF
  +--> ?PR?_INGRESADATO?PROG
  +--> ?PR?_ATOI?ATOI
  +--> ?PR?_WR_EEPROM?EEPROM

?PR?PROG_DEBUG?PROG                              -----    -----      -----    -----      005AH    000CH
  +--> ?PR?_RD_EEPROM?EEPROM
  +--> ?CO?PROG
BL51 BANKED LINKER/LOCATER V6.22.2.0                                                  09/02/2020  07:28:03  PAGE 10


  +--> ?PR?PRINTF?PRINTF
  +--> ?PR?_INGRESADATO?PROG
  +--> ?PR?_ATOI?ATOI
  +--> ?PR?_WR_EEPROM?EEPROM

?PR?PROG_USE_LPR?PROG                            -----    -----      -----    -----      005AH    000CH
  +--> ?PR?_RD_EEPROM?EEPROM
  +--> ?CO?PROG
  +--> ?PR?PRINTF?PRINTF
  +--> ?PR?_INGRESADATO?PROG
  +--> ?PR?_ATOI?ATOI
  +--> ?PR?_WR_EEPROM?EEPROM

?PR?PROG_COMPARACION_ACTIVA?PROG                 -----    -----      -----    -----      005AH    000CH
  +--> ?PR?_RD_EEPROM?EEPROM
  +--> ?CO?PROG
  +--> ?PR?PRINTF?PRINTF
  +--> ?PR?_INGRESADATO?PROG
  +--> ?PR?_ATOI?ATOI
  +--> ?PR?_WR_EEPROM?EEPROM

?PR?TIPO_PANTALLA?PROG                           -----    -----      -----    -----      005AH    000CH
  +--> ?PR?_RD_EEPROM?EEPROM
  +--> ?CO?PROG
  +--> ?PR?PRINTF?PRINTF
  +--> ?PR?_INGRESADATO?PROG
  +--> ?PR?_ATOI?ATOI
  +--> ?PR?_WR_EEPROM?EEPROM

?PR?DCTO_CAJA?PROG                               -----    -----      -----    -----      005AH    000CH
  +--> ?PR?_RD_EEPROM?EEPROM
  +--> ?CO?PROG
  +--> ?PR?PRINTF?PRINTF
  +--> ?PR?_INGRESADATO?PROG
  +--> ?PR?_ATOI?ATOI
  +--> ?PR?_WR_EEPROM?EEPROM

?PR?PROG_HORARIOS?PROG                           -----    -----      -----    -----      005AH    001BH
  +--> ?PR?ADDR_HORARIOS?PROG
  +--> ?CO?PROG
  +--> ?PR?PRINTF?PRINTF
  +--> ?PR?_INGRESADATO?PROG
  +--> ?PR?_ATOI?ATOI
  +--> ?PR?_PROG_HORARIOS_ON_OFF?PROG
  +--> ?PR?_WR_EEPROM?EEPROM
  +--> ?PR?_PROG_HORARIO_DIAS?PROG
  +--> ?PR?_PROG_HORARIO_DESDE_HASTA?PROG
  +--> ?PR?_RD_EEPROM?EEPROM

?PR?ADDR_HORARIOS?PROG                           -----    -----      -----    -----      0088H    000BH

?PR?_PROG_HORARIOS_ON_OFF?PROG                   -----    -----      -----    -----      0075H    0010H
  +--> ?PR?_RD_EEPROM?EEPROM
  +--> ?CO?PROG
  +--> ?PR?PRINTF?PRINTF
  +--> ?PR?_INGRESADATO?PROG
  +--> ?PR?_ATOI?ATOI
BL51 BANKED LINKER/LOCATER V6.22.2.0                                                  09/02/2020  07:28:03  PAGE 11


  +--> ?PR?_WR_EEPROM?EEPROM

?PR?_PROG_HORARIO_DIAS?PROG                      -----    -----      -----    -----      0075H    000FH
  +--> ?CO?PROG
  +--> ?PR?PRINTF?PRINTF
  +--> ?PR?_INGRESADATO?PROG
  +--> ?PR?_WR_EEPROM?EEPROM
  +--> ?PR?_RD_EEPROM?EEPROM

?PR?_PROG_HORARIO_DESDE_HASTA?PROG               -----    -----      -----    -----      0075H    000CH
  +--> ?CO?PROG
  +--> ?PR?PRINTF?PRINTF
  +--> ?PR?_INGRESADATO?PROG
  +--> ?PR?_WR_EEPROM?EEPROM
  +--> ?PR?_RD_EEPROM?EEPROM

?PR?VER_PROG?PROG                                -----    -----      -----    -----      005AH    0013H
  +--> ?PR?_RD_EEPROM?EEPROM
  +--> ?CO?PROG
  +--> ?PR?PRINTF?PRINTF
  +--> ?PR?VER_HORARIO?PROG
  +--> ?PR?_LEERMEMORIA?EEPROM
  +--> ?PR?_HEX_ASCII?CLOCK

?PR?VER_HORARIO?PROG                             -----    -----      -----    -----      006DH    001BH
  +--> ?PR?ADDR_HORARIOS?PROG
  +--> ?CO?PROG
  +--> ?PR?PRINTF?PRINTF
  +--> ?PR?_RD_EEPROM?EEPROM
  +--> ?PR?_VER_HORARIO_DIAS?PROG
  +--> ?PR?_VER_HORARIO_DESDE_HASTA?PROG

?PR?_VER_HORARIO_DIAS?PROG                       -----    -----      -----    -----      0088H    0003H
  +--> ?PR?_RD_EEPROM?EEPROM
  +--> ?CO?PROG
  +--> ?PR?PRINTF?PRINTF

?PR?_VER_HORARIO_DESDE_HASTA?PROG                -----    -----      -----    -----      0088H    0002H
  +--> ?CO?PROG
  +--> ?PR?PRINTF?PRINTF
  +--> ?PR?_RD_EEPROM?EEPROM

?PR?_HEX_ASCII?CLOCK                             -----    -----      -----    -----      0071H    0006H
  +--> ?PR?_HEX_BCD?CLOCK

?PR?SHOW?PROG                                    -----    -----      -----    -----      -----    -----
  +--> ?CO?PROG
  +--> ?PR?PRINTF?PRINTF

?PR?PROG_FECHA_VENCIMIENTO?PROG                  -----    -----      -----    -----      005AH    0017H
  +--> ?PR?_LEERMEMORIA?EEPROM
  +--> ?PR?_HEX_ASCII?CLOCK
  +--> ?CO?PROG
  +--> ?PR?PRINTF?PRINTF
  +--> ?PR?_HASH_ID?PROG
  +--> ?PR?_INGRESADATO?PROG
  +--> ?PR?_GETCMD?PROG
BL51 BANKED LINKER/LOCATER V6.22.2.0                                                  09/02/2020  07:28:03  PAGE 12


  +--> ?PR?_ESCRIBIRMEMORIA?EEPROM
  +--> ?PR?_VALIDARCLAVE?PROG
  +--> ?PR?_ATOI?ATOI
  +--> ?PR?_WR_EEPROM?EEPROM

?PR?VARIABLE_INICIO?EEPROM                       -----    -----      -----    -----      -----    -----
  +--> ?PR?_RD_EEPROM?EEPROM

?PR?SECUENCIA_INICIO_EXPEDIDOR?VERIFI...         -----    -----      -----    -----      0001H    0001H
  +--> ?PR?_INICIALIZA?LINTECH
  +--> ?PR?TRAMA_VALIDACION_P_N?VERIFICADOR
  +--> ?CO?VERIFICADOR
  +--> ?PR?_DEBUG_TXT_TIBBO?TIBBO
  +--> ?PR?_DEBUGBUFFERMF?TIBBO
  +--> ?PR?DWLOAD_EEPROM?LINTECH

?PR?_INICIALIZA?LINTECH                          -----    -----      -----    -----      0002H    000CH
  +--> ?CO?LINTECH
  +--> ?PR?_DEBUG_TXT_TIBBO?TIBBO
  +--> ?PR?_DEBUGBUFFERMF?TIBBO
  +--> ?PR?_ESCRIBIRCADENASOFT_BUFFER?MAIN

?PR?_DEBUG_TXT_TIBBO?TIBBO                       -----    -----      -----    -----      004FH    0004H
  +--> ?CO?TIBBO
  +--> ?PR?_TX_AUX?TIBBO

?PR?_DEBUGBUFFERMF?TIBBO                         -----    -----      -----    -----      0049H    0006H
  +--> ?CO?TIBBO
  +--> ?PR?_DEBUG_TXT_TIBBO?TIBBO
  +--> ?PR?_DEBUG_CHR_TIBBO?TIBBO
  +--> ?PR?_TX_AUX?TIBBO

?PR?_DEBUG_CHR_TIBBO?TIBBO                       -----    -----      -----    -----      -----    -----
  +--> ?PR?_TX_AUX?TIBBO

?PR?_ESCRIBIRCADENASOFT_BUFFER?MAIN              -----    -----      -----    -----      0034H    0006H
  +--> ?PR?_PUTCHAR?MAIN

?PR?DWLOAD_EEPROM?LINTECH                        -----    -----      -----    -----      0002H    0016H
  +--> ?CO?LINTECH
  +--> ?PR?_DEBUG_TXT_TIBBO?TIBBO
  +--> ?PR?_DEBUGBUFFERMF?TIBBO
  +--> ?PR?_ESCRIBIRCADENASOFT_BUFFER?MAIN

?PR?_RECIBE_CMD_MONITOR?ACCESCAN                 -----    -----      -----    -----      0001H    0006H
  +--> ?PR?RX_DATA?TIBBO

?PR?RX_DATA?TIBBO                                -----    -----      -----    -----      -----    -----
  +--> ?PR?TIME_MBIT?TIBBO
  +--> ?PR?TIME_BIT?TIBBO

?PR?SECUENCIAEXPEDIDOR?VERIFICADOR               -----    -----      -----    -----      0001H    000DH
  +--> ?PR?_CARD_INSERCION?LINTECH
  +--> ?PR?TRAMA_VALIDACION_P_N?VERIFICADOR
  +--> ?CO?VERIFICADOR
  +--> ?PR?ERROR_RX_PTO?VERIFICADOR
  +--> ?PR?_CHECK_STATUS?LINTECH
BL51 BANKED LINKER/LOCATER V6.22.2.0                                                  09/02/2020  07:28:03  PAGE 13


  +--> ?PR?_DEBUG_TXT_TIBBO?TIBBO
  +--> ?PR?_DEBUGBUFFERMF?TIBBO
  +--> ?PR?VALIDASENSORESPASO?IO_SENSORES
  +--> ?PR?_SEND_PORTERR?PTO_PARALELO
  +--> ?PR?_PANTALLALCD?PANTALLAS
  +--> ?PR?_RD_MF?LINTECH
  +--> ?PR?_RESPONDE_LECTURA_TARJETA_SECTOR1...
  +--> ?PR?_RESPONDE_LECTURA_TARJETA_SECTOR1...
  +--> ?PR?_BLOCK_READ_CLOCK_HEX?CLOCK
  +--> ?PR?_RD_EEPROM?EEPROM
  +--> ?PR?DEBUG_DIVIDIR_TEXTO?TIBBO
  +--> ?PR?_DEBUG_CHR_TIBBO?TIBBO
  +--> ?PR?PRINTF?PRINTF
  +--> ?PR?_ANALIZA_TIEMPO?CLOCK
  +--> ?PR?_CHECK_FECHAOUT?CLOCK
  +--> ?PR?_HORARIOS?VERIFICADOR
  +--> ?PR?_CHECK_FECHAOUT_2?CLOCK
  +--> ?PR?_RESPONDE_LECTURA_TARJETA_SECTOR1...
  +--> ?PR?_WR_MF?LINTECH
  +--> ?PR?_MOV_CARD?LINTECH
  +--> ?PR?VALIDASENSORES_OUT?IO_SENSORES
  +--> ?PR?_TRAMA_PTO_PARALELO_P?PTO_PARALELO
  +--> ?PR?UNIQUE_IDENTIFIER_UID?LINTECH
  +--> ?PR?_ANALIZA_UID_CARD?VERIFICADOR
  +--> ?PR?LOADVERIFY_EEPROM?LINTECH
  +--> ?PR?POWER_OFF?LINTECH
  +--> ?PR?AUT_CARD_CHECK_STATUS?LINTECH

?PR?_CARD_INSERCION?LINTECH                      -----    -----      -----    -----      000EH    000AH
  +--> ?CO?LINTECH
  +--> ?PR?_DEBUG_TXT_TIBBO?TIBBO
  +--> ?PR?_DEBUGBUFFERMF?TIBBO
  +--> ?PR?_ESCRIBIRCADENASOFT_BUFFER?MAIN

?PR?ERROR_RX_PTO?VERIFICADOR                     -----    -----      -----    -----      000EH    0001H
  +--> ?CO?VERIFICADOR
  +--> ?PR?_DEBUG_TXT_TIBBO?TIBBO
  +--> ?PR?_DEBUG_CHR_TIBBO?TIBBO
  +--> ?PR?_DELAY_10MS?DELAY

?PR?_DELAY_10MS?DELAY                            -----    -----      -----    -----      000FH    0004H
  +--> ?PR?_DELAY_1MS?DELAY

?PR?_CHECK_STATUS?LINTECH                        -----    -----      -----    -----      000EH    000BH
  +--> ?CO?LINTECH
  +--> ?PR?_DEBUG_TXT_TIBBO?TIBBO
  +--> ?PR?_DEBUGBUFFERMF?TIBBO
  +--> ?PR?_ESCRIBIRCADENASOFT_BUFFER?MAIN

?PR?VALIDASENSORESPASO?IO_SENSORES               -----    -----      -----    -----      -----    -----
  +--> ?PR?SEL_SENSOR2?IO_SENSORES
  +--> ?PR?VALIDASENSOR?IO_SENSORES
  +--> ?PR?SEL_SENSOR1?IO_SENSORES
  +--> ?PR?SEL_AUTO?IO_SENSORES
  +--> ?CO?IO_SENSORES
  +--> ?PR?_DEBUG_TXT_TIBBO?TIBBO

BL51 BANKED LINKER/LOCATER V6.22.2.0                                                  09/02/2020  07:28:03  PAGE 14


?PR?_SEND_PORTERR?PTO_PARALELO                   -----    -----      -----    -----      0012H    0006H
  +--> ?PR?PULSO_BUS?PTO_PARALELO
  +--> ?PR?_DELAY_20US?DELAY

?PR?PULSO_BUS?PTO_PARALELO                       -----    -----      -----    -----      -----    -----
  +--> ?PR?_DELAY_20US?DELAY

?PR?_PANTALLALCD?PANTALLAS                       -----    -----      -----    -----      0012H    0008H
  +--> ?CO?PANTALLAS
  +--> ?PR?_LCD_TXT?PANTALLAS
  +--> ?PR?_STRLEN?STRLEN
  +--> ?PR?_TX_CHRLCD?PANTALLAS
  +--> ?PR?_RASPBERRY_DATA?PANTALLAS

?PR?_LCD_TXT?PANTALLAS                           -----    -----      -----    -----      003AH    0005H
  +--> ?PR?_TX_CHRLCD?PANTALLAS

?PR?_TX_CHRLCD?PANTALLAS                         -----    -----      -----    -----      003FH    0002H
  +--> ?PR?_PUTCHAR?MAIN

?PR?_RASPBERRY_DATA?PANTALLAS                    -----    -----      -----    -----      003AH    0005H
  +--> ?PR?_STRLEN?STRLEN
  +--> ?PR?_PUTCHAR?MAIN

?PR?_RD_MF?LINTECH                               -----    -----      -----    -----      000EH    0012H
  +--> ?CO?LINTECH
  +--> ?PR?_DEBUG_TXT_TIBBO?TIBBO
  +--> ?PR?_DEBUG_CHR_TIBBO?TIBBO
  +--> ?PR?_DEBUGBUFFERMF?TIBBO
  +--> ?PR?_ESCRIBIRCADENASOFT_BUFFER?MAIN

?PR?_RESPONDE_LECTURA_TARJETA_SECTOR1...         -----    -----      -----    -----      000EH    0004H
  +--> ?CO?VERIFICADOR
  +--> ?PR?_DEBUG_TXT_TIBBO?TIBBO
  +--> ?PR?_DEBUGBUFFERMF?TIBBO
  +--> ?PR?_DEBUG_HEXDEC?TIBBO
  +--> ?PR?_DEBUG_CHR_TIBBO?TIBBO
  +--> ?PR?_SEND_PORTERR?PTO_PARALELO
  +--> ?PR?_PANTALLALCD?PANTALLAS

?PR?_DEBUG_HEXDEC?TIBBO                          -----    -----      -----    -----      0012H    0002H
  +--> ?PR?_TX_AUX?TIBBO

?PR?_RESPONDE_LECTURA_TARJETA_SECTOR1...         -----    -----      -----    -----      000EH    0004H
  +--> ?CO?VERIFICADOR
  +--> ?PR?_DEBUG_TXT_TIBBO?TIBBO
  +--> ?PR?_DEBUGBUFFERMF?TIBBO
  +--> ?PR?_DEBUG_CHR_TIBBO?TIBBO
  +--> ?PR?_SEND_PORTERR?PTO_PARALELO
  +--> ?PR?_PANTALLALCD?PANTALLAS

?PR?DEBUG_DIVIDIR_TEXTO?TIBBO                    -----    -----      -----    -----      -----    -----
  +--> ?CO?TIBBO
  +--> ?PR?_DEBUG_TXT_TIBBO?TIBBO

?PR?_ANALIZA_TIEMPO?CLOCK                        0020H.0  0000H.2    -----    -----      000EH    000FH

BL51 BANKED LINKER/LOCATER V6.22.2.0                                                  09/02/2020  07:28:03  PAGE 15


?PR?_CHECK_FECHAOUT?CLOCK                        -----    -----      -----    -----      000EH    000AH
  +--> ?PR?_BLOCK_READ_CLOCK_HEX?CLOCK
  +--> ?PR?_DEBUG_FECHA_ACTUAL?TIBBO

?PR?_DEBUG_FECHA_ACTUAL?TIBBO                    -----    -----      -----    -----      0018H    0003H
  +--> ?CO?TIBBO
  +--> ?PR?_DEBUG_TXT_TIBBO?TIBBO
  +--> ?PR?_HEX_BCD?CLOCK
  +--> ?PR?_DEBUG_CHR_TIBBO?TIBBO
  +--> ?PR?_TX_AUX?TIBBO

?PR?_HORARIOS?VERIFICADOR                        -----    -----      -----    -----      000EH    0011H
  +--> ?PR?ADDR_HORARIOS?PROG
  +--> ?PR?_RD_EEPROM?EEPROM
  +--> ?PR?_LEE_CLK?CLOCK
  +--> ?CO?VERIFICADOR
  +--> ?PR?_DEBUG_TXT_TIBBO?TIBBO
  +--> ?PR?_DEBUG_CHR_TIBBO?TIBBO
  +--> ?PR?_BLOQUE_HORARIO?VERIFICADOR

?PR?_BLOQUE_HORARIO?VERIFICADOR                  -----    -----      -----    -----      001FH    0007H
  +--> ?CO?VERIFICADOR
  +--> ?PR?_DEBUG_TXT_TIBBO?TIBBO
  +--> ?PR?_LEE_CLK?CLOCK
  +--> ?PR?_DEBUG_CHR_TIBBO?TIBBO
  +--> ?PR?_HORA_MAXIMA?VERIFICADOR
  +--> ?PR?_EN_HORARIO?VERIFICADOR
  +--> ?PR?_RD_EEPROM?EEPROM

?PR?_HORA_MAXIMA?VERIFICADOR                     -----    -----      -----    -----      002BH    0008H
  +--> ?PR?_RD_EEPROM?EEPROM
  +--> ?PR?_DEBUG_CHR_TIBBO?TIBBO
  +--> ?CO?VERIFICADOR
  +--> ?PR?_DEBUG_TXT_TIBBO?TIBBO

?PR?_EN_HORARIO?VERIFICADOR                      -----    -----      -----    -----      0026H    0005H
  +--> ?CO?VERIFICADOR
  +--> ?PR?_DEBUG_TXT_TIBBO?TIBBO
  +--> ?PR?_HORA_MAXIMA?VERIFICADOR

?PR?_RESPONDE_LECTURA_TARJETA_SECTOR1...         -----    -----      -----    -----      000EH    0015H
  +--> ?CO?VERIFICADOR
  +--> ?PR?_DEBUG_TXT_TIBBO?TIBBO
  +--> ?PR?_TRAMA_PTO_PARALELO_NEW?PTO_PARALELO
  +--> ?PR?_ARMAR_TRAMA_PTO_PARALELO_EXPEDID...
  +--> ?PR?_CMD_LPR_SALIDA?ACCESCAN

?PR?_TRAMA_PTO_PARALELO_NEW?PTO_PARALELO         -----    -----      -----    -----      0023H    0026H
  +--> ?PR?_BLOCK_READ_CLOCK_HEX?CLOCK
  +--> ?PR?_SEND_PORT?PTO_PARALELO
  +--> ?PR?DEBUG_DIVIDIR_TEXTO?TIBBO
  +--> ?CO?PTO_PARALELO
  +--> ?PR?_DEBUG_TXT_TIBBO?TIBBO
  +--> ?PR?_DEBUGBUFFERMF?TIBBO

?PR?_SEND_PORT?PTO_PARALELO                      -----    -----      -----    -----      0049H    000AH
  +--> ?PR?PULSO_BUS?PTO_PARALELO
BL51 BANKED LINKER/LOCATER V6.22.2.0                                                  09/02/2020  07:28:03  PAGE 16


  +--> ?PR?_DELAY_20US?DELAY

?PR?_ARMAR_TRAMA_PTO_PARALELO_EXPEDID...         -----    -----      -----    -----      0023H    0003H
  +--> ?PR?_RD_EEPROM?EEPROM
  +--> ?PR?_SEND_PORT?PTO_PARALELO
  +--> ?PR?DEBUG_DIVIDIR_TEXTO?TIBBO
  +--> ?CO?VERIFICADOR
  +--> ?PR?_DEBUG_TXT_TIBBO?TIBBO
  +--> ?PR?_DEBUGBUFFERMF?TIBBO

?PR?_CMD_LPR_SALIDA?ACCESCAN                     -----    -----      -----    -----      0023H    0025H
  +--> ?PR?DIR_BOARD?IO_SENSORES
  +--> ?PR?_BYTEHEX_DECIMAL?CLOCK
  +--> ?PR?_STRLEN?STRLEN
  +--> ?PR?_TWO_BYTEHEX_DECIMAL?CLOCK
  +--> ?PR?_HEX_BCD?CLOCK
  +--> ?PR?_MONITOR_CHR?ACCESCAN

?PR?DIR_BOARD?IO_SENSORES                        -----    -----      -----    -----      -----    -----
  +--> ?PR?SEL_DIR1?IO_SENSORES
  +--> ?PR?SEL_DIR2?IO_SENSORES

?PR?_BYTEHEX_DECIMAL?CLOCK                       -----    -----      -----    -----      0048H    0001H

?PR?_TWO_BYTEHEX_DECIMAL?CLOCK                   -----    -----      -----    -----      0048H    000CH
  +--> ?PR?_POW?POW

?PR?_POW?POW                                     -----    -----      -----    -----      0054H    000AH
  +--> ?PR?LOG?LOG
  +--> ?PR?EXP?EXP

?PR?LOG?LOG                                      0020H.0  0000H.1    -----    -----      005EH    0004H

?PR?_MONITOR_CHR?ACCESCAN                        -----    -----      -----    -----      0048H    0005H
  +--> ?PR?_TX_AUX?TIBBO

?PR?_WR_MF?LINTECH                               -----    -----      -----    -----      000EH    0026H
  +--> ?CO?LINTECH
  +--> ?PR?_DEBUG_TXT_TIBBO?TIBBO
  +--> ?PR?_DEBUG_CHR_TIBBO?TIBBO
  +--> ?PR?DIR_BOARD?IO_SENSORES
  +--> ?PR?_DEBUGBUFFERMF?TIBBO
  +--> ?PR?_ESCRIBIRCADENASOFT_BUFFER?MAIN

?PR?_MOV_CARD?LINTECH                            -----    -----      -----    -----      000EH    000CH
  +--> ?CO?LINTECH
  +--> ?PR?_DEBUG_TXT_TIBBO?TIBBO
  +--> ?PR?_DEBUGBUFFERMF?TIBBO
  +--> ?PR?_ESCRIBIRCADENASOFT_BUFFER?MAIN

?PR?VALIDASENSORES_OUT?IO_SENSORES               -----    -----      -----    -----      -----    -----
  +--> ?PR?SEL_SENSOR2?IO_SENSORES
  +--> ?PR?VALIDASENSOR?IO_SENSORES

?PR?_TRAMA_PTO_PARALELO_P?PTO_PARALELO           -----    -----      -----    -----      000EH    0008H
  +--> ?PR?_SEND_PORT?PTO_PARALELO
  +--> ?PR?DEBUG_DIVIDIR_TEXTO?TIBBO
BL51 BANKED LINKER/LOCATER V6.22.2.0                                                  09/02/2020  07:28:03  PAGE 17


  +--> ?PR?_DEBUGBUFFERMF?TIBBO

?PR?UNIQUE_IDENTIFIER_UID?LINTECH                -----    -----      -----    -----      000EH    000BH
  +--> ?CO?LINTECH
  +--> ?PR?_DEBUG_TXT_TIBBO?TIBBO
  +--> ?PR?_DEBUGBUFFERMF?TIBBO
  +--> ?PR?_ESCRIBIRCADENASOFT_BUFFER?MAIN

?PR?_ANALIZA_UID_CARD?VERIFICADOR                -----    -----      -----    -----      000EH    0004H
  +--> ?CO?VERIFICADOR
  +--> ?PR?_DEBUG_TXT_TIBBO?TIBBO
  +--> ?PR?_DEBUGBUFFERMF?TIBBO
  +--> ?PR?_DEBUG_CHR_TIBBO?TIBBO

?PR?LOADVERIFY_EEPROM?LINTECH                    -----    -----      -----    -----      000EH    0010H
  +--> ?CO?LINTECH
  +--> ?PR?_DEBUG_TXT_TIBBO?TIBBO
  +--> ?PR?_DEBUGBUFFERMF?TIBBO
  +--> ?PR?_ESCRIBIRCADENASOFT_BUFFER?MAIN

?PR?POWER_OFF?LINTECH                            -----    -----      -----    -----      000EH    000BH
  +--> ?CO?LINTECH
  +--> ?PR?_DEBUG_TXT_TIBBO?TIBBO
  +--> ?PR?_DEBUGBUFFERMF?TIBBO
  +--> ?PR?_ESCRIBIRCADENASOFT_BUFFER?MAIN

?PR?AUT_CARD_CHECK_STATUS?LINTECH                -----    -----      -----    -----      000EH    000BH
  +--> ?CO?LINTECH
  +--> ?PR?_DEBUG_TXT_TIBBO?TIBBO
  +--> ?PR?_DEBUGBUFFERMF?TIBBO
  +--> ?PR?_ESCRIBIRCADENASOFT_BUFFER?MAIN

?PR?_RECIBE_PORT?PTO_PARALELO                    -----    -----      -----    -----      0001H    0008H
  +--> ?PR?OFF_TIMER0_INTERRUP?MAIN
  +--> ?PR?ON_TIMER0_INTERRUP?MAIN

?PR?_VALIDA_TRAMA_PTO?ACCESCAN                   -----    -----      -----    -----      0001H    000FH
  +--> ?PR?_RD_EEPROM?EEPROM
  +--> ?PR?_VALIDAR_CLK?CLOCK
  +--> ?PR?_BLOCK_WRITE_CLOCK_ASCII?CLOCK
  +--> ?PR?RELOJ_PANTALLA_LCD?PANTALLAS
  +--> ?PR?_PANTALLALCD?PANTALLAS
  +--> ?CO?ACCESCAN
  +--> ?PR?_DEBUG_TXT_TIBBO?TIBBO
  +--> ?PR?_BYTEHEX_DECIMAL?CLOCK
  +--> ?PR?_TWO_BYTEHEX_DECIMAL?CLOCK
  +--> ?PR?VALIDASENSORESPASO?IO_SENSORES
  +--> ?PR?_CMD_LPR_SALIDA_WIEGAND?ACCESCAN
  +--> ?PR?_PANTALLALCD_LINEA_2?PANTALLAS

?PR?_BLOCK_WRITE_CLOCK_ASCII?CLOCK               -----    -----      -----    -----      0010H    0003H
  +--> ?PR?_TWO_ONE?CLOCK
  +--> ?PR?_WR_CLK?CLOCK

?PR?_WR_CLK?CLOCK                                -----    -----      -----    -----      0013H    0002H
  +--> ?PR?_DELAY_20US?DELAY
  +--> ?PR?_EB_CLK?CLOCK
BL51 BANKED LINKER/LOCATER V6.22.2.0                                                  09/02/2020  07:28:03  PAGE 18



?PR?RELOJ_PANTALLA_LCD?PANTALLAS                 -----    -----      -----    -----      0010H    000DH
  +--> ?CO?PANTALLAS
  +--> ?PR?_BLOCK_READ_CLOCK?CLOCK
  +--> ?PR?_LCD_TXT_NUM_CHAR?PANTALLAS
  +--> ?PR?_RASPBERRY_DATA?PANTALLAS

?PR?_BLOCK_READ_CLOCK?CLOCK                      -----    -----      -----    -----      001DH    0003H
  +--> ?PR?_LEE_CLK?CLOCK

?PR?_LCD_TXT_NUM_CHAR?PANTALLAS                  -----    -----      -----    -----      001DH    0006H
  +--> ?PR?_TX_CHRLCD?PANTALLAS

?PR?_CMD_LPR_SALIDA_WIEGAND?ACCESCAN             -----    -----      -----    -----      0010H    0022H
  +--> ?PR?DIR_BOARD?IO_SENSORES
  +--> ?PR?_BLOCK_READ_CLOCK_ASCII?CLOCK
  +--> ?PR?_MONITOR_CHR?ACCESCAN

?PR?_PANTALLALCD_LINEA_2?PANTALLAS               -----    -----      -----    -----      0010H    002AH
  +--> ?CO?PANTALLAS
  +--> ?PR?_LCD_TXT?PANTALLAS
  +--> ?PR?_STRLEN?STRLEN
  +--> ?PR?_TX_CHRLCD?PANTALLAS
  +--> ?PR?_STRCAT?STRCAT
  +--> ?PR?_RASPBERRY_DATA?PANTALLAS

?PR?_DEBUG_PTO_PARALELO?TIBBO                    -----    -----      -----    -----      0001H    0004H
  +--> ?CO?TIBBO
  +--> ?PR?_DEBUG_TXT_TIBBO?TIBBO
  +--> ?PR?_DEBUGBUFFERMF?TIBBO
  +--> ?PR?_DEBUG_CHR_TIBBO?TIBBO
  +--> ?PR?DEBUG_DIVIDIR_TEXTO?TIBBO

?PR?MSJ_LCD_INFORMATIVO?IO_SENSORES              -----    -----      -----    -----      0001H    0001H
  +--> ?PR?SEL_FUNCION?IO_SENSORES
  +--> ?PR?LOAD_AND_SEND_INFO_RELOJ?PTO_PARA...
  +--> ?PR?LOAD_AND_SEND_ID_COD?PTO_PARALELO
  +--> ?PR?_RD_EEPROM?EEPROM
  +--> ?PR?_SEND_PORTERR?PTO_PARALELO

?PR?LOAD_AND_SEND_INFO_RELOJ?PTO_PARA...         -----    -----      -----    -----      0002H    000BH
  +--> ?PR?_BLOCK_READ_CLOCK?CLOCK
  +--> ?PR?_LEE_CLK?CLOCK
  +--> ?PR?_SEND_PORT?PTO_PARALELO

?PR?LOAD_AND_SEND_ID_COD?PTO_PARALELO            -----    -----      -----    -----      0002H    0011H
  +--> ?CO?PTO_PARALELO
  +--> ?PR?PRINTF?PRINTF
  +--> ?PR?_SEND_PORT?PTO_PARALELO



SYMBOL TABLE OF MODULE:  .\Objects\verificador_v_01_raspberry (MAIN)

  VALUE           TYPE          NAME
  ----------------------------------

BL51 BANKED LINKER/LOCATER V6.22.2.0                                                  09/02/2020  07:28:03  PAGE 19


  -------         MODULE        MAIN
  C:0000H         SYMBOL        _ICE_DUMMY_
  D:0080H         PUBLIC        P0
  D:0090H         PUBLIC        P1
  C:9EB5H         PUBLIC        timer0_int
  D:00B0H         PUBLIC        P3
  B:00A8H.7       PUBLIC        EA
  C:A2AFH         PUBLIC        off_Timer0_Interrup
  X:00F3H         PUBLIC        ValTimeOutCom
  X:00F4H         PUBLIC        Buffer_Rta_Lintech
  X:0126H         PUBLIC        Timer_wait
  X:0127H         PUBLIC        g_cContByteRx
  B:0080H.0       PUBLIC        rx_ip
  B:0080H.3       PUBLIC        Atascado
  C:904CH         PUBLIC        main
  X:0128H         PUBLIC        Timer_tivo
  B:0090H.7       PUBLIC        lock
  I:0022H         PUBLIC        rbuf
  C:A2A0H         PUBLIC        on_Timer0_Interrup
  I:0054H         PUBLIC        tbuf
  B:0090H.1       PUBLIC        DataIn
  D:0089H         PUBLIC        TMOD
  X:012AH         PUBLIC        Debug_Tibbo
  B:0021H.1       PUBLIC        prto_ready
  X:012BH         PUBLIC        Raspberry
  X:012CH         PUBLIC        SIN_COBRO
  X:012EH         PUBLIC        Tipo_Vehiculo
  B:00B0H.3       PUBLIC        busy
  C:A212H         PUBLIC        ini_timer
  B:00A8H.1       PUBLIC        ET0
  B:0088H.5       PUBLIC        TF0
  X:012FH         PUBLIC        COMPARACION_ACTIVA
  D:008CH         PUBLIC        TH0
  X:0130H         PUBLIC        ACK
  X:0131H         PUBLIC        g_cEstadoComSoft
  D:008AH         PUBLIC        TL0
  B:0088H.4       PUBLIC        TR0
  C:A222H         PUBLIC        inicia_board
  X:0132H         PUBLIC        T_GRACIA
  X:0134H         PUBLIC        COD_PARK
  B:0080H.7       PUBLIC        sel_com
  X:0136H         PUBLIC        STX_LINTECH
  C:A241H         PUBLIC        _getkey
  X:0137H         PUBLIC        g_cEstadoComSeqMF
  X:0138H         PUBLIC        ETX
  X:0139H         PUBLIC        ID_CLIENTE
  C:9AEBH         PUBLIC        _EscribirCadenaSoft_buffer
  B:0021H.2       PUBLIC        buffer_ready
  C:9D88H         PUBLIC        _putchar
  B:0021H.3       PUBLIC        placa_ready
  -------         PROC          TIMER0_INT
  C:9EB5H         LINE#         13
  C:9EBBH         LINE#         15
  C:9EC3H         LINE#         16
  C:9EC3H         LINE#         17
  C:9EC5H         LINE#         18
  C:9EC7H         LINE#         19
BL51 BANKED LINKER/LOCATER V6.22.2.0                                                  09/02/2020  07:28:03  PAGE 20


  C:9EC9H         LINE#         21
  C:9EC9H         LINE#         22
  C:9ECFH         LINE#         23
  C:9ED5H         LINE#         24
  C:9EE3H         LINE#         25
  C:9EE5H         LINE#         26
  C:9EE5H         LINE#         27
  -------         ENDPROC       TIMER0_INT
  -------         PROC          INI_TIMER
  C:A212H         LINE#         30
  C:A212H         LINE#         31
  C:A212H         LINE#         33
  C:A21AH         LINE#         35
  C:A21DH         LINE#         36
  C:A21FH         LINE#         37
  C:A221H         LINE#         39
  -------         ENDPROC       INI_TIMER
  -------         PROC          ON_TIMER0_INTERRUP
  C:A2A0H         LINE#         42
  C:A2A0H         LINE#         43
  C:A2A0H         LINE#         44
  C:A2A2H         LINE#         45
  C:A2A4H         LINE#         47
  -------         ENDPROC       ON_TIMER0_INTERRUP
  -------         PROC          OFF_TIMER0_INTERRUP
  C:A2AFH         LINE#         50
  C:A2AFH         LINE#         51
  C:A2AFH         LINE#         52
  C:A2B1H         LINE#         54
  -------         ENDPROC       OFF_TIMER0_INTERRUP
  -------         PROC          _GETKEY
  -------         DO            
  D:0006H         SYMBOL        k
  -------         ENDDO         
  C:A241H         LINE#         62
  C:A241H         LINE#         63
  C:A241H         LINE#         67
  C:A241H         LINE#         68
  C:A244H         LINE#         69
  C:A244H         LINE#         70
  C:A24CH         LINE#         72
  C:A24CH         LINE#         73
  -------         ENDPROC       _GETKEY
  -------         PROC          _PUTCHAR
  X:00BBH         SYMBOL        c
  -------         DO            
  X:00BCH         SYMBOL        i
  -------         ENDDO         
  C:9D88H         LINE#         77
  C:9D8DH         LINE#         78
  C:9D8DH         LINE#         81
  C:9D9CH         LINE#         82
  C:9D9CH         LINE#         83
  C:9DB2H         LINE#         84
  C:9DB2H         LINE#         86
  C:9DC0H         LINE#         87
  C:9DC0H         LINE#         89
BL51 BANKED LINKER/LOCATER V6.22.2.0                                                  09/02/2020  07:28:03  PAGE 21


  C:9DC5H         LINE#         90
  -------         ENDPROC       _PUTCHAR
  -------         PROC          _ESCRIBIRCADENASOFT_BUFFER
  X:0034H         SYMBOL        buffer
  X:0037H         SYMBOL        tamano_cadena
  -------         DO            
  X:0038H         SYMBOL        i
  X:0039H         SYMBOL        d
  -------         ENDDO         
  C:9AEBH         LINE#         94
  C:9AF9H         LINE#         95
  C:9AF9H         LINE#         97
  C:9B07H         LINE#         98
  C:9B07H         LINE#         99
  C:9B1EH         LINE#         100
  C:9B28H         LINE#         101
  C:9B30H         LINE#         102
  -------         ENDPROC       _ESCRIBIRCADENASOFT_BUFFER
  -------         PROC          INICIA_BOARD
  C:A222H         LINE#         139
  C:A222H         LINE#         140
  C:A222H         LINE#         141
  C:A225H         LINE#         142
  C:A228H         LINE#         143
  C:A22BH         LINE#         144
  C:A22DH         LINE#         145
  C:A22FH         LINE#         146
  C:A231H         LINE#         148
  -------         ENDPROC       INICIA_BOARD
  -------         PROC          MAIN
  -------         DO            
  X:00CBH         SYMBOL        buffer
  X:0000H         SYMBOL        Length_trama
  -------         ENDDO         
  C:904CH         LINE#         158
  C:904CH         LINE#         159
  C:904CH         LINE#         167
  C:904FH         LINE#         168
  C:9052H         LINE#         169
  C:9055H         LINE#         170
  C:9058H         LINE#         171
  C:905BH         LINE#         172
  C:905DH         LINE#         174
  C:9060H         LINE#         175
  C:9067H         LINE#         176
  C:906AH         LINE#         177
  C:906FH         LINE#         179
  C:9072H         LINE#         181
  C:9075H         LINE#         182
  C:9075H         LINE#         183
  C:9078H         LINE#         184
  C:9078H         LINE#         185
  C:907BH         LINE#         186
  C:9081H         LINE#         187
  C:9087H         LINE#         189
  C:9087H         LINE#         190
  C:9087H         LINE#         192
BL51 BANKED LINKER/LOCATER V6.22.2.0                                                  09/02/2020  07:28:03  PAGE 22


  C:908AH         LINE#         194
  C:908AH         LINE#         195
  C:908DH         LINE#         196
  C:908DH         LINE#         198
  C:909BH         LINE#         201
  C:909BH         LINE#         203
  C:909EH         LINE#         205
  C:90A1H         LINE#         206
  C:90A1H         LINE#         209
  C:90B0H         LINE#         212
  C:90B9H         LINE#         215
  C:90C7H         LINE#         218
  C:90C7H         LINE#         220
  C:90C9H         LINE#         222
  C:90C9H         LINE#         223
  C:90CCH         LINE#         224
  C:90CCH         LINE#         225
  C:90CFH         LINE#         229
  -------         ENDPROC       MAIN
  -------         ENDMOD        MAIN

  -------         MODULE        ACCESCAN
  C:0000H         SYMBOL        _ICE_DUMMY_
  D:0080H         PUBLIC        P0
  D:0090H         PUBLIC        P1
  I:0011H         PUBLIC        placa
  B:0080H.2       PUBLIC        led_err_imp
  C:9C87H         PUBLIC        _Monitor_chr
  C:3CBEH         PUBLIC        _Cmd_LPR_Salida
  B:0080H.3       PUBLIC        Atascado
  B:0080H.0       PUBLIC        rx_ip
  B:0090H.7       PUBLIC        lock
  X:0205H         PUBLIC        USE_LPR
  C:3FF5H         PUBLIC        _Valida_Trama_Pto
  C:899CH         PUBLIC        _recibe_cmd_Monitor
  C:7C85H         PUBLIC        _Cmd_LPR_Salida_wiegand
  C:A14CH         PUBLIC        clear_placa
  C:8A31H         PUBLIC        _Valida_Trama_Monitor
  -------         PROC          _VALIDA_TRAMA_PTO
  X:0001H         SYMBOL        buffer
  X:0004H         SYMBOL        length_trama
  -------         DO            
  X:0204H         SYMBOL        cont
  X:0005H         SYMBOL        buff
  -------         ENDDO         
  C:3FF5H         LINE#         120
  C:4003H         LINE#         121
  C:4003H         LINE#         125
  C:4011H         LINE#         127
  C:4048H         LINE#         128
  C:4048H         LINE#         129
  C:405DH         LINE#         130
  C:405DH         LINE#         131
  C:4070H         LINE#         133
  C:4073H         LINE#         135
  C:4073H         LINE#         137
  C:4073H         LINE#         139
BL51 BANKED LINKER/LOCATER V6.22.2.0                                                  09/02/2020  07:28:03  PAGE 23


  C:4085H         LINE#         140
  C:4085H         LINE#         141
  C:408BH         LINE#         142
  C:4098H         LINE#         143
  C:4098H         LINE#         144
  C:409DH         LINE#         145
  C:409FH         LINE#         146
  C:40A4H         LINE#         147
  C:40A6H         LINE#         148
  C:40A8H         LINE#         149
  C:40ACH         LINE#         150
  C:40ACH         LINE#         151
  C:40ADH         LINE#         153
  C:40C5H         LINE#         154
  C:40C5H         LINE#         156
  C:40D2H         LINE#         157
  C:40D2H         LINE#         158
  C:40D4H         LINE#         159
  C:40D6H         LINE#         160
  C:40D8H         LINE#         161
  C:40DAH         LINE#         162
  C:40DAH         LINE#         164
  C:4100H         LINE#         165
  C:4100H         LINE#         166
  C:4104H         LINE#         167
  C:4109H         LINE#         168
  C:4112H         LINE#         169
  C:4117H         LINE#         170
  C:4117H         LINE#         173
  C:4118H         LINE#         176
  C:412AH         LINE#         177
  C:412AH         LINE#         178
  C:412CH         LINE#         179
  C:412FH         LINE#         181
  C:4141H         LINE#         182
  C:4141H         LINE#         183
  C:4143H         LINE#         184
  C:4146H         LINE#         186
  C:4160H         LINE#         187
  C:4160H         LINE#         188
  C:4162H         LINE#         189
  C:4165H         LINE#         192
  C:417FH         LINE#         193
  C:417FH         LINE#         194
  C:4181H         LINE#         195
  C:4183H         LINE#         198
  C:419DH         LINE#         199
  C:419DH         LINE#         200
  C:419FH         LINE#         201
  C:41A1H         LINE#         205
  C:41BBH         LINE#         206
  C:41BBH         LINE#         207
  C:41BDH         LINE#         208
  C:41BFH         LINE#         211
  C:41D9H         LINE#         212
  C:41D9H         LINE#         213
  C:41DBH         LINE#         214
BL51 BANKED LINKER/LOCATER V6.22.2.0                                                  09/02/2020  07:28:03  PAGE 24


  C:41DDH         LINE#         216
  C:41F7H         LINE#         217
  C:41F7H         LINE#         218
  C:41FCH         LINE#         219
  C:41FCH         LINE#         221
  C:422CH         LINE#         222
  C:422CH         LINE#         223
  C:423AH         LINE#         224
  C:423DH         LINE#         227
  C:4280H         LINE#         228
  C:4280H         LINE#         230
  C:4295H         LINE#         231
  C:429BH         LINE#         232
  C:42C5H         LINE#         235
  C:42CDH         LINE#         236
  C:42CDH         LINE#         239
  C:42D4H         LINE#         240
  C:42D4H         LINE#         241
  C:42D9H         LINE#         242
  C:42D9H         LINE#         243
  C:42DBH         LINE#         245
  C:42DBH         LINE#         246
  C:42E4H         LINE#         247
  C:42ECH         LINE#         248
  C:42ECH         LINE#         253
  C:42EEH         LINE#         256
  C:42EEH         LINE#         259
  C:42F5H         LINE#         260
  C:42F5H         LINE#         261
  C:42FAH         LINE#         262
  C:42FAH         LINE#         263
  C:4305H         LINE#         267
  C:4305H         LINE#         268
  C:4305H         LINE#         270
  -------         ENDPROC       _VALIDA_TRAMA_PTO
  -------         PROC          _RECIBE_CMD_MONITOR
  X:0001H         SYMBOL        buffer_cmd
  -------         DO            
  X:0004H         SYMBOL        j
  X:0005H         SYMBOL        NumDatos
  D:0005H         SYMBOL        time_out
  X:0006H         SYMBOL        MaxChrRx
  D:0006H         SYMBOL        contador
  -------         ENDDO         
  C:899CH         LINE#         276
  C:89A7H         LINE#         277
  C:89A7H         LINE#         281
  C:89ACH         LINE#         282
  C:89B0H         LINE#         284
  C:89B8H         LINE#         285
  C:89B8H         LINE#         286
  C:89C9H         LINE#         287
  C:89C9H         LINE#         288
  C:89CCH         LINE#         289
  C:89CDH         LINE#         290
  C:89D3H         LINE#         291
  C:89D3H         LINE#         292
BL51 BANKED LINKER/LOCATER V6.22.2.0                                                  09/02/2020  07:28:03  PAGE 25


  C:89D8H         LINE#         293
  C:89E1H         LINE#         294
  C:89E1H         LINE#         295
  C:89E3H         LINE#         296
  C:89EBH         LINE#         297
  C:89EBH         LINE#         298
  C:89EDH         LINE#         299
  C:89F2H         LINE#         300
  C:89F8H         LINE#         301
  C:8A0AH         LINE#         302
  C:8A14H         LINE#         303
  C:8A1CH         LINE#         305
  C:8A2BH         LINE#         308
  C:8A2BH         LINE#         309
  C:8A30H         LINE#         310
  -------         ENDPROC       _RECIBE_CMD_MONITOR
  -------         PROC          _VALIDA_TRAMA_MONITOR
  X:01F8H         SYMBOL        buffer
  D:0005H         SYMBOL        length_trama
  -------         DO            
  D:0007H         SYMBOL        j
  D:0006H         SYMBOL        p
  -------         ENDDO         
  C:8A31H         LINE#         315
  C:8A3CH         LINE#         316
  C:8A3CH         LINE#         317
  C:8A3EH         LINE#         318
  C:8A40H         LINE#         319
  C:8A40H         LINE#         320
  C:8A5EH         LINE#         321
  C:8A5EH         LINE#         322
  C:8A60H         LINE#         323
  C:8A65H         LINE#         324
  C:8A66H         LINE#         325
  C:8A7BH         LINE#         326
  C:8A7BH         LINE#         329
  C:8A7BH         LINE#         330
  C:8A95H         LINE#         331
  C:8A96H         LINE#         332
  C:8A97H         LINE#         333
  C:8AA3H         LINE#         334
  C:8AB7H         LINE#         335
  C:8ABDH         LINE#         336
  C:8ABFH         LINE#         337
  C:8AC5H         LINE#         340
  C:8AC5H         LINE#         341
  C:8AC5H         LINE#         342
  C:8AC5H         LINE#         344
  C:8AC5H         LINE#         345
  -------         ENDPROC       _VALIDA_TRAMA_MONITOR
  -------         PROC          CLEAR_PLACA
  -------         DO            
  D:0007H         SYMBOL        i
  -------         ENDDO         
  C:A14CH         LINE#         349
  C:A14CH         LINE#         350
  C:A14CH         LINE#         352
BL51 BANKED LINKER/LOCATER V6.22.2.0                                                  09/02/2020  07:28:03  PAGE 26


  C:A158H         LINE#         353
  C:A158H         LINE#         354
  C:A15EH         LINE#         355
  C:A161H         LINE#         356
  C:A163H         LINE#         357
  -------         ENDPROC       CLEAR_PLACA
  -------         PROC          _MONITOR_CHR
  X:0048H         SYMBOL        str
  X:004BH         SYMBOL        num_char
  -------         DO            
  X:004CH         SYMBOL        j
  -------         ENDDO         
  C:9C87H         LINE#         362
  C:9C95H         LINE#         363
  C:9C95H         LINE#         365
  C:9CA3H         LINE#         366
  C:9CA3H         LINE#         367
  C:9CB5H         LINE#         368
  C:9CBFH         LINE#         369
  C:9CC7H         LINE#         370
  -------         ENDPROC       _MONITOR_CHR
  -------         PROC          _CMD_LPR_SALIDA_WIEGAND
  X:0010H         SYMBOL        buffer
  -------         DO            
  X:0013H         SYMBOL        Buffer_Lpr
  X:0031H         SYMBOL        j
  -------         ENDDO         
  C:7C85H         LINE#         375
  C:7C90H         LINE#         376
  C:7C90H         LINE#         378
  C:7C96H         LINE#         379
  C:7C9BH         LINE#         380
  C:7CA3H         LINE#         381
  C:7CA7H         LINE#         382
  C:7CB0H         LINE#         383
  C:7CB0H         LINE#         384
  C:7CC1H         LINE#         385
  C:7CC3H         LINE#         387
  C:7CC3H         LINE#         388
  C:7CD4H         LINE#         389
  C:7CD4H         LINE#         393
  C:7CEBH         LINE#         394
  C:7CEBH         LINE#         395
  C:7CFAH         LINE#         396
  C:7D04H         LINE#         398
  C:7D0CH         LINE#         399
  C:7D20H         LINE#         401
  C:7D30H         LINE#         402
  C:7D41H         LINE#         403
  C:7D4EH         LINE#         407
  -------         ENDPROC       _CMD_LPR_SALIDA_WIEGAND
  -------         PROC          _CMD_LPR_SALIDA
  X:0023H         SYMBOL        buffer_S1_B0
  X:0026H         SYMBOL        buffer_S1_B2
  -------         DO            
  X:0029H         SYMBOL        Buffer_Lpr
  D:0004H         SYMBOL        temp
BL51 BANKED LINKER/LOCATER V6.22.2.0                                                  09/02/2020  07:28:03  PAGE 27


  X:0047H         SYMBOL        j
  -------         ENDDO         
  C:3CBEH         LINE#         412
  C:3CC9H         LINE#         413
  C:3CC9H         LINE#         418
  C:3CCFH         LINE#         419
  C:3CD4H         LINE#         420
  C:3CDCH         LINE#         421
  C:3CE0H         LINE#         424
  C:3CF6H         LINE#         425
  C:3CF6H         LINE#         426
  C:3D07H         LINE#         427
  C:3D09H         LINE#         429
  C:3D09H         LINE#         430
  C:3D1AH         LINE#         431
  C:3D1AH         LINE#         432
  C:3D32H         LINE#         433
  C:3D32H         LINE#         434
  C:3D47H         LINE#         435
  C:3D55H         LINE#         436
  C:3D63H         LINE#         437
  C:3D6FH         LINE#         438
  C:3D7DH         LINE#         439
  C:3DB6H         LINE#         441
  C:3DB8H         LINE#         443
  C:3DB8H         LINE#         446
  C:3DB8H         LINE#         447
  C:3DDAH         LINE#         448
  C:3DE4H         LINE#         449
  C:3DF4H         LINE#         450
  C:3DF4H         LINE#         452
  C:3E02H         LINE#         455
  C:3E0FH         LINE#         457
  C:3E25H         LINE#         458
  C:3E4AH         LINE#         459
  C:3E63H         LINE#         461
  C:3E7CH         LINE#         462
  C:3EA1H         LINE#         463
  C:3EBAH         LINE#         465
  C:3ED3H         LINE#         466
  C:3EF8H         LINE#         467
  C:3F11H         LINE#         469
  C:3F2AH         LINE#         470
  C:3F4FH         LINE#         471
  C:3F68H         LINE#         473
  C:3F81H         LINE#         474
  C:3FA6H         LINE#         475
  C:3FBFH         LINE#         479
  C:3FD3H         LINE#         482
  C:3FE7H         LINE#         484
  -------         ENDPROC       _CMD_LPR_SALIDA
  -------         ENDMOD        ACCESCAN

  -------         MODULE        CLOCK
  C:0000H         SYMBOL        _ICE_DUMMY_
  C:9CFCH         PUBLIC        _two_one
  D:0090H         PUBLIC        P1
BL51 BANKED LINKER/LOCATER V6.22.2.0                                                  09/02/2020  07:28:03  PAGE 28


  C:6CF8H         PUBLIC        _validar_clk
  C:9F76H         PUBLIC        _wr_clk
  C:5B24H         PUBLIC        _check_fechaOut
  B:00D0H.7       PUBLIC        CY
  C:0003H         PUBLIC        p_ck
  C:805CH         PUBLIC        _check_fechaOut_2
  C:8AC6H         PUBLIC        _hex_ascii
  X:0206H         PUBLIC        data_clk
  C:A269H         PUBLIC        cond_ini_clock
  C:7D5BH         PUBLIC        _Block_read_Clock
  B:0090H.4       PUBLIC        sck
  C:85DDH         PUBLIC        _Block_read_Clock_Hex
  C:5C9DH         PUBLIC        _Block_read_clock_ascii
  C:9DE2H         PUBLIC        _hex_bcd
  C:A0F6H         PUBLIC        _bcd_hex
  C:97C0H         PUBLIC        _ByteHex_Decimal
  C:8C83H         PUBLIC        _lee_clk
  C:2B6BH         PUBLIC        _analiza_tiempo
  B:0090H.5       PUBLIC        io
  C:8D99H         PUBLIC        _Block_write_clock_ascii
  B:0090H.6       PUBLIC        rst
  C:9D49H         PUBLIC        _eb_clk
  C:45FBH         PUBLIC        _Two_ByteHex_Decimal
  -------         PROC          P_CK
  C:0003H         LINE#         40
  C:0003H         LINE#         41
  C:0003H         LINE#         42
  C:0005H         LINE#         43
  C:0008H         LINE#         44
  C:000AH         LINE#         45
  -------         ENDPROC       P_CK
  -------         PROC          _EB_CLK
  X:00C8H         SYMBOL        dir_clk
  -------         DO            
  X:00C9H         SYMBOL        nbits
  -------         ENDDO         
  C:9D49H         LINE#         47
  C:9D4EH         LINE#         49
  C:9D53H         LINE#         50
  C:9D53H         LINE#         51
  C:9D5CH         LINE#         52
  C:9D5FH         LINE#         53
  C:9D5FH         LINE#         54
  C:9D61H         LINE#         55
  C:9D63H         LINE#         57
  C:9D63H         LINE#         58
  C:9D65H         LINE#         59
  C:9D65H         LINE#         60
  C:9D68H         LINE#         61
  C:9D87H         LINE#         62
  -------         ENDPROC       _EB_CLK
  C:8C79H         SYMBOL        L?0179
  -------         PROC          L?0178
  -------         ENDPROC       L?0178
  C:8C79H         SYMBOL        L?0179
  -------         PROC          _LEE_CLK
  X:00C5H         SYMBOL        dir_clk
BL51 BANKED LINKER/LOCATER V6.22.2.0                                                  09/02/2020  07:28:03  PAGE 29


  -------         DO            
  X:00C6H         SYMBOL        nbits
  -------         ENDDO         
  C:8C83H         LINE#         64
  C:8C88H         LINE#         66
  C:8C8AH         LINE#         67
  C:8C91H         LINE#         68
  C:8C99H         LINE#         69
  C:8CB2H         LINE#         70
  C:8CB2H         LINE#         71
  C:8CB5H         LINE#         72
  C:8CB5H         LINE#         73
  C:8CBCH         LINE#         74
  C:8CC6H         LINE#         75
  C:8CCBH         LINE#         76
  C:8CCBH         LINE#         77
  C:8CCBH         LINE#         78
  C:8CCEH         LINE#         79
  C:8CCEH         LINE#         80
  C:8CD5H         LINE#         81
  C:8CE6H         LINE#         82
  C:8CE6H         LINE#         83
  C:8CEEH         LINE#         84
  C:8CEEH         LINE#         85
  C:8CEEH         LINE#         86
  C:8CF1H         LINE#         87
  C:8D01H         LINE#         88
  C:8D03H         LINE#         89
  C:8D08H         LINE#         90
  -------         ENDPROC       _LEE_CLK
  -------         PROC          _WR_CLK
  X:0013H         SYMBOL        dir_clk
  X:0014H         SYMBOL        byte
  C:9F76H         LINE#         92
  C:9F7EH         LINE#         93
  C:9F80H         LINE#         94
  C:9F87H         LINE#         95
  C:9F8FH         LINE#         96
  C:9F98H         LINE#         97
  C:9F9BH         LINE#         98
  C:9F9DH         LINE#         100
  -------         ENDPROC       _WR_CLK
  C:9CC8H         SYMBOL        L?0174
  C:9CE6H         SYMBOL        L?0175
  -------         PROC          L?0173
  -------         ENDPROC       L?0173
  C:9CC8H         SYMBOL        L?0174
  C:9CE6H         SYMBOL        L?0175
  -------         PROC          _TWO_ONE
  D:0007H         SYMBOL        byte_h
  D:0005H         SYMBOL        byte_l
  -------         DO            
  D:0007H         SYMBOL        byte_out
  -------         ENDDO         
  C:9CFCH         LINE#         102
  C:9CFCH         LINE#         103
  C:9CFCH         LINE#         105
BL51 BANKED LINKER/LOCATER V6.22.2.0                                                  09/02/2020  07:28:03  PAGE 30


  C:9CFFH         LINE#         106
  C:9D03H         LINE#         107
  C:9D06H         LINE#         108
  C:9D08H         LINE#         109
  C:9D08H         LINE#         110
  -------         ENDPROC       _TWO_ONE
  -------         PROC          _VALIDAR_CLK
  D:0001H         SYMBOL        datos_clock
  -------         DO            
  D:0007H         SYMBOL        validador
  -------         ENDDO         
  C:6CF8H         LINE#         114
  C:6CF8H         LINE#         115
  C:6CF8H         LINE#         116
  C:6CFAH         LINE#         119
  C:6D0FH         LINE#         120
  C:6D0FH         LINE#         122
  C:6D27H         LINE#         123
  C:6D27H         LINE#         125
  C:6D3FH         LINE#         126
  C:6D3FH         LINE#         127
  C:6D57H         LINE#         128
  C:6D57H         LINE#         129
  C:6D6FH         LINE#         130
  C:6D6FH         LINE#         131
  C:6D84H         LINE#         132
  C:6D84H         LINE#         133
  C:6D96H         LINE#         134
  C:6D96H         LINE#         135
  C:6DA8H         LINE#         136
  C:6DA8H         LINE#         137
  C:6DBAH         LINE#         138
  C:6DBAH         LINE#         139
  C:6DCCH         LINE#         140
  C:6DCCH         LINE#         141
  C:6DDEH         LINE#         142
  C:6DDEH         LINE#         143
  C:6DEEH         LINE#         144
  C:6DEEH         LINE#         145
  C:6DEEH         LINE#         146
  C:6DEEH         LINE#         147
  C:6DEFH         LINE#         149
  C:6DEFH         LINE#         150
  C:6DF1H         LINE#         151
  C:6DF1H         LINE#         152
  C:6DF2H         LINE#         154
  C:6DF2H         LINE#         155
  C:6DF4H         LINE#         157
  C:6DF4H         LINE#         158
  C:6DF5H         LINE#         160
  C:6DF5H         LINE#         161
  C:6DF7H         LINE#         163
  C:6DF7H         LINE#         165
  C:6DF8H         LINE#         167
  C:6DF8H         LINE#         168
  C:6DFAH         LINE#         170
  C:6DFAH         LINE#         171
BL51 BANKED LINKER/LOCATER V6.22.2.0                                                  09/02/2020  07:28:03  PAGE 31


  C:6DFBH         LINE#         173
  C:6DFBH         LINE#         174
  C:6DFDH         LINE#         176
  C:6DFDH         LINE#         177
  C:6DFEH         LINE#         179
  C:6DFEH         LINE#         180
  C:6E00H         LINE#         182
  C:6E00H         LINE#         183
  C:6E01H         LINE#         185
  C:6E01H         LINE#         186
  C:6E03H         LINE#         188
  C:6E03H         LINE#         189
  C:6E03H         LINE#         191
  C:6E04H         LINE#         193
  C:6E04H         LINE#         194
  C:6E06H         LINE#         196
  C:6E06H         LINE#         198
  C:6E07H         LINE#         201
  C:6E07H         LINE#         202
  C:6E09H         LINE#         204
  C:6E09H         LINE#         206
  C:6E0AH         LINE#         209
  C:6E0AH         LINE#         210
  C:6E0CH         LINE#         212
  C:6E0CH         LINE#         214
  C:6E0CH         LINE#         216
  -------         ENDPROC       _VALIDAR_CLK
  -------         PROC          _BLOCK_WRITE_CLOCK_ASCII
  X:0010H         SYMBOL        datos_clock
  C:8D99H         LINE#         222
  C:8DA4H         LINE#         224
  C:8DA4H         LINE#         228
  C:8DAEH         LINE#         229
  C:8DAEH         LINE#         230
  C:8DAEH         LINE#         231
  C:8DAEH         LINE#         233
  C:8DB8H         LINE#         234
  C:8DC2H         LINE#         235
  C:8DCCH         LINE#         236
  C:8DCCH         LINE#         237
  C:8DCCH         LINE#         238
  C:8DCCH         LINE#         240
  C:8DD6H         LINE#         241
  C:8DD6H         LINE#         242
  C:8DD6H         LINE#         243
  C:8DD6H         LINE#         245
  C:8DE0H         LINE#         246
  C:8DE0H         LINE#         247
  C:8DE0H         LINE#         248
  C:8DE0H         LINE#         250
  C:8DEAH         LINE#         251
  C:8DEAH         LINE#         252
  C:8DEAH         LINE#         253
  C:8DEAH         LINE#         255
  C:8DF4H         LINE#         256
  C:8DFEH         LINE#         257
  C:8E08H         LINE#         258
BL51 BANKED LINKER/LOCATER V6.22.2.0                                                  09/02/2020  07:28:03  PAGE 32


  C:8E12H         LINE#         260
  -------         ENDPROC       _BLOCK_WRITE_CLOCK_ASCII
  -------         PROC          _BCD_HEX
  D:0007H         SYMBOL        l_data
  -------         DO            
  D:0006H         SYMBOL        temp
  D:0005H         SYMBOL        j
  -------         ENDDO         
  C:A0F6H         LINE#         266
  C:A0F6H         LINE#         267
  C:A0F6H         LINE#         269
  C:A0F8H         LINE#         270
  C:A0FCH         LINE#         271
  C:A0FFH         LINE#         272
  C:A101H         LINE#         273
  C:A101H         LINE#         274
  C:A105H         LINE#         275
  C:A10CH         LINE#         276
  C:A10CH         LINE#         277
  C:A110H         LINE#         278
  C:A113H         LINE#         279
  C:A113H         LINE#         280
  C:A113H         LINE#         281
  -------         ENDPROC       _BCD_HEX
  C:9DD3H         SYMBOL        L?0177
  -------         PROC          L?0176
  -------         ENDPROC       L?0176
  C:9DD3H         SYMBOL        L?0177
  -------         PROC          _HEX_BCD
  D:0007H         SYMBOL        byte
  -------         DO            
  D:0006H         SYMBOL        nibble_h
  D:0005H         SYMBOL        nibble_l
  D:0004H         SYMBOL        k
  D:0007H         SYMBOL        byte_out
  -------         ENDDO         
  C:9DE2H         LINE#         285
  C:9DE2H         LINE#         286
  C:9DE2H         LINE#         291
  C:9DE4H         LINE#         292
  C:9DE5H         LINE#         294
  C:9DEBH         LINE#         295
  C:9DEBH         LINE#         296
  C:9DECH         LINE#         297
  C:9DF1H         LINE#         298
  C:9DF1H         LINE#         299
  C:9DF2H         LINE#         300
  C:9DF3H         LINE#         301
  C:9DF3H         LINE#         302
  C:9DF6H         LINE#         303
  C:9DFAH         LINE#         304
  C:9DFDH         LINE#         305
  C:9E00H         LINE#         306
  C:9E02H         LINE#         307
  C:9E02H         LINE#         309
  -------         ENDPROC       _HEX_BCD
  -------         PROC          _BYTEHEX_DECIMAL
BL51 BANKED LINKER/LOCATER V6.22.2.0                                                  09/02/2020  07:28:03  PAGE 33


  D:0001H         SYMBOL        buffer
  D:0005H         SYMBOL        valorhex
  -------         DO            
  X:0048H         SYMBOL        numero
  D:0007H         SYMBOL        centena
  D:0006H         SYMBOL        decena
  -------         ENDDO         
  C:97C0H         LINE#         315
  C:97C0H         LINE#         316
  C:97C0H         LINE#         319
  C:97C2H         LINE#         320
  C:97C3H         LINE#         321
  C:97C8H         LINE#         323
  C:97D5H         LINE#         324
  C:97D5H         LINE#         325
  C:97D9H         LINE#         326
  C:97DAH         LINE#         327
  C:97DCH         LINE#         328
  C:97E2H         LINE#         329
  C:97E9H         LINE#         330
  C:97F6H         LINE#         331
  C:97F6H         LINE#         332
  C:97FAH         LINE#         333
  C:97FBH         LINE#         334
  C:97FDH         LINE#         335
  C:9803H         LINE#         336
  C:980AH         LINE#         337
  C:9813H         LINE#         338
  C:981AH         LINE#         339
  -------         ENDPROC       _BYTEHEX_DECIMAL
  -------         PROC          _TWO_BYTEHEX_DECIMAL
  X:0048H         SYMBOL        buffer
  X:004BH         SYMBOL        id_h
  X:004CH         SYMBOL        id_l
  -------         DO            
  X:004DH         SYMBOL        valor
  D:0006H         SYMBOL        numero
  X:004FH         SYMBOL        temp
  X:0050H         SYMBOL        dmil
  X:0051H         SYMBOL        mil
  X:0052H         SYMBOL        centena
  X:0053H         SYMBOL        decena
  -------         ENDDO         
  C:45FBH         LINE#         346
  C:4609H         LINE#         347
  C:4609H         LINE#         351
  C:4610H         LINE#         352
  C:4614H         LINE#         353
  C:4616H         LINE#         354
  C:4618H         LINE#         355
  C:461AH         LINE#         358
  C:461FH         LINE#         359
  C:4622H         LINE#         360
  C:4628H         LINE#         362
  C:4683H         LINE#         363
  C:468BH         LINE#         364
  C:468EH         LINE#         365
BL51 BANKED LINKER/LOCATER V6.22.2.0                                                  09/02/2020  07:28:03  PAGE 34


  C:46E9H         LINE#         367
  C:46F1H         LINE#         368
  C:46F4H         LINE#         369
  C:46FAH         LINE#         370
  C:4755H         LINE#         371
  C:475DH         LINE#         372
  C:4760H         LINE#         373
  C:47BBH         LINE#         374
  C:47BBH         LINE#         376
  C:47C4H         LINE#         377
  C:47C4H         LINE#         378
  C:47CCH         LINE#         379
  C:47D2H         LINE#         380
  C:47D4H         LINE#         381
  C:47EAH         LINE#         382
  C:47F4H         LINE#         383
  C:47FDH         LINE#         384
  C:47FDH         LINE#         385
  C:4805H         LINE#         386
  C:480BH         LINE#         387
  C:480DH         LINE#         388
  C:4823H         LINE#         389
  C:482DH         LINE#         390
  C:4836H         LINE#         391
  C:4836H         LINE#         392
  C:483EH         LINE#         393
  C:4844H         LINE#         394
  C:4846H         LINE#         395
  C:485CH         LINE#         396
  C:4866H         LINE#         397
  C:486FH         LINE#         398
  C:486FH         LINE#         399
  C:4877H         LINE#         400
  C:487DH         LINE#         401
  C:487FH         LINE#         402
  C:4895H         LINE#         403
  C:489FH         LINE#         404
  C:48B2H         LINE#         405
  C:48BCH         LINE#         406
  -------         ENDPROC       _TWO_BYTEHEX_DECIMAL
  -------         PROC          _BLOCK_READ_CLOCK_ASCII
  X:0065H         SYMBOL        datos_clock
  -------         DO            
  D:0007H         SYMBOL        dato
  -------         ENDDO         
  C:5C9DH         LINE#         412
  C:5CA0H         LINE#         413
  C:5CA0H         LINE#         419
  C:5CA3H         LINE#         420
  C:5CBBH         LINE#         421
  C:5CC5H         LINE#         422
  C:5CDAH         LINE#         423
  C:5CE4H         LINE#         426
  C:5CE9H         LINE#         427
  C:5D01H         LINE#         428
  C:5D0BH         LINE#         429
  C:5D20H         LINE#         430
BL51 BANKED LINKER/LOCATER V6.22.2.0                                                  09/02/2020  07:28:03  PAGE 35


  C:5D2AH         LINE#         433
  C:5D2FH         LINE#         434
  C:5D47H         LINE#         435
  C:5D51H         LINE#         436
  C:5D66H         LINE#         437
  C:5D70H         LINE#         441
  C:5D75H         LINE#         442
  C:5D8DH         LINE#         443
  C:5D97H         LINE#         444
  C:5DACH         LINE#         445
  C:5DB6H         LINE#         448
  C:5DBBH         LINE#         449
  C:5DD3H         LINE#         450
  C:5DDDH         LINE#         451
  C:5DF2H         LINE#         452
  C:5DFCH         LINE#         453
  -------         ENDPROC       _BLOCK_READ_CLOCK_ASCII
  -------         PROC          _BLOCK_READ_CLOCK_HEX
  X:00C2H         SYMBOL        datos_clock
  C:85DDH         LINE#         456
  C:85E0H         LINE#         457
  C:85E0H         LINE#         460
  C:85F5H         LINE#         461
  C:85FFH         LINE#         463
  C:8616H         LINE#         464
  C:8620H         LINE#         466
  C:8637H         LINE#         467
  C:8641H         LINE#         469
  C:8658H         LINE#         470
  C:8662H         LINE#         472
  C:8679H         LINE#         473
  -------         ENDPROC       _BLOCK_READ_CLOCK_HEX
  -------         PROC          _HEX_ASCII
  X:0071H         SYMBOL        datos
  X:0074H         SYMBOL        fecha_asii
  -------         DO            
  D:0007H         SYMBOL        dato
  -------         ENDDO         
  C:8AC6H         LINE#         476
  C:8AD1H         LINE#         477
  C:8AD1H         LINE#         481
  C:8AD4H         LINE#         482
  C:8AECH         LINE#         483
  C:8B01H         LINE#         484
  C:8B01H         LINE#         486
  C:8B04H         LINE#         487
  C:8B1FH         LINE#         488
  C:8B27H         LINE#         489
  C:8B27H         LINE#         491
  C:8B2AH         LINE#         492
  C:8B45H         LINE#         493
  C:8B50H         LINE#         495
  -------         ENDPROC       _HEX_ASCII
  -------         PROC          _BLOCK_READ_CLOCK
  X:001DH         SYMBOL        datos_clock
  C:7D5BH         LINE#         522
  C:7D5EH         LINE#         523
BL51 BANKED LINKER/LOCATER V6.22.2.0                                                  09/02/2020  07:28:03  PAGE 36


  C:7D5EH         LINE#         525
  C:7D70H         LINE#         526
  C:7D7AH         LINE#         528
  C:7D8EH         LINE#         529
  C:7D98H         LINE#         531
  C:7DACH         LINE#         532
  C:7DB6H         LINE#         534
  C:7DCAH         LINE#         535
  C:7DD4H         LINE#         537
  C:7DE8H         LINE#         538
  C:7DF2H         LINE#         540
  C:7E06H         LINE#         541
  C:7E10H         LINE#         542
  -------         ENDPROC       _BLOCK_READ_CLOCK
  -------         PROC          COND_INI_CLOCK
  C:A269H         LINE#         545
  C:A269H         LINE#         546
  C:A269H         LINE#         547
  C:A26BH         LINE#         548
  C:A26DH         LINE#         549
  C:A26FH         LINE#         550
  -------         ENDPROC       COND_INI_CLOCK
  -------         PROC          _CHECK_FECHAOUT
  X:000EH         SYMBOL        buffer
  -------         DO            
  X:0011H         SYMBOL        temp
  X:0012H         SYMBOL        datos_clk
  -------         ENDDO         
  C:5B24H         LINE#         560
  C:5B2FH         LINE#         561
  C:5B2FH         LINE#         562
  C:5B33H         LINE#         568
  C:5B7CH         LINE#         569
  C:5B7CH         LINE#         571
  C:5B81H         LINE#         573
  C:5B84H         LINE#         575
  C:5B84H         LINE#         577
  C:5B8DH         LINE#         579
  C:5B95H         LINE#         580
  C:5B95H         LINE#         581
  C:5B9EH         LINE#         583
  C:5B9EH         LINE#         586
  C:5BC1H         LINE#         587
  C:5BC1H         LINE#         588
  C:5BC1H         LINE#         589
  C:5BC4H         LINE#         590
  C:5BCEH         LINE#         591
  C:5BCEH         LINE#         592
  C:5BF4H         LINE#         593
  C:5BF4H         LINE#         594
  C:5BF4H         LINE#         595
  C:5BF7H         LINE#         596
  C:5C01H         LINE#         597
  C:5C01H         LINE#         598
  C:5C27H         LINE#         599
  C:5C27H         LINE#         600
  C:5C27H         LINE#         601
BL51 BANKED LINKER/LOCATER V6.22.2.0                                                  09/02/2020  07:28:03  PAGE 37


  C:5C29H         LINE#         602
  C:5C30H         LINE#         603
  C:5C30H         LINE#         604
  C:5C56H         LINE#         605
  C:5C56H         LINE#         606
  C:5C56H         LINE#         607
  C:5C58H         LINE#         608
  C:5C5FH         LINE#         609
  C:5C5FH         LINE#         610
  C:5C84H         LINE#         611
  C:5C84H         LINE#         612
  C:5C89H         LINE#         613
  C:5C8BH         LINE#         621
  C:5C8BH         LINE#         622
  C:5C8BH         LINE#         623
  C:5C8BH         LINE#         624
  C:5C8DH         LINE#         626
  C:5C8DH         LINE#         627
  C:5C8DH         LINE#         628
  C:5C8DH         LINE#         629
  C:5C8FH         LINE#         631
  C:5C8FH         LINE#         632
  C:5C8FH         LINE#         633
  C:5C8FH         LINE#         634
  C:5C91H         LINE#         636
  C:5C91H         LINE#         637
  C:5C97H         LINE#         639
  C:5C97H         LINE#         641
  C:5C97H         LINE#         642
  C:5C9CH         LINE#         643
  -------         ENDPROC       _CHECK_FECHAOUT
  -------         PROC          _CHECK_FECHAOUT_2
  X:00B0H         SYMBOL        buffer
  -------         DO            
  X:00B3H         SYMBOL        fecha_inicio
  X:00B7H         SYMBOL        fecha_fin
  X:00BBH         SYMBOL        datos_clk
  X:00C1H         SYMBOL        temp
  -------         ENDDO         
  C:805CH         LINE#         644
  C:8067H         LINE#         645
  C:8067H         LINE#         651
  C:8070H         LINE#         652
  C:809FH         LINE#         653
  C:80E4H         LINE#         656
  C:8104H         LINE#         657
  C:8104H         LINE#         658
  C:810AH         LINE#         659
  C:810CH         LINE#         661
  C:810CH         LINE#         662
  C:8111H         LINE#         663
  C:8111H         LINE#         667
  C:8116H         LINE#         668
  -------         ENDPROC       _CHECK_FECHAOUT_2
  -------         PROC          _ANALIZA_TIEMPO
  X:000EH         SYMBOL        buffer
  X:0011H         SYMBOL        Val_DctoMinutos
BL51 BANKED LINKER/LOCATER V6.22.2.0                                                  09/02/2020  07:28:03  PAGE 38


  -------         DO            
  X:0013H         SYMBOL        ano_inT
  B:0020H.0       SYMBOL        bisiesto
  X:0015H         SYMBOL        ano_out
  X:0016H         SYMBOL        mes_out
  X:0017H         SYMBOL        dia_out
  X:0018H         SYMBOL        hora_out
  X:0019H         SYMBOL        min_out
  X:001AH         SYMBOL        Horas_Dcto
  X:001BH         SYMBOL        Minutos_Dcto
  X:001CH         SYMBOL        Xtemp
  B:0020H.1       SYMBOL        Tiempo_Dcto
  -------         ENDDO         
  C:2B6BH         LINE#         670
  C:2B7EH         LINE#         671
  C:2B7EH         LINE#         675
  C:2B80H         LINE#         680
  C:2B82H         LINE#         682
  C:2BDDH         LINE#         683
  C:2BDDH         LINE#         688
  C:2BEFH         LINE#         689
  C:2BEFH         LINE#         690
  C:2BFFH         LINE#         691
  C:2C09H         LINE#         693
  C:2C0BH         LINE#         695
  C:2C0BH         LINE#         696
  C:2C11H         LINE#         697
  C:2C16H         LINE#         698
  C:2C16H         LINE#         702
  C:2C20H         LINE#         703
  C:2C20H         LINE#         704
  C:2C38H         LINE#         705
  C:2C44H         LINE#         706
  C:2C44H         LINE#         708
  C:2C4EH         LINE#         709
  C:2C5CH         LINE#         711
  C:2C69H         LINE#         712
  C:2C75H         LINE#         713
  C:2C75H         LINE#         714
  C:2C7FH         LINE#         715
  C:2C8DH         LINE#         717
  C:2C9AH         LINE#         718
  C:2CCFH         LINE#         719
  C:2CCFH         LINE#         720
  C:2CDCH         LINE#         721
  C:2CDCH         LINE#         722
  C:2CE0H         LINE#         723
  C:2CF6H         LINE#         724
  C:2CFFH         LINE#         725
  C:2CFFH         LINE#         726
  C:2D07H         LINE#         727
  C:2D0BH         LINE#         728
  C:2D0EH         LINE#         735
  C:2D0EH         LINE#         736
  C:2D23H         LINE#         737
  C:2D23H         LINE#         738
  C:2D23H         LINE#         739
BL51 BANKED LINKER/LOCATER V6.22.2.0                                                  09/02/2020  07:28:03  PAGE 39


  C:2D26H         LINE#         740
  C:2D54H         LINE#         741
  C:2D54H         LINE#         742
  C:2D61H         LINE#         743
  C:2D61H         LINE#         744
  C:2D65H         LINE#         745
  C:2D6CH         LINE#         746
  C:2D6CH         LINE#         747
  C:2D6EH         LINE#         749
  C:2D6EH         LINE#         750
  C:2D78H         LINE#         751
  C:2D78H         LINE#         752
  C:2D78H         LINE#         754
  C:2D7BH         LINE#         755
  C:2D9AH         LINE#         756
  C:2D9AH         LINE#         758
  C:2DB1H         LINE#         759
  C:2DB3H         LINE#         799
  C:2DDCH         LINE#         800
  C:2DDCH         LINE#         801
  C:2DDEH         LINE#         802
  C:2DDEH         LINE#         804
  C:2DE1H         LINE#         805
  C:2DE1H         LINE#         806
  C:2DFAH         LINE#         807
  C:2DFAH         LINE#         808
  C:2E01H         LINE#         809
  C:2E08H         LINE#         810
  C:2E0FH         LINE#         812
  C:2E11H         LINE#         814
  C:2E11H         LINE#         815
  C:2E18H         LINE#         816
  C:2E1DH         LINE#         817
  C:2E27H         LINE#         818
  C:2E27H         LINE#         819
  C:2E2AH         LINE#         821
  C:2E2AH         LINE#         822
  C:2E38H         LINE#         823
  C:2E38H         LINE#         824
  C:2E3CH         LINE#         825
  C:2E4EH         LINE#         826
  C:2E4EH         LINE#         827
  C:2E50H         LINE#         829
  C:2E50H         LINE#         830
  C:2E55H         LINE#         831
  C:2E6AH         LINE#         832
  C:2E6AH         LINE#         833
  C:2E6AH         LINE#         834
  C:2E6AH         LINE#         836
  C:2E6DH         LINE#         838
  C:2E6DH         LINE#         839
  C:2E72H         LINE#         840
  C:2E87H         LINE#         841
  C:2E87H         LINE#         842
  C:2E87H         LINE#         843
  C:2E8AH         LINE#         845
  C:2E8AH         LINE#         846
BL51 BANKED LINKER/LOCATER V6.22.2.0                                                  09/02/2020  07:28:03  PAGE 40


  C:2E9FH         LINE#         847
  C:2EA9H         LINE#         848
  C:2EA9H         LINE#         849
  C:2EA9H         LINE#         850
  C:2EABH         LINE#         852
  C:2EABH         LINE#         853
  C:2EC0H         LINE#         854
  C:2ECAH         LINE#         855
  C:2ED4H         LINE#         856
  C:2ED4H         LINE#         857
  C:2ED4H         LINE#         858
  C:2ED6H         LINE#         860
  C:2ED6H         LINE#         861
  C:2EEBH         LINE#         862
  C:2EF5H         LINE#         863
  C:2EFFH         LINE#         864
  C:2F09H         LINE#         865
  C:2F10H         LINE#         866
  C:2F10H         LINE#         870
  C:2F1AH         LINE#         871
  C:2F1AH         LINE#         872
  C:2F20H         LINE#         873
  C:2F2EH         LINE#         874
  C:2F2EH         LINE#         875
  C:2F37H         LINE#         876
  C:2F45H         LINE#         878
  C:2F4BH         LINE#         879
  C:2F72H         LINE#         880
  C:2F72H         LINE#         881
  C:2F82H         LINE#         882
  C:2F82H         LINE#         883
  C:2F86H         LINE#         884
  C:2F8CH         LINE#         885
  C:2F9AH         LINE#         886
  C:2F9AH         LINE#         887
  C:2F9CH         LINE#         888
  C:2FA0H         LINE#         889
  C:2FA3H         LINE#         891
  C:2FA3H         LINE#         892
  C:2FA4H         LINE#         893
  C:2FA4H         LINE#         894
  C:2FA4H         LINE#         895
  C:2FA7H         LINE#         896
  C:2FBFH         LINE#         897
  C:2FBFH         LINE#         898
  C:2FCCH         LINE#         899
  C:2FCCH         LINE#         900
  C:2FD0H         LINE#         901
  C:2FD5H         LINE#         902
  C:2FD5H         LINE#         903
  C:2FD8H         LINE#         905
  C:2FD8H         LINE#         906
  C:2FDCH         LINE#         907
  C:2FDCH         LINE#         908
  C:2FDCH         LINE#         909
  C:2FDEH         LINE#         910
  C:2FE7H         LINE#         911
BL51 BANKED LINKER/LOCATER V6.22.2.0                                                  09/02/2020  07:28:03  PAGE 41


  C:2FE7H         LINE#         913
  C:2FFCH         LINE#         914
  C:2FFEH         LINE#         947
  C:301DH         LINE#         948
  C:301DH         LINE#         949
  C:301FH         LINE#         950
  C:301FH         LINE#         953
  C:3022H         LINE#         954
  C:3022H         LINE#         955
  C:3030H         LINE#         956
  C:3030H         LINE#         957
  C:3034H         LINE#         958
  C:3039H         LINE#         959
  C:3039H         LINE#         960
  C:303BH         LINE#         962
  C:303BH         LINE#         963
  C:3040H         LINE#         964
  C:3044H         LINE#         965
  C:3044H         LINE#         966
  C:3044H         LINE#         967
  C:3046H         LINE#         969
  C:3046H         LINE#         970
  C:3053H         LINE#         971
  C:3053H         LINE#         972
  C:3057H         LINE#         973
  C:305DH         LINE#         974
  C:3062H         LINE#         975
  C:3062H         LINE#         976
  C:3062H         LINE#         978
  C:3062H         LINE#         980
  C:3062H         LINE#         981
  C:3062H         LINE#         984
  C:3079H         LINE#         985
  C:3083H         LINE#         986
  C:308DH         LINE#         987
  C:3097H         LINE#         988
  C:30A1H         LINE#         990
  C:30A1H         LINE#         993
  -------         ENDPROC       _ANALIZA_TIEMPO
  -------         ENDMOD        CLOCK

  -------         MODULE        DELAY
  C:0000H         SYMBOL        _ICE_DUMMY_
  C:9E7BH         PUBLIC        _Delay_10ms
  C:A1A6H         PUBLIC        _Delay_20us
  C:A131H         PUBLIC        _Delay_1ms
  C:A2B2H         PUBLIC        Delay
  -------         PROC          _DELAY_20US
  D:0006H         SYMBOL        cnt
  -------         DO            
  D:0004H         SYMBOL        i
  -------         ENDDO         
  C:A1A6H         LINE#         20
  C:A1A6H         LINE#         21
  C:A1A6H         LINE#         24
  C:A1B0H         LINE#         26
  C:A1B7H         LINE#         27
BL51 BANKED LINKER/LOCATER V6.22.2.0                                                  09/02/2020  07:28:03  PAGE 42


  -------         ENDPROC       _DELAY_20US
  -------         PROC          _DELAY_1MS
  D:0002H         SYMBOL        cnt
  -------         DO            
  D:0082H         SYMBOL        i
  -------         ENDDO         
  C:A131H         LINE#         38
  C:A135H         LINE#         39
  C:A135H         LINE#         41
  C:A14BH         LINE#         42
  -------         ENDPROC       _DELAY_1MS
  -------         PROC          _DELAY_10MS
  X:000FH         SYMBOL        cnt
  -------         DO            
  X:0011H         SYMBOL        i
  -------         ENDDO         
  C:9E7BH         LINE#         54
  C:9E83H         LINE#         55
  C:9E83H         LINE#         57
  C:9EB4H         LINE#         58
  -------         ENDPROC       _DELAY_10MS
  -------         PROC          DELAY
  C:A2B2H         LINE#         60
  C:A2B2H         LINE#         62
  -------         ENDPROC       DELAY
  -------         ENDMOD        DELAY

  -------         MODULE        EEPROM
  C:0000H         SYMBOL        _ICE_DUMMY_
  D:0090H         PUBLIC        P1
  C:961EH         PUBLIC        _EscribirMemoria
  X:01FBH         PUBLIC        l_chr
  C:A05CH         PUBLIC        ackd
  B:0021H.6       PUBLIC        memory_flag
  B:00D0H.7       PUBLIC        CY
  C:A29AH         PUBLIC        p_me
  C:9926H         PUBLIC        variable_inicio
  C:A1C0H         PUBLIC        start
  B:0090H.2       PUBLIC        sda
  C:A07CH         PUBLIC        ack_lect
  B:0090H.3       PUBLIC        scl
  C:9E07H         PUBLIC        _rd_eeprom
  C:A257H         PUBLIC        stop
  X:01FCH         PUBLIC        l_data_eeprom
  C:98E7H         PUBLIC        _wr_eeprom
  C:96F8H         PUBLIC        _LeerMemoria
  X:01FDH         PUBLIC        byte_rd
  C:A037H         PUBLIC        _e_d_m
  C:997CH         PUBLIC        l_d_m
  -------         PROC          L?0048
  -------         ENDPROC       L?0048
  -------         PROC          ACKD
  -------         DO            
  D:0006H         SYMBOL        i
  -------         ENDDO         
  C:A05CH         LINE#         44
  C:A05CH         LINE#         45
BL51 BANKED LINKER/LOCATER V6.22.2.0                                                  09/02/2020  07:28:03  PAGE 43


  C:A05CH         LINE#         47
  C:A05EH         LINE#         48
  C:A060H         LINE#         49
  C:A062H         LINE#         50
  C:A065H         LINE#         51
  C:A065H         LINE#         52
  C:A068H         LINE#         53
  C:A068H         LINE#         54
  C:A06AH         LINE#         55
  C:A06CH         LINE#         57
  C:A06DH         LINE#         58
  C:A06DH         LINE#         59
  C:A078H         LINE#         61
  C:A078H         LINE#         62
  C:A078H         LINE#         64
  C:A078H         LINE#         65
  -------         ENDPROC       ACKD
  -------         PROC          L?0050
  -------         ENDPROC       L?0050
  -------         PROC          ACK_LECT
  -------         DO            
  D:0006H         SYMBOL        i
  -------         ENDDO         
  C:A07CH         LINE#         68
  C:A07CH         LINE#         69
  C:A07CH         LINE#         71
  C:A07EH         LINE#         72
  C:A080H         LINE#         73
  C:A082H         LINE#         74
  C:A085H         LINE#         75
  C:A085H         LINE#         76
  C:A088H         LINE#         77
  C:A088H         LINE#         78
  C:A08AH         LINE#         79
  C:A08CH         LINE#         80
  C:A08DH         LINE#         81
  C:A08DH         LINE#         82
  C:A098H         LINE#         83
  -------         ENDPROC       ACK_LECT
  -------         PROC          P_ME
  C:A29AH         LINE#         85
  C:A29AH         LINE#         86
  C:A29AH         LINE#         87
  C:A29CH         LINE#         88
  C:A29DH         LINE#         89
  C:A29FH         LINE#         90
  -------         ENDPROC       P_ME
  -------         PROC          _E_D_M
  D:0007H         SYMBOL        a_serial_eeprom
  -------         DO            
  D:0006H         SYMBOL        nbits
  -------         ENDDO         
  C:A037H         LINE#         92
  C:A037H         LINE#         93
  C:A037H         LINE#         95
  C:A043H         LINE#         96
  C:A043H         LINE#         97
BL51 BANKED LINKER/LOCATER V6.22.2.0                                                  09/02/2020  07:28:03  PAGE 44


  C:A047H         LINE#         98
  C:A04AH         LINE#         99
  C:A04AH         LINE#         100
  C:A04CH         LINE#         101
  C:A04EH         LINE#         103
  C:A04EH         LINE#         104
  C:A050H         LINE#         105
  C:A050H         LINE#         106
  C:A052H         LINE#         107
  C:A055H         LINE#         108
  C:A058H         LINE#         110
  -------         ENDPROC       _E_D_M
  -------         PROC          L?0049
  -------         ENDPROC       L?0049
  -------         PROC          START
  C:A1C0H         LINE#         112
  C:A1C0H         LINE#         113
  C:A1C0H         LINE#         114
  C:A1C2H         LINE#         115
  C:A1C4H         LINE#         116
  C:A1C5H         LINE#         117
  C:A1C7H         LINE#         118
  C:A1C9H         LINE#         120
  -------         ENDPROC       START
  -------         PROC          STOP
  C:A257H         LINE#         122
  C:A257H         LINE#         123
  C:A257H         LINE#         124
  C:A259H         LINE#         125
  C:A25BH         LINE#         126
  C:A25DH         LINE#         127
  C:A25FH         LINE#         129
  -------         ENDPROC       STOP
  -------         PROC          L_D_M
  -------         DO            
  D:0003H         SYMBOL        nbits
  -------         ENDDO         
  C:997CH         LINE#         131
  C:997CH         LINE#         132
  C:997CH         LINE#         134
  C:9989H         LINE#         135
  C:9989H         LINE#         136
  C:998BH         LINE#         137
  C:998EH         LINE#         138
  C:998EH         LINE#         139
  C:9995H         LINE#         140
  C:999EH         LINE#         141
  C:999EH         LINE#         142
  C:99A2H         LINE#         143
  C:99A4H         LINE#         144
  C:99A4H         LINE#         145
  C:99A4H         LINE#         146
  C:99A7H         LINE#         147
  C:99A7H         LINE#         148
  C:99AEH         LINE#         149
  C:99B8H         LINE#         150
  C:99B8H         LINE#         151
BL51 BANKED LINKER/LOCATER V6.22.2.0                                                  09/02/2020  07:28:03  PAGE 45


  C:99BCH         LINE#         152
  C:99BEH         LINE#         153
  C:99BEH         LINE#         154
  C:99BEH         LINE#         155
  C:99C1H         LINE#         156
  C:99C3H         LINE#         157
  C:99C8H         LINE#         158
  -------         ENDPROC       L_D_M
  -------         PROC          L?0045
  -------         ENDPROC       L?0045
  -------         PROC          _WR_EEPROM
  D:0002H         SYMBOL        control
  D:0004H         SYMBOL        Dir
  D:0003H         SYMBOL        data_eeprom
  -------         DO            
  D:0005H         SYMBOL        dir_h
  D:0001H         SYMBOL        dir_l
  -------         ENDDO         
  C:98E7H         LINE#         164
  C:98E9H         LINE#         165
  C:98E9H         LINE#         167
  C:98EDH         LINE#         168
  C:98EDH         LINE#         169
  C:98EDH         LINE#         172
  C:98EDH         LINE#         173
  C:98EDH         LINE#         175
  C:98F0H         LINE#         176
  C:98F2H         LINE#         177
  C:98F5H         LINE#         178
  C:98F7H         LINE#         179
  C:98FAH         LINE#         180
  C:98FFH         LINE#         181
  C:9902H         LINE#         182
  C:9907H         LINE#         183
  C:990AH         LINE#         184
  C:990DH         LINE#         185
  C:9914H         LINE#         187
  C:9916H         LINE#         188
  C:9918H         LINE#         189
  C:991FH         LINE#         190
  -------         ENDPROC       _WR_EEPROM
  C:9E03H         SYMBOL        L?0047
  -------         PROC          L?0046
  -------         ENDPROC       L?0046
  C:9E03H         SYMBOL        L?0047
  -------         PROC          _RD_EEPROM
  D:0003H         SYMBOL        control
  D:0004H         SYMBOL        Dir
  -------         DO            
  D:0005H         SYMBOL        dir_h
  D:0002H         SYMBOL        dir_l
  -------         ENDDO         
  C:9E07H         LINE#         228
  C:9E09H         LINE#         229
  C:9E09H         LINE#         232
  C:9E0DH         LINE#         233
  C:9E0DH         LINE#         234
BL51 BANKED LINKER/LOCATER V6.22.2.0                                                  09/02/2020  07:28:03  PAGE 46


  C:9E0DH         LINE#         236
  C:9E0DH         LINE#         237
  C:9E0DH         LINE#         239
  C:9E10H         LINE#         240
  C:9E12H         LINE#         241
  C:9E15H         LINE#         242
  C:9E17H         LINE#         243
  C:9E1AH         LINE#         244
  C:9E1FH         LINE#         245
  C:9E22H         LINE#         246
  C:9E25H         LINE#         247
  C:9E2BH         LINE#         248
  C:9E2EH         LINE#         249
  C:9E30H         LINE#         250
  C:9E33H         LINE#         251
  C:9E36H         LINE#         252
  C:9E38H         LINE#         253
  C:9E3AH         LINE#         254
  C:9E3FH         LINE#         255
  -------         ENDPROC       _RD_EEPROM
  -------         PROC          VARIABLE_INICIO
  C:9926H         LINE#         259
  C:9926H         LINE#         260
  C:9926H         LINE#         262
  C:9936H         LINE#         263
  C:9943H         LINE#         264
  C:9950H         LINE#         265
  C:995DH         LINE#         266
  C:9967H         LINE#         268
  C:9971H         LINE#         269
  C:997BH         LINE#         270
  -------         ENDPROC       VARIABLE_INICIO
  -------         PROC          _LEERMEMORIA
  X:00B0H         SYMBOL        addres
  X:00B2H         SYMBOL        res
  -------         DO            
  D:0007H         SYMBOL        i
  -------         ENDDO         
  C:96F8H         LINE#         274
  C:9709H         LINE#         275
  C:9709H         LINE#         277
  C:9709H         LINE#         278
  C:9725H         LINE#         279
  C:9734H         LINE#         280
  C:9742H         LINE#         281
  C:974CH         LINE#         282
  C:974FH         LINE#         283
  -------         ENDPROC       _LEERMEMORIA
  -------         PROC          _ESCRIBIRMEMORIA
  X:0071H         SYMBOL        addres
  X:0073H         SYMBOL        res
  C:961EH         LINE#         285
  C:962FH         LINE#         286
  C:962FH         LINE#         289
  C:963FH         LINE#         290
  C:9646H         LINE#         291
  C:9649H         LINE#         293
BL51 BANKED LINKER/LOCATER V6.22.2.0                                                  09/02/2020  07:28:03  PAGE 47


  C:9657H         LINE#         294
  C:9661H         LINE#         295
  C:9663H         LINE#         296
  C:9666H         LINE#         297
  C:9674H         LINE#         298
  C:967EH         LINE#         299
  -------         ENDPROC       _ESCRIBIRMEMORIA
  -------         ENDMOD        EEPROM

  -------         MODULE        IO_SENSORES
  C:0000H         SYMBOL        _ICE_DUMMY_
  D:0090H         PUBLIC        P1
  D:00B0H         PUBLIC        P3
  C:A1CAH         PUBLIC        Dir_board
  B:0090H.1       PUBLIC        DataIn
  C:A277H         PUBLIC        sel_Auto
  C:94C7H         PUBLIC        ValidaSensoresPaso
  B:00B0H.3       PUBLIC        busy
  C:A0B8H         PUBLIC        ValidaSensores_Out
  C:A099H         PUBLIC        ValidaSensor
  C:A285H         PUBLIC        sel_Sensor1
  C:A27EH         PUBLIC        sel_Sensor2
  B:00B0H.5       PUBLIC        sel_A
  B:00B0H.6       PUBLIC        sel_B
  B:00B0H.7       PUBLIC        sel_C
  C:91D6H         PUBLIC        msj_lcd_informativo
  C:A28CH         PUBLIC        sel_Dir1
  C:A293H         PUBLIC        sel_Dir2
  C:A270H         PUBLIC        sel_Funcion
  -------         PROC          SEL_FUNCION
  C:A270H         LINE#         29
  C:A270H         LINE#         30
  C:A270H         LINE#         31
  C:A272H         LINE#         32
  C:A274H         LINE#         33
  C:A276H         LINE#         34
  -------         ENDPROC       SEL_FUNCION
  -------         PROC          SEL_AUTO
  C:A277H         LINE#         36
  C:A277H         LINE#         37
  C:A277H         LINE#         38
  C:A279H         LINE#         39
  C:A27BH         LINE#         40
  C:A27DH         LINE#         41
  -------         ENDPROC       SEL_AUTO
  -------         PROC          SEL_SENSOR2
  C:A27EH         LINE#         52
  C:A27EH         LINE#         53
  C:A27EH         LINE#         54
  C:A280H         LINE#         55
  C:A282H         LINE#         56
  C:A284H         LINE#         57
  -------         ENDPROC       SEL_SENSOR2
  -------         PROC          SEL_SENSOR1
  C:A285H         LINE#         59
  C:A285H         LINE#         60
  C:A285H         LINE#         61
BL51 BANKED LINKER/LOCATER V6.22.2.0                                                  09/02/2020  07:28:03  PAGE 48


  C:A287H         LINE#         62
  C:A289H         LINE#         63
  C:A28BH         LINE#         64
  -------         ENDPROC       SEL_SENSOR1
  -------         PROC          SEL_DIR1
  C:A28CH         LINE#         66
  C:A28CH         LINE#         67
  C:A28CH         LINE#         68
  C:A28EH         LINE#         69
  C:A290H         LINE#         70
  C:A292H         LINE#         71
  -------         ENDPROC       SEL_DIR1
  -------         PROC          SEL_DIR2
  C:A293H         LINE#         73
  C:A293H         LINE#         74
  C:A293H         LINE#         75
  C:A295H         LINE#         76
  C:A297H         LINE#         77
  C:A299H         LINE#         78
  -------         ENDPROC       SEL_DIR2
  -------         PROC          VALIDASENSOR
  -------         DO            
  D:0007H         SYMBOL        Valido
  D:0004H         SYMBOL        Tmin
  -------         ENDDO         
  C:A099H         LINE#         80
  C:A099H         LINE#         81
  C:A099H         LINE#         83
  C:A09BH         LINE#         84
  C:A09FH         LINE#         85
  C:A0AAH         LINE#         86
  C:A0AAH         LINE#         87
  C:A0AFH         LINE#         88
  C:A0B3H         LINE#         89
  C:A0B3H         LINE#         90
  C:A0B5H         LINE#         91
  C:A0B5H         LINE#         92
  C:A0B7H         LINE#         93
  C:A0B7H         LINE#         94
  -------         ENDPROC       VALIDASENSOR
  -------         PROC          DIR_BOARD
  -------         DO            
  D:0007H         SYMBOL        Board
  -------         ENDDO         
  C:A1CAH         LINE#         98
  C:A1CAH         LINE#         99
  C:A1CAH         LINE#         100
  C:A1CCH         LINE#         102
  C:A1CFH         LINE#         103
  C:A1D2H         LINE#         104
  C:A1D2H         LINE#         105
  C:A1D3H         LINE#         106
  C:A1D3H         LINE#         107
  C:A1D6H         LINE#         108
  C:A1D9H         LINE#         109
  C:A1D9H         LINE#         110
  C:A1DBH         LINE#         111
BL51 BANKED LINKER/LOCATER V6.22.2.0                                                  09/02/2020  07:28:03  PAGE 49


  C:A1DBH         LINE#         112
  C:A1DBH         LINE#         113
  -------         ENDPROC       DIR_BOARD
  -------         PROC          VALIDASENSORESPASO
  C:94C7H         LINE#         121
  C:94C7H         LINE#         122
  C:94C7H         LINE#         124
  C:94CAH         LINE#         125
  C:94CDH         LINE#         126
  C:94CDH         LINE#         127
  C:94DBH         LINE#         128
  C:94DBH         LINE#         129
  C:94DEH         LINE#         130
  C:94E1H         LINE#         131
  C:94E4H         LINE#         132
  C:94E9H         LINE#         133
  C:94E9H         LINE#         134
  C:94F0H         LINE#         135
  C:94F4H         LINE#         136
  C:94F6H         LINE#         138
  C:94F6H         LINE#         140
  C:94F6H         LINE#         141
  C:94FDH         LINE#         142
  C:9502H         LINE#         143
  C:9504H         LINE#         144
  C:9504H         LINE#         147
  C:9504H         LINE#         149
  C:9507H         LINE#         150
  C:950CH         LINE#         151
  C:950CH         LINE#         153
  C:9513H         LINE#         154
  C:9519H         LINE#         155
  C:951CH         LINE#         156
  C:951CH         LINE#         158
  C:951CH         LINE#         159
  C:9520H         LINE#         160
  C:9522H         LINE#         161
  C:9522H         LINE#         164
  C:9522H         LINE#         165
  C:9522H         LINE#         167
  C:9522H         LINE#         168
  C:952BH         LINE#         169
  C:952EH         LINE#         170
  C:952EH         LINE#         171
  C:952EH         LINE#         172
  C:952EH         LINE#         173
  C:9537H         LINE#         174
  C:9539H         LINE#         175
  C:9539H         LINE#         177
  -------         ENDPROC       VALIDASENSORESPASO
  -------         PROC          VALIDASENSORES_OUT
  -------         DO            
  D:0006H         SYMBOL        valido
  -------         ENDDO         
  C:A0B8H         LINE#         179
  C:A0B8H         LINE#         180
  C:A0B8H         LINE#         181
BL51 BANKED LINKER/LOCATER V6.22.2.0                                                  09/02/2020  07:28:03  PAGE 50


  C:A0BAH         LINE#         183
  C:A0BDH         LINE#         184
  C:A0C0H         LINE#         185
  C:A0C0H         LINE#         186
  C:A0CFH         LINE#         187
  C:A0CFH         LINE#         188
  C:A0CFH         LINE#         189
  C:A0D1H         LINE#         190
  C:A0D1H         LINE#         192
  C:A0D1H         LINE#         193
  C:A0D1H         LINE#         194
  C:A0D4H         LINE#         195
  C:A0D4H         LINE#         196
  C:A0D4H         LINE#         198
  C:A0D4H         LINE#         199
  C:A0D4H         LINE#         200
  C:A0D6H         LINE#         201
  C:A0D6H         LINE#         202
  -------         ENDPROC       VALIDASENSORES_OUT
  -------         PROC          MSJ_LCD_INFORMATIVO
  -------         DO            
  X:0001H         SYMBOL        info
  X:0207H         SYMBOL        toggle
  -------         ENDDO         
  C:91D6H         LINE#         209
  C:91D6H         LINE#         210
  C:91D6H         LINE#         211
  C:91DBH         LINE#         213
  C:91DEH         LINE#         214
  C:91E1H         LINE#         215
  C:91E1H         LINE#         216
  C:91EDH         LINE#         217
  C:91EDH         LINE#         218
  C:91F0H         LINE#         219
  C:91F0H         LINE#         220
  C:91F2H         LINE#         221
  C:91F5H         LINE#         222
  C:91FBH         LINE#         223
  C:91FBH         LINE#         224
  C:91FDH         LINE#         225
  C:920BH         LINE#         226
  C:920BH         LINE#         227
  C:920EH         LINE#         228
  C:920EH         LINE#         229
  C:9210H         LINE#         230
  C:9213H         LINE#         231
  C:9219H         LINE#         232
  C:9219H         LINE#         233
  C:921BH         LINE#         234
  C:9229H         LINE#         235
  C:9229H         LINE#         236
  C:922CH         LINE#         237
  C:922CH         LINE#         238
  C:922EH         LINE#         239
  C:923CH         LINE#         240
  C:923CH         LINE#         241
  C:923EH         LINE#         242
BL51 BANKED LINKER/LOCATER V6.22.2.0                                                  09/02/2020  07:28:03  PAGE 51


  C:9245H         LINE#         244
  C:924AH         LINE#         245
  C:924AH         LINE#         247
  C:924AH         LINE#         249
  C:924AH         LINE#         251
  C:924DH         LINE#         252
  C:9250H         LINE#         253
  C:9250H         LINE#         254
  C:9255H         LINE#         255
  C:9255H         LINE#         257
  -------         ENDPROC       MSJ_LCD_INFORMATIVO
  -------         ENDMOD        IO_SENSORES

  -------         MODULE        PANTALLAS
  C:0000H         SYMBOL        _ICE_DUMMY_
  D:0080H         PUBLIC        P0
  C:9879H         PUBLIC        Reloj_Pantalla_Lcd
  C:3956H         PUBLIC        _PantallaLCD
  C:9BC5H         PUBLIC        _LCD_txt
  C:981EH         PUBLIC        _Raspberry_data
  C:9FCFH         PUBLIC        _tx_chrlcd
  C:393DH         SYMBOL        _?ix1000
  C:394AH         SYMBOL        _?ix1001
  C:3950H         SYMBOL        _?ix1002
  C:9B31H         PUBLIC        _LCD_txt_num_char
  C:5F71H         PUBLIC        _PantallaLCD_LINEA_2
  B:0098H.4       PUBLIC        REN
  B:0080H.7       PUBLIC        sel_com
  C:9FC6H         SYMBOL        L?0109
  C:9FC9H         SYMBOL        L?0110
  -------         PROC          L?0108
  -------         ENDPROC       L?0108
  C:9FC6H         SYMBOL        L?0109
  C:9FC9H         SYMBOL        L?0110
  -------         PROC          _TX_CHRLCD
  D:0007H         SYMBOL        data_com
  X:003FH         SYMBOL        enable_char_add
  -------         DO            
  X:0040H         SYMBOL        d
  -------         ENDDO         
  C:9FCFH         LINE#         59
  C:9FD4H         LINE#         60
  C:9FD4H         LINE#         62
  C:9FDCH         LINE#         63
  C:9FECH         LINE#         65
  -------         ENDPROC       _TX_CHRLCD
  -------         PROC          L?0111
  -------         ENDPROC       L?0111
  -------         PROC          _LCD_TXT
  X:003AH         SYMBOL        msg
  X:003DH         SYMBOL        enable_char_add
  -------         DO            
  X:003EH         SYMBOL        i
  -------         ENDDO         
  C:9BC5H         LINE#         72
  C:9BD3H         LINE#         73
  C:9BD3H         LINE#         76
BL51 BANKED LINKER/LOCATER V6.22.2.0                                                  09/02/2020  07:28:03  PAGE 52


  C:9BF0H         LINE#         77
  C:9BF0H         LINE#         78
  C:9BF8H         LINE#         79
  C:9C00H         LINE#         80
  -------         ENDPROC       _LCD_TXT
  -------         PROC          _LCD_TXT_NUM_CHAR
  X:001DH         SYMBOL        msg
  X:0020H         SYMBOL        length_char
  X:0021H         SYMBOL        enable_char_add
  -------         DO            
  X:0022H         SYMBOL        i
  -------         ENDDO         
  C:9B31H         LINE#         87
  C:9B3FH         LINE#         88
  C:9B3FH         LINE#         91
  C:9B52H         LINE#         92
  C:9B52H         LINE#         93
  C:9B6EH         LINE#         94
  C:9B76H         LINE#         95
  -------         ENDPROC       _LCD_TXT_NUM_CHAR
  -------         PROC          _RASPBERRY_DATA
  X:003AH         SYMBOL        msg
  -------         DO            
  X:0208H         SYMBOL        i
  X:003DH         SYMBOL        lenth_cadena
  X:003EH         SYMBOL        d
  -------         ENDDO         
  C:981EH         LINE#         100
  C:9829H         LINE#         101
  C:9829H         LINE#         106
  C:9831H         LINE#         111
  C:984FH         LINE#         112
  C:984FH         LINE#         113
  C:9866H         LINE#         114
  C:9870H         LINE#         118
  C:9878H         LINE#         122
  -------         ENDPROC       _RASPBERRY_DATA
  -------         PROC          RELOJ_PANTALLA_LCD
  -------         DO            
  X:0010H         SYMBOL        Ini_Clock_LCD
  -------         ENDDO         
  C:9879H         LINE#         131
  C:9879H         LINE#         132
  C:9879H         LINE#         134
  C:988CH         LINE#         135
  C:9892H         LINE#         136
  C:9892H         LINE#         137
  C:9894H         LINE#         138
  C:989DH         LINE#         142
  C:989FH         LINE#         143
  C:98AFH         LINE#         145
  C:98B1H         LINE#         146
  C:98B3H         LINE#         148
  C:98B4H         LINE#         150
  C:98B4H         LINE#         151
  C:98B6H         LINE#         152
  C:98BBH         LINE#         153
BL51 BANKED LINKER/LOCATER V6.22.2.0                                                  09/02/2020  07:28:03  PAGE 53


  C:98C4H         LINE#         154
  C:98CDH         LINE#         155
  C:98CFH         LINE#         156
  C:98CFH         LINE#         157
  -------         ENDPROC       RELOJ_PANTALLA_LCD
  -------         PROC          _PANTALLALCD
  X:0012H         SYMBOL        cod_msg
  -------         DO            
  X:0013H         SYMBOL        Ini_LCD_Line_one
  X:0019H         SYMBOL        num_chr
  -------         ENDDO         
  C:3956H         LINE#         161
  C:395BH         LINE#         162
  C:395BH         LINE#         164
  C:396EH         LINE#         171
  C:3970H         LINE#         173
  C:3979H         LINE#         174
  C:3979H         LINE#         175
  C:3983H         LINE#         177
  C:39C4H         LINE#         178
  C:39C4H         LINE#         180
  C:39C4H         LINE#         181
  C:39D2H         LINE#         182
  C:39D8H         LINE#         183
  C:39DBH         LINE#         184
  C:39E1H         LINE#         185
  C:39E4H         LINE#         187
  C:39E4H         LINE#         189
  C:39F2H         LINE#         190
  C:39F8H         LINE#         191
  C:39FBH         LINE#         192
  C:3A01H         LINE#         193
  C:3A04H         LINE#         195
  C:3A04H         LINE#         197
  C:3A12H         LINE#         198
  C:3A18H         LINE#         199
  C:3A1BH         LINE#         200
  C:3A21H         LINE#         201
  C:3A24H         LINE#         202
  C:3A24H         LINE#         203
  C:3A32H         LINE#         204
  C:3A38H         LINE#         205
  C:3A3BH         LINE#         206
  C:3A41H         LINE#         207
  C:3A44H         LINE#         208
  C:3A44H         LINE#         209
  C:3A52H         LINE#         210
  C:3A58H         LINE#         211
  C:3A5BH         LINE#         212
  C:3A61H         LINE#         213
  C:3A64H         LINE#         214
  C:3A64H         LINE#         215
  C:3A72H         LINE#         216
  C:3A78H         LINE#         217
  C:3A7BH         LINE#         218
  C:3A81H         LINE#         219
  C:3A84H         LINE#         220
BL51 BANKED LINKER/LOCATER V6.22.2.0                                                  09/02/2020  07:28:03  PAGE 54


  C:3A84H         LINE#         222
  C:3A92H         LINE#         223
  C:3A98H         LINE#         224
  C:3A9BH         LINE#         225
  C:3AA1H         LINE#         226
  C:3AA4H         LINE#         227
  C:3AA4H         LINE#         233
  C:3AA4H         LINE#         234
  C:3AB2H         LINE#         235
  C:3AB8H         LINE#         236
  C:3ABBH         LINE#         237
  C:3AC1H         LINE#         238
  C:3AC4H         LINE#         239
  C:3AC4H         LINE#         240
  C:3AD2H         LINE#         241
  C:3AD8H         LINE#         242
  C:3ADBH         LINE#         243
  C:3AE1H         LINE#         244
  C:3AE4H         LINE#         246
  C:3AE4H         LINE#         247
  C:3AF2H         LINE#         248
  C:3AF8H         LINE#         249
  C:3AFBH         LINE#         250
  C:3B01H         LINE#         251
  C:3B04H         LINE#         253
  C:3B04H         LINE#         254
  C:3B12H         LINE#         255
  C:3B18H         LINE#         256
  C:3B1BH         LINE#         257
  C:3B21H         LINE#         258
  C:3B24H         LINE#         263
  C:3B24H         LINE#         265
  C:3B32H         LINE#         266
  C:3B38H         LINE#         267
  C:3B3BH         LINE#         268
  C:3B41H         LINE#         269
  C:3B44H         LINE#         270
  C:3B44H         LINE#         272
  C:3B52H         LINE#         273
  C:3B58H         LINE#         274
  C:3B5BH         LINE#         275
  C:3B61H         LINE#         276
  C:3B64H         LINE#         277
  C:3B64H         LINE#         279
  C:3B72H         LINE#         280
  C:3B78H         LINE#         281
  C:3B7BH         LINE#         282
  C:3B81H         LINE#         283
  C:3B83H         LINE#         284
  C:3B83H         LINE#         286
  C:3B91H         LINE#         287
  C:3B97H         LINE#         288
  C:3B9AH         LINE#         289
  C:3BA0H         LINE#         290
  C:3BA2H         LINE#         292
  C:3BA2H         LINE#         294
  C:3BB0H         LINE#         295
BL51 BANKED LINKER/LOCATER V6.22.2.0                                                  09/02/2020  07:28:03  PAGE 55


  C:3BB6H         LINE#         296
  C:3BB9H         LINE#         297
  C:3BBFH         LINE#         298
  C:3BC1H         LINE#         300
  C:3BC1H         LINE#         301
  C:3BCFH         LINE#         302
  C:3BD5H         LINE#         303
  C:3BD8H         LINE#         304
  C:3BE3H         LINE#         305
  C:3BE3H         LINE#         306
  C:3BE3H         LINE#         308
  C:3BE3H         LINE#         309
  C:3BE3H         LINE#         310
  C:3BE5H         LINE#         312
  C:3BE6H         LINE#         314
  C:3BE6H         LINE#         315
  C:3BE8H         LINE#         316
  C:3C29H         LINE#         317
  C:3C29H         LINE#         320
  C:3C29H         LINE#         321
  C:3C2FH         LINE#         322
  C:3C32H         LINE#         323
  C:3C32H         LINE#         325
  C:3C38H         LINE#         326
  C:3C3AH         LINE#         328
  C:3C3AH         LINE#         330
  C:3C40H         LINE#         331
  C:3C42H         LINE#         332
  C:3C42H         LINE#         333
  C:3C48H         LINE#         334
  C:3C4AH         LINE#         335
  C:3C4AH         LINE#         336
  C:3C50H         LINE#         337
  C:3C52H         LINE#         338
  C:3C52H         LINE#         339
  C:3C58H         LINE#         340
  C:3C5AH         LINE#         341
  C:3C5AH         LINE#         343
  C:3C60H         LINE#         344
  C:3C62H         LINE#         345
  C:3C62H         LINE#         346
  C:3C68H         LINE#         347
  C:3C6AH         LINE#         349
  C:3C6AH         LINE#         350
  C:3C70H         LINE#         351
  C:3C72H         LINE#         353
  C:3C72H         LINE#         354
  C:3C78H         LINE#         355
  C:3C7AH         LINE#         357
  C:3C7AH         LINE#         358
  C:3C80H         LINE#         359
  C:3C82H         LINE#         361
  C:3C82H         LINE#         362
  C:3C88H         LINE#         363
  C:3C8AH         LINE#         367
  C:3C8AH         LINE#         369
  C:3C90H         LINE#         370
BL51 BANKED LINKER/LOCATER V6.22.2.0                                                  09/02/2020  07:28:03  PAGE 56


  C:3C92H         LINE#         371
  C:3C92H         LINE#         373
  C:3C98H         LINE#         374
  C:3C9AH         LINE#         375
  C:3C9AH         LINE#         377
  C:3CA0H         LINE#         379
  C:3CA2H         LINE#         380
  C:3CA2H         LINE#         382
  C:3CA8H         LINE#         383
  C:3CAAH         LINE#         384
  C:3CAAH         LINE#         386
  C:3CB0H         LINE#         387
  C:3CB2H         LINE#         389
  C:3CB2H         LINE#         391
  C:3CBBH         LINE#         392
  C:3CBBH         LINE#         394
  C:3CBBH         LINE#         396
  C:3CBBH         LINE#         397
  C:3CBBH         LINE#         398
  C:3CBDH         LINE#         399
  C:3CBDH         LINE#         403
  -------         ENDPROC       _PANTALLALCD
  -------         PROC          _PANTALLALCD_LINEA_2
  X:0010H         SYMBOL        cod_msg
  X:0011H         SYMBOL        buffer
  -------         DO            
  X:0014H         SYMBOL        Ini_LCD_Line_one
  X:001AH         SYMBOL        num_chr
  X:001BH         SYMBOL        buf
  -------         ENDDO         
  C:5F71H         LINE#         404
  C:5F7FH         LINE#         405
  C:5F7FH         LINE#         407
  C:5F92H         LINE#         414
  C:5F94H         LINE#         416
  C:5F9DH         LINE#         417
  C:5F9DH         LINE#         420
  C:5FABH         LINE#         421
  C:5FABH         LINE#         423
  C:5FABH         LINE#         424
  C:5FAEH         LINE#         425
  C:5FBCH         LINE#         426
  C:5FD1H         LINE#         427
  C:5FD7H         LINE#         428
  C:5FDDH         LINE#         429
  C:5FE3H         LINE#         430
  C:5FE3H         LINE#         431
  C:5FE5H         LINE#         432
  C:5FE5H         LINE#         433
  C:5FE8H         LINE#         434
  C:5FF6H         LINE#         435
  C:600BH         LINE#         436
  C:6011H         LINE#         437
  C:6017H         LINE#         438
  C:6022H         LINE#         439
  C:6032H         LINE#         440
  C:6032H         LINE#         441
BL51 BANKED LINKER/LOCATER V6.22.2.0                                                  09/02/2020  07:28:03  PAGE 57


  C:6032H         LINE#         443
  C:6032H         LINE#         445
  C:6032H         LINE#         446
  C:6034H         LINE#         447
  C:6035H         LINE#         449
  C:6035H         LINE#         450
  C:6037H         LINE#         451
  C:6045H         LINE#         452
  C:6045H         LINE#         453
  C:6045H         LINE#         455
  C:6054H         LINE#         456
  C:6054H         LINE#         457
  C:6054H         LINE#         458
  C:6054H         LINE#         460
  C:6056H         LINE#         462
  C:6056H         LINE#         463
  C:6065H         LINE#         464
  C:6078H         LINE#         465
  C:6092H         LINE#         466
  C:60B0H         LINE#         467
  C:60C7H         LINE#         468
  C:60D0H         LINE#         469
  C:60D0H         LINE#         470
  C:60D0H         LINE#         472
  C:60D0H         LINE#         473
  C:60D0H         LINE#         474
  C:60D2H         LINE#         475
  C:60D2H         LINE#         478
  -------         ENDPROC       _PANTALLALCD_LINEA_2
  -------         ENDMOD        PANTALLAS

  -------         MODULE        PROG
  C:0000H         SYMBOL        _ICE_DUMMY_
  C:544FH         PUBLIC        Prog_fecha_vencimiento
  C:65FFH         PUBLIC        Prog_Sin_Cobro
  C:6BDFH         PUBLIC        _Ver_Horario_Desde_Hasta
  C:722FH         PUBLIC        Prog_debug
  C:761FH         PUBLIC        dcto_caja
  C:8D1CH         PUBLIC        _GetOption
  X:0193H         PUBLIC        validacion
  X:019CH         PUBLIC        cursor
  C:6AC5H         PUBLIC        _Prog_Horarios_on_off
  C:9452H         PUBLIC        Show
  C:4306H         PUBLIC        Ver_Prog
  C:9EECH         PUBLIC        Addr_Horarios
  C:7427H         PUBLIC        Prog_Comparacion_Activa
  C:8117H         PUBLIC        prog_id_cliente
  C:9C4DH         PUBLIC        _ValidarClave
  C:4E4FH         PUBLIC        menu
  C:732BH         PUBLIC        Prog_Use_Lpr
  C:975EH         PUBLIC        _ListaComandos
  C:0EF1H         SYMBOL        _?ix1000
  C:0EFCH         SYMBOL        _?ix1001
  C:0F0CH         SYMBOL        _?ix1002
  C:0F1CH         SYMBOL        _?ix1003
  C:637AH         PUBLIC        Prog_Horarios
  C:0F20H         SYMBOL        _?ix1004
BL51 BANKED LINKER/LOCATER V6.22.2.0                                                  09/02/2020  07:28:03  PAGE 58


  C:0F24H         SYMBOL        _?ix1005
  C:5057H         PUBLIC        _hash_id
  C:4B98H         PUBLIC        _Prog_Horario_dias
  C:7F9FH         PUBLIC        Prog_tiempo_gracia
  C:925EH         PUBLIC        _IngresaDato
  C:9A14H         PUBLIC        First_Clave
  X:01B0H         PUBLIC        comandos
  C:A164H         PUBLIC        DisplayCursor
  C:7EE2H         PUBLIC        prog_cod_park
  C:673DH         PUBLIC        Ver_Horario
  C:699DH         PUBLIC        _Ver_Horario_dias
  C:5255H         PUBLIC        _Prog_Horario_Desde_Hasta
  C:7523H         PUBLIC        tipo_pantalla
  C:9D0FH         PUBLIC        _GetCMD
  -------         PROC          _HASH_ID
  X:0071H         SYMBOL        clave
  -------         DO            
  X:0074H         SYMBOL        len_clave
  X:0075H         SYMBOL        i
  X:018FH         SYMBOL        temp
  X:0191H         SYMBOL        temp1
  X:0076H         SYMBOL        aleatorio
  X:0081H         SYMBOL        suma
  X:0091H         SYMBOL        xxor
  X:00A1H         SYMBOL        usuario1
  X:00ACH         SYMBOL        vencimiento_password
  -------         ENDDO         
  C:5057H         LINE#         108
  C:5062H         LINE#         109
  C:5062H         LINE#         112
  C:5075H         LINE#         113
  C:5088H         LINE#         114
  C:509BH         LINE#         118
  C:50A8H         LINE#         119
  C:50C4H         LINE#         121
  C:50C4H         LINE#         122
  C:50C8H         LINE#         123
  C:50CAH         LINE#         125
  C:50CAH         LINE#         126
  C:50D1H         LINE#         127
  C:50D1H         LINE#         129
  C:50E4H         LINE#         130
  C:50F8H         LINE#         131
  C:50F8H         LINE#         132
  C:5124H         LINE#         133
  C:512FH         LINE#         134
  C:513CH         LINE#         135
  C:515AH         LINE#         136
  C:5165H         LINE#         137
  C:5172H         LINE#         138
  C:5196H         LINE#         139
  C:519EH         LINE#         140
  C:519EH         LINE#         141
  C:51A3H         LINE#         142
  C:51A3H         LINE#         143
  C:51BCH         LINE#         144
  C:51BCH         LINE#         145
BL51 BANKED LINKER/LOCATER V6.22.2.0                                                  09/02/2020  07:28:03  PAGE 59


  C:51C8H         LINE#         147
  C:51C8H         LINE#         148
  C:51D7H         LINE#         149
  C:51D7H         LINE#         150
  C:51E3H         LINE#         151
  C:51E3H         LINE#         152
  C:51FCH         LINE#         153
  C:51FCH         LINE#         154
  C:5207H         LINE#         155
  C:5207H         LINE#         156
  C:5220H         LINE#         157
  C:5220H         LINE#         158
  C:522BH         LINE#         159
  C:522BH         LINE#         160
  C:5240H         LINE#         162
  C:5249H         LINE#         163
  C:524EH         LINE#         164
  C:5254H         LINE#         165
  -------         ENDPROC       _HASH_ID
  -------         PROC          _LISTACOMANDOS
  X:005AH         SYMBOL        cmd
  -------         DO            
  X:005DH         SYMBOL        buf
  X:0060H         SYMBOL        i
  -------         ENDDO         
  C:975EH         LINE#         172
  C:9769H         LINE#         173
  C:9769H         LINE#         177
  C:977CH         LINE#         178
  C:977CH         LINE#         179
  C:9794H         LINE#         180
  C:97AFH         LINE#         181
  C:97B5H         LINE#         182
  C:97BDH         LINE#         184
  C:97BFH         LINE#         185
  -------         ENDPROC       _LISTACOMANDOS
  -------         PROC          L?0228
  -------         ENDPROC       L?0228
  -------         PROC          _VALIDARCLAVE
  X:0071H         SYMBOL        buffer
  -------         DO            
  X:0074H         SYMBOL        buf
  -------         ENDDO         
  C:9C4DH         LINE#         191
  C:9C58H         LINE#         192
  C:9C58H         LINE#         195
  C:9C67H         LINE#         196
  C:9C82H         LINE#         197
  C:9C84H         LINE#         200
  C:9C86H         LINE#         201
  -------         ENDPROC       _VALIDARCLAVE
  -------         PROC          L?0229
  -------         ENDPROC       L?0229
  -------         PROC          _GETCMD
  X:0071H         SYMBOL        in
  -------         DO            
  X:0074H         SYMBOL        tokens
BL51 BANKED LINKER/LOCATER V6.22.2.0                                                  09/02/2020  07:28:03  PAGE 60


  -------         ENDDO         
  C:9D0FH         LINE#         208
  C:9D1AH         LINE#         209
  C:9D1AH         LINE#         210
  C:9D2DH         LINE#         211
  -------         ENDPROC       _GETCMD
  -------         PROC          L?0227
  -------         ENDPROC       L?0227
  -------         PROC          _GETOPTION
  X:005AH         SYMBOL        in
  -------         DO            
  X:005DH         SYMBOL        tokensSpace
  X:0061H         SYMBOL        tokensQuote
  -------         ENDDO         
  C:8D1CH         LINE#         217
  C:8D27H         LINE#         218
  C:8D27H         LINE#         219
  C:8D3AH         LINE#         220
  C:8D4DH         LINE#         223
  C:8D5FH         LINE#         224
  C:8D6BH         LINE#         227
  C:8D72H         LINE#         228
  C:8D7FH         LINE#         230
  C:8D98H         LINE#         231
  -------         ENDPROC       _GETOPTION
  -------         PROC          DISPLAYCURSOR
  C:A164H         LINE#         236
  C:A164H         LINE#         237
  C:A164H         LINE#         238
  -------         ENDPROC       DISPLAYCURSOR
  C:925AH         SYMBOL        L?0226
  -------         PROC          L?0225
  -------         ENDPROC       L?0225
  C:925AH         SYMBOL        L?0226
  -------         PROC          _INGRESADATO
  X:0085H         SYMBOL        buffer
  X:0088H         SYMBOL        modo
  -------         DO            
  D:0006H         SYMBOL        i
  -------         ENDDO         
  C:925EH         LINE#         245
  C:926CH         LINE#         246
  C:926CH         LINE#         251
  C:926CH         LINE#         252
  C:927EH         LINE#         253
  C:9284H         LINE#         254
  C:9284H         LINE#         255
  C:929FH         LINE#         256
  C:92A1H         LINE#         258
  C:92A1H         LINE#         259
  C:92A6H         LINE#         260
  C:92A6H         LINE#         261
  C:92B7H         LINE#         262
  C:92C1H         LINE#         263
  C:92D0H         LINE#         265
  C:92D5H         LINE#         269
  -------         ENDPROC       _INGRESADATO
BL51 BANKED LINKER/LOCATER V6.22.2.0                                                  09/02/2020  07:28:03  PAGE 61


  -------         PROC          PROG_ID_CLIENTE
  -------         DO            
  X:005AH         SYMBOL        buffer
  X:0064H         SYMBOL        dataee
  -------         ENDDO         
  C:8117H         LINE#         286
  C:8117H         LINE#         287
  C:8117H         LINE#         291
  C:8129H         LINE#         292
  C:8146H         LINE#         294
  C:815DH         LINE#         296
  C:8166H         LINE#         297
  C:816DH         LINE#         298
  C:817EH         LINE#         299
  C:8187H         LINE#         301
  C:8199H         LINE#         302
  C:81B6H         LINE#         303
  -------         ENDPROC       PROG_ID_CLIENTE
  -------         PROC          PROG_COD_PARK
  -------         DO            
  X:005AH         SYMBOL        buffer
  X:0064H         SYMBOL        dataee
  -------         ENDDO         
  C:7EE2H         LINE#         308
  C:7EE2H         LINE#         309
  C:7EE2H         LINE#         313
  C:7EF5H         LINE#         314
  C:7F12H         LINE#         316
  C:7F29H         LINE#         318
  C:7F32H         LINE#         319
  C:7F3DH         LINE#         320
  C:7F4EH         LINE#         321
  C:7F58H         LINE#         323
  C:7F6BH         LINE#         324
  C:7F88H         LINE#         325
  -------         ENDPROC       PROG_COD_PARK
  -------         PROC          PROG_TIEMPO_GRACIA
  -------         DO            
  X:005AH         SYMBOL        buffer
  X:0064H         SYMBOL        dataee
  -------         ENDDO         
  C:7F9FH         LINE#         330
  C:7F9FH         LINE#         331
  C:7F9FH         LINE#         335
  C:7FB2H         LINE#         336
  C:7FCFH         LINE#         338
  C:7FE6H         LINE#         340
  C:7FEFH         LINE#         341
  C:7FFAH         LINE#         342
  C:800BH         LINE#         343
  C:8015H         LINE#         345
  C:8028H         LINE#         346
  C:8045H         LINE#         347
  -------         ENDPROC       PROG_TIEMPO_GRACIA
  -------         PROC          PROG_SIN_COBRO
  -------         DO            
  X:005AH         SYMBOL        buffer
BL51 BANKED LINKER/LOCATER V6.22.2.0                                                  09/02/2020  07:28:03  PAGE 62


  X:0064H         SYMBOL        dataee
  -------         ENDDO         
  C:65FFH         LINE#         353
  C:65FFH         LINE#         354
  C:65FFH         LINE#         360
  C:6612H         LINE#         361
  C:662FH         LINE#         362
  C:6639H         LINE#         363
  C:6639H         LINE#         364
  C:664CH         LINE#         365
  C:664EH         LINE#         366
  C:665AH         LINE#         367
  C:665AH         LINE#         368
  C:666DH         LINE#         369
  C:666FH         LINE#         371
  C:666FH         LINE#         372
  C:6686H         LINE#         373
  C:6686H         LINE#         375
  C:668FH         LINE#         376
  C:669AH         LINE#         377
  C:66ABH         LINE#         378
  C:66B5H         LINE#         380
  C:66C8H         LINE#         381
  C:66E5H         LINE#         382
  C:66EFH         LINE#         383
  C:66EFH         LINE#         384
  C:6702H         LINE#         385
  C:6704H         LINE#         386
  C:6710H         LINE#         387
  C:6710H         LINE#         388
  C:6723H         LINE#         389
  C:6725H         LINE#         391
  C:6725H         LINE#         392
  C:673CH         LINE#         393
  C:673CH         LINE#         395
  -------         ENDPROC       PROG_SIN_COBRO
  -------         PROC          PROG_DEBUG
  -------         DO            
  X:005AH         SYMBOL        buffer
  X:0064H         SYMBOL        dataee
  -------         ENDDO         
  C:722FH         LINE#         401
  C:722FH         LINE#         402
  C:722FH         LINE#         407
  C:7242H         LINE#         408
  C:725FH         LINE#         409
  C:7269H         LINE#         410
  C:7269H         LINE#         411
  C:727CH         LINE#         412
  C:727EH         LINE#         414
  C:727EH         LINE#         415
  C:7295H         LINE#         416
  C:7295H         LINE#         418
  C:729EH         LINE#         419
  C:72A9H         LINE#         420
  C:72BAH         LINE#         421
  C:72C4H         LINE#         423
BL51 BANKED LINKER/LOCATER V6.22.2.0                                                  09/02/2020  07:28:03  PAGE 63


  C:72D7H         LINE#         424
  C:72F4H         LINE#         425
  C:72FEH         LINE#         426
  C:72FEH         LINE#         427
  C:7311H         LINE#         428
  C:7313H         LINE#         430
  C:7313H         LINE#         431
  C:732AH         LINE#         432
  C:732AH         LINE#         433
  -------         ENDPROC       PROG_DEBUG
  -------         PROC          PROG_USE_LPR
  -------         DO            
  X:005AH         SYMBOL        buffer
  X:0064H         SYMBOL        dataee
  -------         ENDDO         
  C:732BH         LINE#         438
  C:732BH         LINE#         439
  C:732BH         LINE#         444
  C:733EH         LINE#         445
  C:735BH         LINE#         446
  C:7365H         LINE#         447
  C:7365H         LINE#         448
  C:7378H         LINE#         449
  C:737AH         LINE#         451
  C:737AH         LINE#         452
  C:7391H         LINE#         453
  C:7391H         LINE#         455
  C:739AH         LINE#         456
  C:73A5H         LINE#         457
  C:73B6H         LINE#         458
  C:73C0H         LINE#         460
  C:73D3H         LINE#         461
  C:73F0H         LINE#         462
  C:73FAH         LINE#         463
  C:73FAH         LINE#         464
  C:740DH         LINE#         465
  C:740FH         LINE#         467
  C:740FH         LINE#         468
  C:7426H         LINE#         469
  C:7426H         LINE#         470
  -------         ENDPROC       PROG_USE_LPR
  -------         PROC          PROG_COMPARACION_ACTIVA
  -------         DO            
  X:005AH         SYMBOL        buffer
  X:0064H         SYMBOL        dataee
  -------         ENDDO         
  C:7427H         LINE#         474
  C:7427H         LINE#         475
  C:7427H         LINE#         480
  C:743AH         LINE#         481
  C:7457H         LINE#         482
  C:7461H         LINE#         483
  C:7461H         LINE#         484
  C:7474H         LINE#         485
  C:7476H         LINE#         487
  C:7476H         LINE#         488
  C:748DH         LINE#         489
BL51 BANKED LINKER/LOCATER V6.22.2.0                                                  09/02/2020  07:28:03  PAGE 64


  C:748DH         LINE#         491
  C:7496H         LINE#         492
  C:74A1H         LINE#         493
  C:74B2H         LINE#         494
  C:74BCH         LINE#         496
  C:74CFH         LINE#         497
  C:74ECH         LINE#         498
  C:74F6H         LINE#         499
  C:74F6H         LINE#         500
  C:7509H         LINE#         501
  C:750BH         LINE#         503
  C:750BH         LINE#         504
  C:7522H         LINE#         505
  C:7522H         LINE#         506
  -------         ENDPROC       PROG_COMPARACION_ACTIVA
  -------         PROC          TIPO_PANTALLA
  -------         DO            
  X:005AH         SYMBOL        buffer
  X:0064H         SYMBOL        dataee
  -------         ENDDO         
  C:7523H         LINE#         512
  C:7523H         LINE#         513
  C:7523H         LINE#         518
  C:7536H         LINE#         519
  C:7553H         LINE#         520
  C:755DH         LINE#         521
  C:755DH         LINE#         522
  C:7570H         LINE#         523
  C:7572H         LINE#         525
  C:7572H         LINE#         526
  C:7589H         LINE#         527
  C:7589H         LINE#         529
  C:7592H         LINE#         530
  C:759DH         LINE#         531
  C:75AEH         LINE#         532
  C:75B8H         LINE#         534
  C:75CBH         LINE#         535
  C:75E8H         LINE#         536
  C:75F2H         LINE#         537
  C:75F2H         LINE#         538
  C:7605H         LINE#         539
  C:7607H         LINE#         541
  C:7607H         LINE#         542
  C:761EH         LINE#         543
  C:761EH         LINE#         545
  -------         ENDPROC       TIPO_PANTALLA
  -------         PROC          DCTO_CAJA
  -------         DO            
  X:005AH         SYMBOL        buffer
  X:0064H         SYMBOL        dataee
  -------         ENDDO         
  C:761FH         LINE#         551
  C:761FH         LINE#         552
  C:761FH         LINE#         557
  C:7632H         LINE#         558
  C:764FH         LINE#         559
  C:7659H         LINE#         560
BL51 BANKED LINKER/LOCATER V6.22.2.0                                                  09/02/2020  07:28:03  PAGE 65


  C:7659H         LINE#         561
  C:766CH         LINE#         562
  C:766EH         LINE#         564
  C:766EH         LINE#         565
  C:7685H         LINE#         566
  C:7685H         LINE#         568
  C:768EH         LINE#         569
  C:7699H         LINE#         570
  C:76AAH         LINE#         571
  C:76B4H         LINE#         573
  C:76C7H         LINE#         574
  C:76E4H         LINE#         575
  C:76EEH         LINE#         576
  C:76EEH         LINE#         577
  C:7701H         LINE#         578
  C:7703H         LINE#         580
  C:7703H         LINE#         581
  C:771AH         LINE#         582
  C:771AH         LINE#         583
  -------         ENDPROC       DCTO_CAJA
  -------         PROC          ADDR_HORARIOS
  -------         DO            
  X:0088H         SYMBOL        ee_addr_horario
  -------         ENDDO         
  C:9EECH         LINE#         584
  C:9EECH         LINE#         585
  C:9EECH         LINE#         588
  C:9EF2H         LINE#         589
  C:9EF6H         LINE#         590
  C:9EFAH         LINE#         591
  C:9EFEH         LINE#         592
  C:9F02H         LINE#         593
  C:9F06H         LINE#         594
  C:9F0AH         LINE#         595
  C:9F0EH         LINE#         596
  C:9F12H         LINE#         597
  C:9F16H         LINE#         598
  C:9F19H         LINE#         599
  C:9F1FH         LINE#         600
  -------         ENDPROC       ADDR_HORARIOS
  -------         PROC          _PROG_HORARIOS_ON_OFF
  X:0075H         SYMBOL        addr
  -------         DO            
  X:0077H         SYMBOL        buffer
  X:0081H         SYMBOL        dataee
  X:0083H         SYMBOL        habilitado
  -------         ENDDO         
  C:6AC5H         LINE#         601
  C:6ACFH         LINE#         602
  C:6ACFH         LINE#         605
  C:6ADEH         LINE#         606
  C:6AFBH         LINE#         607
  C:6B05H         LINE#         608
  C:6B05H         LINE#         609
  C:6B18H         LINE#         610
  C:6B1AH         LINE#         612
  C:6B1AH         LINE#         613
BL51 BANKED LINKER/LOCATER V6.22.2.0                                                  09/02/2020  07:28:03  PAGE 66


  C:6B31H         LINE#         614
  C:6B31H         LINE#         615
  C:6B3AH         LINE#         616
  C:6B45H         LINE#         617
  C:6B56H         LINE#         618
  C:6B65H         LINE#         620
  C:6B7CH         LINE#         621
  C:6B99H         LINE#         622
  C:6BA6H         LINE#         623
  C:6BA6H         LINE#         624
  C:6BA9H         LINE#         625
  C:6BBCH         LINE#         626
  C:6BBEH         LINE#         628
  C:6BBEH         LINE#         629
  C:6BC3H         LINE#         630
  C:6BD8H         LINE#         631
  C:6BD8H         LINE#         632
  C:6BDEH         LINE#         633
  -------         ENDPROC       _PROG_HORARIOS_ON_OFF
  -------         PROC          _PROG_HORARIO_DESDE_HASTA
  X:0075H         SYMBOL        addr
  -------         DO            
  X:0077H         SYMBOL        buffer
  D:0007H         SYMBOL        dataee
  -------         ENDDO         
  C:5255H         LINE#         634
  C:525DH         LINE#         635
  C:525DH         LINE#         640
  C:5266H         LINE#         641
  C:5269H         LINE#         642
  C:5272H         LINE#         643
  C:528AH         LINE#         644
  C:529DH         LINE#         645
  C:52ABH         LINE#         646
  C:52C3H         LINE#         647
  C:52D6H         LINE#         648
  C:52E4H         LINE#         649
  C:52FCH         LINE#         650
  C:530FH         LINE#         651
  C:531DH         LINE#         652
  C:5335H         LINE#         653
  C:5348H         LINE#         654
  C:5356H         LINE#         658
  C:535FH         LINE#         659
  C:5362H         LINE#         661
  C:536BH         LINE#         663
  C:5383H         LINE#         664
  C:5396H         LINE#         665
  C:53A4H         LINE#         666
  C:53BCH         LINE#         667
  C:53CFH         LINE#         668
  C:53DDH         LINE#         669
  C:53F5H         LINE#         670
  C:5408H         LINE#         671
  C:5416H         LINE#         672
  C:542EH         LINE#         673
  C:5441H         LINE#         674
BL51 BANKED LINKER/LOCATER V6.22.2.0                                                  09/02/2020  07:28:03  PAGE 67


  -------         ENDPROC       _PROG_HORARIO_DESDE_HASTA
  -------         PROC          _VER_HORARIO_DESDE_HASTA
  X:0088H         SYMBOL        addr
  -------         DO            
  D:0007H         SYMBOL        dataee
  -------         ENDDO         
  C:6BDFH         LINE#         676
  C:6BE7H         LINE#         677
  C:6BE7H         LINE#         679
  C:6BF0H         LINE#         680
  C:6C03H         LINE#         681
  C:6C11H         LINE#         682
  C:6C24H         LINE#         683
  C:6C32H         LINE#         684
  C:6C45H         LINE#         685
  C:6C53H         LINE#         686
  C:6C66H         LINE#         687
  C:6C74H         LINE#         689
  C:6C87H         LINE#         690
  C:6C95H         LINE#         692
  C:6CA8H         LINE#         693
  C:6CB6H         LINE#         695
  C:6CC9H         LINE#         696
  C:6CD7H         LINE#         698
  C:6CEAH         LINE#         699
  -------         ENDPROC       _VER_HORARIO_DESDE_HASTA
  -------         PROC          _PROG_HORARIO_DIAS
  X:0075H         SYMBOL        addr
  -------         DO            
  X:0077H         SYMBOL        buffer
  X:0081H         SYMBOL        dataee
  X:0082H         SYMBOL        j
  X:0083H         SYMBOL        temp
  -------         ENDDO         
  C:4B98H         LINE#         701
  C:4BA0H         LINE#         702
  C:4BA0H         LINE#         706
  C:4BA9H         LINE#         707
  C:4BB2H         LINE#         708
  C:4BBBH         LINE#         709
  C:4BC6H         LINE#         712
  C:4BCFH         LINE#         714
  C:4BE5H         LINE#         715
  C:4BE5H         LINE#         717
  C:4BF8H         LINE#         718
  C:4BF8H         LINE#         719
  C:4C01H         LINE#         721
  C:4C16H         LINE#         722
  C:4C2EH         LINE#         723
  C:4C3BH         LINE#         724
  C:4C3BH         LINE#         726
  C:4C51H         LINE#         727
  C:4C51H         LINE#         728
  C:4C5AH         LINE#         729
  C:4C6FH         LINE#         730
  C:4C87H         LINE#         731
  C:4C94H         LINE#         732
BL51 BANKED LINKER/LOCATER V6.22.2.0                                                  09/02/2020  07:28:03  PAGE 68


  C:4C94H         LINE#         734
  C:4CAAH         LINE#         735
  C:4CAAH         LINE#         736
  C:4CB3H         LINE#         737
  C:4CC8H         LINE#         738
  C:4CE0H         LINE#         739
  C:4CEDH         LINE#         740
  C:4CEDH         LINE#         742
  C:4D03H         LINE#         743
  C:4D03H         LINE#         744
  C:4D0CH         LINE#         745
  C:4D21H         LINE#         746
  C:4D39H         LINE#         747
  C:4D46H         LINE#         748
  C:4D46H         LINE#         750
  C:4D5CH         LINE#         751
  C:4D5CH         LINE#         752
  C:4D65H         LINE#         753
  C:4D7AH         LINE#         754
  C:4D92H         LINE#         755
  C:4D9FH         LINE#         756
  C:4D9FH         LINE#         758
  C:4DB5H         LINE#         759
  C:4DB5H         LINE#         760
  C:4DBEH         LINE#         761
  C:4DD3H         LINE#         762
  C:4DEBH         LINE#         763
  C:4DF8H         LINE#         764
  C:4DF8H         LINE#         766
  C:4E0EH         LINE#         767
  C:4E0EH         LINE#         768
  C:4E17H         LINE#         769
  C:4E26H         LINE#         770
  C:4E38H         LINE#         771
  C:4E45H         LINE#         772
  C:4E45H         LINE#         773
  C:4E4EH         LINE#         775
  -------         ENDPROC       _PROG_HORARIO_DIAS
  -------         PROC          _VER_HORARIO_DIAS
  X:0088H         SYMBOL        addr
  -------         DO            
  X:008AH         SYMBOL        dataee
  -------         ENDDO         
  C:699DH         LINE#         776
  C:69A5H         LINE#         777
  C:69A5H         LINE#         780
  C:69B5H         LINE#         781
  C:69BBH         LINE#         782
  C:69BBH         LINE#         783
  C:69BFH         LINE#         784
  C:69C1H         LINE#         786
  C:69C1H         LINE#         787
  C:69C8H         LINE#         788
  C:69C8H         LINE#         791
  C:69E0H         LINE#         792
  C:69E6H         LINE#         793
  C:69E6H         LINE#         794
BL51 BANKED LINKER/LOCATER V6.22.2.0                                                  09/02/2020  07:28:03  PAGE 69


  C:69EAH         LINE#         795
  C:69ECH         LINE#         797
  C:69ECH         LINE#         798
  C:69F3H         LINE#         799
  C:69F3H         LINE#         802
  C:6A0BH         LINE#         803
  C:6A11H         LINE#         804
  C:6A11H         LINE#         805
  C:6A15H         LINE#         806
  C:6A17H         LINE#         808
  C:6A17H         LINE#         809
  C:6A1EH         LINE#         810
  C:6A1EH         LINE#         812
  C:6A36H         LINE#         813
  C:6A3CH         LINE#         814
  C:6A3CH         LINE#         815
  C:6A40H         LINE#         816
  C:6A42H         LINE#         818
  C:6A42H         LINE#         819
  C:6A49H         LINE#         820
  C:6A49H         LINE#         822
  C:6A61H         LINE#         823
  C:6A67H         LINE#         824
  C:6A67H         LINE#         825
  C:6A6BH         LINE#         826
  C:6A6DH         LINE#         828
  C:6A6DH         LINE#         829
  C:6A74H         LINE#         830
  C:6A74H         LINE#         833
  C:6A8CH         LINE#         834
  C:6A92H         LINE#         835
  C:6A92H         LINE#         836
  C:6A96H         LINE#         837
  C:6A98H         LINE#         839
  C:6A98H         LINE#         840
  C:6A9FH         LINE#         841
  C:6A9FH         LINE#         843
  C:6AB1H         LINE#         844
  C:6AB7H         LINE#         845
  C:6AB7H         LINE#         846
  C:6ABBH         LINE#         847
  C:6ABDH         LINE#         849
  C:6ABDH         LINE#         850
  C:6AC4H         LINE#         851
  C:6AC4H         LINE#         852
  -------         ENDPROC       _VER_HORARIO_DIAS
  -------         PROC          PROG_HORARIOS
  -------         DO            
  X:005AH         SYMBOL        buffer
  X:0064H         SYMBOL        ee_addr_horario
  X:006FH         SYMBOL        addr
  X:0071H         SYMBOL        temp
  X:0073H         SYMBOL        dataee
  X:0074H         SYMBOL        j
  -------         ENDDO         
  C:637AH         LINE#         853
  C:637AH         LINE#         854
BL51 BANKED LINKER/LOCATER V6.22.2.0                                                  09/02/2020  07:28:03  PAGE 70


  C:637AH         LINE#         863
  C:6386H         LINE#         867
  C:638FH         LINE#         868
  C:639AH         LINE#         870
  C:63A9H         LINE#         874
  C:63BFH         LINE#         875
  C:63C5H         LINE#         879
  C:63D3H         LINE#         880
  C:63DBH         LINE#         881
  C:63DBH         LINE#         883
  C:63EAH         LINE#         884
  C:63FEH         LINE#         885
  C:63FEH         LINE#         886
  C:6412H         LINE#         887
  C:641AH         LINE#         889
  C:642AH         LINE#         892
  C:642DH         LINE#         896
  C:6438H         LINE#         899
  C:6441H         LINE#         900
  C:644CH         LINE#         901
  C:645BH         LINE#         902
  C:646EH         LINE#         904
  C:6486H         LINE#         905
  C:64A0H         LINE#         906
  C:64A8H         LINE#         907
  C:64A8H         LINE#         909
  C:64B6H         LINE#         910
  C:64BEH         LINE#         911
  C:64BEH         LINE#         912
  C:64BEH         LINE#         914
  -------         ENDPROC       PROG_HORARIOS
  -------         PROC          PROG_FECHA_VENCIMIENTO
  -------         DO            
  X:005AH         SYMBOL        buffer
  X:0065H         SYMBOL        cmd
  X:0068H         SYMBOL        fecha
  X:006FH         SYMBOL        dataee
  -------         ENDDO         
  C:544FH         LINE#         915
  C:544FH         LINE#         916
  C:544FH         LINE#         923
  C:545CH         LINE#         924
  C:5473H         LINE#         927
  C:548AH         LINE#         929
  C:548AH         LINE#         930
  C:5493H         LINE#         931
  C:54A0H         LINE#         932
  C:54B7H         LINE#         933
  C:54C9H         LINE#         934
  C:54D2H         LINE#         939
  C:54DDH         LINE#         940
  C:54F1H         LINE#         941
  C:54FEH         LINE#         943
  C:5507H         LINE#         946
  C:5510H         LINE#         947
  C:551BH         LINE#         948
  C:5532H         LINE#         950
BL51 BANKED LINKER/LOCATER V6.22.2.0                                                  09/02/2020  07:28:03  PAGE 71


  C:553AH         LINE#         951
  C:5542H         LINE#         952
  C:5545H         LINE#         954
  C:5556H         LINE#         955
  C:5567H         LINE#         957
  C:5576H         LINE#         958
  C:557EH         LINE#         959
  C:5586H         LINE#         960
  C:5589H         LINE#         961
  C:559AH         LINE#         962
  C:55ABH         LINE#         963
  C:55BAH         LINE#         964
  C:55C2H         LINE#         965
  C:55CAH         LINE#         966
  C:55CDH         LINE#         967
  C:55DEH         LINE#         968
  C:55EFH         LINE#         969
  C:55FEH         LINE#         970
  C:5609H         LINE#         972
  C:5616H         LINE#         974
  C:562DH         LINE#         975
  -------         ENDPROC       PROG_FECHA_VENCIMIENTO
  -------         PROC          VER_HORARIO
  -------         DO            
  X:006DH         SYMBOL        buffer
  X:0077H         SYMBOL        ee_addr_horario
  X:0082H         SYMBOL        conta
  X:0083H         SYMBOL        addr
  X:0085H         SYMBOL        temp
  X:0087H         SYMBOL        dataee
  -------         ENDDO         
  C:673DH         LINE#         978
  C:673DH         LINE#         979
  C:673DH         LINE#         988
  C:6749H         LINE#         989
  C:675FH         LINE#         990
  C:675FH         LINE#         992
  C:676FH         LINE#         995
  C:6788H         LINE#         996
  C:678EH         LINE#         999
  C:679CH         LINE#         1000
  C:67ABH         LINE#         1001
  C:67C5H         LINE#         1002
  C:67D0H         LINE#         1003
  C:67D0H         LINE#         1004
  C:67D9H         LINE#         1006
  C:67E2H         LINE#         1007
  C:67F2H         LINE#         1008
  C:67F5H         LINE#         1010
  C:6800H         LINE#         1011
  C:6818H         LINE#         1012
  C:6832H         LINE#         1013
  C:683CH         LINE#         1014
  C:683CH         LINE#         1015
  C:6843H         LINE#         1017
  C:6851H         LINE#         1018
  C:6859H         LINE#         1019
BL51 BANKED LINKER/LOCATER V6.22.2.0                                                  09/02/2020  07:28:03  PAGE 72


  C:685BH         LINE#         1021
  C:685BH         LINE#         1022
  C:685FH         LINE#         1023
  C:685FH         LINE#         1024
  C:6861H         LINE#         1026
  C:6861H         LINE#         1027
  C:686AH         LINE#         1028
  C:686AH         LINE#         1030
  C:6873H         LINE#         1033
  -------         ENDPROC       VER_HORARIO
  -------         PROC          VER_PROG
  -------         DO            
  X:005AH         SYMBOL        buffer
  X:0064H         SYMBOL        dataee
  X:0066H         SYMBOL        fecha
  -------         ENDDO         
  C:4306H         LINE#         1034
  C:4306H         LINE#         1035
  C:4306H         LINE#         1041
  C:4318H         LINE#         1042
  C:4335H         LINE#         1044
  C:434CH         LINE#         1046
  C:435FH         LINE#         1047
  C:437CH         LINE#         1049
  C:4393H         LINE#         1051
  C:43A6H         LINE#         1052
  C:43C3H         LINE#         1054
  C:43DAH         LINE#         1056
  C:43EDH         LINE#         1057
  C:440AH         LINE#         1058
  C:4414H         LINE#         1059
  C:4414H         LINE#         1060
  C:441AH         LINE#         1061
  C:441CH         LINE#         1062
  C:4428H         LINE#         1063
  C:4428H         LINE#         1064
  C:4431H         LINE#         1065
  C:4431H         LINE#         1068
  C:4444H         LINE#         1069
  C:4461H         LINE#         1070
  C:446FH         LINE#         1071
  C:446FH         LINE#         1072
  C:4473H         LINE#         1073
  C:4475H         LINE#         1075
  C:4475H         LINE#         1076
  C:447CH         LINE#         1077
  C:447CH         LINE#         1079
  C:448FH         LINE#         1080
  C:44ACH         LINE#         1081
  C:44B8H         LINE#         1082
  C:44B8H         LINE#         1083
  C:44BCH         LINE#         1084
  C:44BEH         LINE#         1086
  C:44BEH         LINE#         1087
  C:44C5H         LINE#         1088
  C:44C5H         LINE#         1090
  C:44D8H         LINE#         1091
BL51 BANKED LINKER/LOCATER V6.22.2.0                                                  09/02/2020  07:28:03  PAGE 73


  C:44F5H         LINE#         1092
  C:4501H         LINE#         1093
  C:4501H         LINE#         1094
  C:4505H         LINE#         1095
  C:4507H         LINE#         1097
  C:4507H         LINE#         1098
  C:450EH         LINE#         1099
  C:450EH         LINE#         1102
  C:4521H         LINE#         1103
  C:453EH         LINE#         1104
  C:454AH         LINE#         1105
  C:454AH         LINE#         1106
  C:454EH         LINE#         1107
  C:4550H         LINE#         1109
  C:4550H         LINE#         1110
  C:4557H         LINE#         1111
  C:4557H         LINE#         1113
  C:456AH         LINE#         1114
  C:4587H         LINE#         1115
  C:4591H         LINE#         1116
  C:4591H         LINE#         1117
  C:45A4H         LINE#         1118
  C:45A6H         LINE#         1120
  C:45A6H         LINE#         1121
  C:45BDH         LINE#         1122
  C:45BDH         LINE#         1125
  C:45C0H         LINE#         1128
  C:45CDH         LINE#         1130
  C:45E4H         LINE#         1131
  -------         ENDPROC       VER_PROG
  -------         PROC          SHOW
  C:9452H         LINE#         1136
  C:9452H         LINE#         1137
  C:9452H         LINE#         1138
  C:945BH         LINE#         1139
  C:9464H         LINE#         1140
  C:946DH         LINE#         1141
  C:9476H         LINE#         1142
  C:947FH         LINE#         1143
  C:9488H         LINE#         1144
  C:9491H         LINE#         1145
  C:949AH         LINE#         1146
  C:94A3H         LINE#         1147
  C:94ACH         LINE#         1148
  C:94B5H         LINE#         1149
  C:94BEH         LINE#         1150
  -------         ENDPROC       SHOW
  -------         PROC          FIRST_CLAVE
  -------         DO            
  X:005AH         SYMBOL        clave
  -------         ENDDO         
  C:9A14H         LINE#         1156
  C:9A14H         LINE#         1157
  C:9A14H         LINE#         1161
  C:9A1DH         LINE#         1162
  C:9A22H         LINE#         1163
  C:9A34H         LINE#         1164
BL51 BANKED LINKER/LOCATER V6.22.2.0                                                  09/02/2020  07:28:03  PAGE 74


  C:9A41H         LINE#         1165
  C:9A47H         LINE#         1166
  C:9A4AH         LINE#         1167
  C:9A4DH         LINE#         1168
  C:9A4FH         LINE#         1170
  -------         ENDPROC       FIRST_CLAVE
  -------         PROC          MENU
  -------         DO            
  X:0001H         SYMBOL        cmd
  X:0004H         SYMBOL        option1
  X:0007H         SYMBOL        option2
  X:000AH         SYMBOL        opt_buffer
  X:0032H         SYMBOL        buffer
  -------         ENDDO         
  C:4E4FH         LINE#         1178
  C:4E4FH         LINE#         1179
  C:4E4FH         LINE#         1188
  C:4E58H         LINE#         1189
  C:4E64H         LINE#         1190
  C:4E64H         LINE#         1191
  C:4E67H         LINE#         1192
  C:4E71H         LINE#         1195
  C:4E71H         LINE#         1199
  C:4E71H         LINE#         1200
  C:4E7AH         LINE#         1201
  C:4E87H         LINE#         1202
  C:4E8CH         LINE#         1203
  C:4EA2H         LINE#         1204
  C:4EB4H         LINE#         1205
  C:4EBDH         LINE#         1210
  C:4EC8H         LINE#         1211
  C:4ED6H         LINE#         1212
  C:4EE3H         LINE#         1213
  C:4EECH         LINE#         1227
  C:4EEFH         LINE#         1228
  C:4EEFH         LINE#         1229
  C:4EEFH         LINE#         1230
  C:4EF2H         LINE#         1233
  C:4EFDH         LINE#         1234
  C:4F0BH         LINE#         1235
  C:4F1FH         LINE#         1236
  C:4F33H         LINE#         1241
  C:4F49H         LINE#         1242
  C:4F49H         LINE#         1244
  C:4F58H         LINE#         1245
  C:4F5AH         LINE#         1246
  C:4F6AH         LINE#         1247
  C:4F6AH         LINE#         1249
  C:4F79H         LINE#         1250
  C:4F97H         LINE#         1251
  C:4F97H         LINE#         1257
  C:4FAAH         LINE#         1258
  C:4FAAH         LINE#         1259
  C:4FE7H         LINE#         1260
  C:4FE7H         LINE#         1261
  C:4FE7H         LINE#         1262
  C:4FEAH         LINE#         1264
BL51 BANKED LINKER/LOCATER V6.22.2.0                                                  09/02/2020  07:28:03  PAGE 75


  C:4FEDH         LINE#         1266
  C:4FEDH         LINE#         1267
  C:4FF0H         LINE#         1268
  C:4FF3H         LINE#         1270
  C:4FF3H         LINE#         1272
  C:4FF6H         LINE#         1274
  C:4FF9H         LINE#         1276
  C:4FF9H         LINE#         1277
  C:4FFCH         LINE#         1279
  C:4FFFH         LINE#         1281
  C:4FFFH         LINE#         1282
  C:5002H         LINE#         1283
  C:5005H         LINE#         1284
  C:5005H         LINE#         1285
  C:5008H         LINE#         1286
  C:500BH         LINE#         1287
  C:500BH         LINE#         1288
  C:500EH         LINE#         1290
  C:5011H         LINE#         1291
  C:5011H         LINE#         1292
  C:5014H         LINE#         1293
  C:5017H         LINE#         1295
  C:5017H         LINE#         1296
  C:501AH         LINE#         1297
  C:501DH         LINE#         1298
  C:501DH         LINE#         1299
  C:5020H         LINE#         1300
  C:5023H         LINE#         1301
  C:5023H         LINE#         1303
  C:5026H         LINE#         1304
  C:5029H         LINE#         1305
  C:5029H         LINE#         1307
  C:502CH         LINE#         1308
  C:502FH         LINE#         1309
  C:502FH         LINE#         1312
  C:502FH         LINE#         1313
  C:502FH         LINE#         1314
  C:5032H         LINE#         1315
  C:5035H         LINE#         1318
  C:5035H         LINE#         1319
  C:5053H         LINE#         1320
  C:5056H         LINE#         1321
  C:5056H         LINE#         1322
  C:5056H         LINE#         1323
  C:5056H         LINE#         1324
  -------         ENDPROC       MENU
  -------         ENDMOD        PROG

  -------         MODULE        PTO_PARALELO
  C:0000H         SYMBOL        _ICE_DUMMY_
  D:0080H         PUBLIC        P0
  D:00A0H         PUBLIC        P2
  D:00B0H         PUBLIC        P3
  B:0080H.2       PUBLIC        led_err_imp
  C:6F22H         PUBLIC        load_and_send_id_cod
  C:8866H         PUBLIC        _recibe_port
  B:00B0H.2       PUBLIC        ready
BL51 BANKED LINKER/LOCATER V6.22.2.0                                                  09/02/2020  07:28:03  PAGE 76


  B:0080H.6       PUBLIC        rx_in_data
  C:A1DCH         PUBLIC        Pulso_Bus
  C:8EB4H         PUBLIC        _send_portERR
  B:00B0H.3       PUBLIC        busy
  C:9F20H         PUBLIC        load_and_send_info_reloj
  C:81CDH         PUBLIC        _send_port
  B:00B0H.4       PUBLIC        port_clk
  C:48CBH         PUBLIC        _Trama_pto_Paralelo_new
  C:7032H         PUBLIC        _Trama_pto_Paralelo_P
  C:A24DH         PUBLIC        cond_ini_pto
  -------         PROC          _RECIBE_PORT
  X:0001H         SYMBOL        buffer_port
  -------         DO            
  D:0006H         SYMBOL        count
  X:0004H         SYMBOL        time_out
  X:0005H         SYMBOL        num_data
  X:0006H         SYMBOL        T_ANCHO
  X:0008H         SYMBOL        data_temp
  -------         ENDDO         
  C:8866H         LINE#         46
  C:8871H         LINE#         47
  C:8871H         LINE#         51
  C:887AH         LINE#         52
  C:887DH         LINE#         55
  C:8880H         LINE#         56
  C:8880H         LINE#         58
  C:8883H         LINE#         59
  C:8888H         LINE#         60
  C:888AH         LINE#         61
  C:888EH         LINE#         62
  C:8890H         LINE#         65
  C:8895H         LINE#         66
  C:889EH         LINE#         67
  C:889EH         LINE#         68
  C:88A1H         LINE#         69
  C:88A1H         LINE#         71
  C:88A6H         LINE#         72
  C:88AAH         LINE#         73
  C:88AAH         LINE#         74
  C:88ACH         LINE#         75
  C:88AEH         LINE#         76
  C:88AEH         LINE#         77
  C:88AEH         LINE#         79
  C:88AEH         LINE#         80
  C:88BBH         LINE#         81
  C:88BBH         LINE#         83
  C:88BEH         LINE#         84
  C:88BEH         LINE#         86
  C:88C4H         LINE#         88
  C:88C6H         LINE#         89
  C:88DAH         LINE#         90
  C:88E4H         LINE#         91
  C:88EAH         LINE#         92
  C:88F0H         LINE#         93
  C:88F2H         LINE#         94
  C:88F2H         LINE#         95
  C:88F2H         LINE#         96
BL51 BANKED LINKER/LOCATER V6.22.2.0                                                  09/02/2020  07:28:03  PAGE 77


  C:88F2H         LINE#         97
  C:88F2H         LINE#         99
  C:88F5H         LINE#         100
  C:88F7H         LINE#         101
  C:88F9H         LINE#         102
  C:88F9H         LINE#         103
  C:88FCH         LINE#         105
  C:8901H         LINE#         106
  -------         ENDPROC       _RECIBE_PORT
  -------         PROC          _SEND_PORT
  X:0049H         SYMBOL        buffer_port
  X:004CH         SYMBOL        length_char
  -------         DO            
  X:004DH         SYMBOL        cont
  X:0051H         SYMBOL        timeOut
  X:0052H         SYMBOL        length
  -------         ENDDO         
  C:81CDH         LINE#         113
  C:81DBH         LINE#         114
  C:81DBH         LINE#         119
  C:81DFH         LINE#         121
  C:81E1H         LINE#         122
  C:81E3H         LINE#         123
  C:81E5H         LINE#         124
  C:81EAH         LINE#         125
  C:81ECH         LINE#         126
  C:81F6H         LINE#         128
  C:81FFH         LINE#         129
  C:81FFH         LINE#         130
  C:8201H         LINE#         131
  C:8203H         LINE#         132
  C:8227H         LINE#         133
  C:823BH         LINE#         134
  C:823BH         LINE#         135
  C:823EH         LINE#         136
  C:8240H         LINE#         137
  C:8240H         LINE#         138
  C:8242H         LINE#         139
  C:824BH         LINE#         140
  C:824BH         LINE#         144
  C:824BH         LINE#         146
  C:825BH         LINE#         147
  C:825EH         LINE#         148
  C:8268H         LINE#         150
  C:826EH         LINE#         151
  C:8271H         LINE#         153
  C:8271H         LINE#         154
  C:8274H         LINE#         155
  C:8276H         LINE#         156
  C:8278H         LINE#         157
  C:827AH         LINE#         158
  -------         ENDPROC       _SEND_PORT
  -------         PROC          _TRAMA_PTO_PARALELO_P
  D:0001H         SYMBOL        buffer_S1_B0
  X:0011H         SYMBOL        buffer_S1_B2
  X:0014H         SYMBOL        cmd
  -------         DO            
BL51 BANKED LINKER/LOCATER V6.22.2.0                                                  09/02/2020  07:28:03  PAGE 78


  X:01DAH         SYMBOL        Buffer_port
  X:0015H         SYMBOL        j
  -------         ENDDO         
  C:7032H         LINE#         226
  C:7032H         LINE#         227
  C:7032H         LINE#         230
  C:7038H         LINE#         231
  C:703DH         LINE#         232
  C:7045H         LINE#         233
  C:7049H         LINE#         235
  C:7049H         LINE#         236
  C:7060H         LINE#         237
  C:7067H         LINE#         238
  C:706CH         LINE#         239
  C:7076H         LINE#         240
  C:7089H         LINE#         242
  C:7089H         LINE#         243
  C:709DH         LINE#         244
  C:70B9H         LINE#         245
  C:70B9H         LINE#         258
  C:70CDH         LINE#         261
  C:70E3H         LINE#         262
  C:70E3H         LINE#         263
  C:70F4H         LINE#         264
  C:70F6H         LINE#         266
  C:70F6H         LINE#         267
  C:7107H         LINE#         268
  C:7107H         LINE#         271
  C:7109H         LINE#         273
  C:7117H         LINE#         274
  C:711AH         LINE#         276
  C:712EH         LINE#         277
  -------         ENDPROC       _TRAMA_PTO_PARALELO_P
  -------         PROC          _TRAMA_PTO_PARALELO_NEW
  D:0001H         SYMBOL        buffer_S1_B0
  X:0026H         SYMBOL        buffer_S1_B2
  X:0029H         SYMBOL        cmd
  -------         DO            
  X:002AH         SYMBOL        Buffer_port
  X:0048H         SYMBOL        j
  -------         ENDDO         
  C:48CBH         LINE#         285
  C:48CBH         LINE#         286
  C:48CBH         LINE#         288
  C:48D1H         LINE#         290
  C:48D5H         LINE#         291
  C:48DDH         LINE#         294
  C:48DDH         LINE#         295
  C:48F4H         LINE#         296
  C:48FBH         LINE#         297
  C:4900H         LINE#         299
  C:4916H         LINE#         301
  C:4916H         LINE#         302
  C:4927H         LINE#         303
  C:4943H         LINE#         304
  C:4945H         LINE#         306
  C:4945H         LINE#         307
BL51 BANKED LINKER/LOCATER V6.22.2.0                                                  09/02/2020  07:28:03  PAGE 79


  C:4956H         LINE#         308
  C:496AH         LINE#         309
  C:496AH         LINE#         311
  C:4984H         LINE#         312
  C:4984H         LINE#         313
  C:4987H         LINE#         314
  C:4989H         LINE#         316
  C:4989H         LINE#         317
  C:498CH         LINE#         318
  C:498CH         LINE#         320
  C:49A0H         LINE#         321
  C:49B9H         LINE#         322
  C:49D5H         LINE#         323
  C:49F1H         LINE#         324
  C:4A0DH         LINE#         325
  C:4A29H         LINE#         326
  C:4A3DH         LINE#         328
  C:4A4DH         LINE#         330
  C:4A71H         LINE#         331
  C:4A95H         LINE#         332
  C:4AB9H         LINE#         333
  C:4ADDH         LINE#         334
  C:4B01H         LINE#         338
  C:4B15H         LINE#         341
  C:4B2BH         LINE#         342
  C:4B2BH         LINE#         343
  C:4B3CH         LINE#         344
  C:4B3EH         LINE#         346
  C:4B3EH         LINE#         347
  C:4B4FH         LINE#         348
  C:4B4FH         LINE#         349
  C:4B63H         LINE#         352
  C:4B65H         LINE#         353
  C:4B68H         LINE#         354
  C:4B76H         LINE#         356
  C:4B79H         LINE#         357
  C:4B82H         LINE#         358
  C:4B95H         LINE#         359
  -------         ENDPROC       _TRAMA_PTO_PARALELO_NEW
  -------         PROC          PULSO_BUS
  C:A1DCH         LINE#         367
  C:A1DCH         LINE#         368
  C:A1DCH         LINE#         369
  C:A1DEH         LINE#         370
  C:A1E5H         LINE#         371
  C:A1E7H         LINE#         372
  -------         ENDPROC       PULSO_BUS
  -------         PROC          _SEND_PORTERR
  X:0012H         SYMBOL        cod_err
  -------         DO            
  X:0013H         SYMBOL        timeOut
  X:0014H         SYMBOL        cont
  -------         ENDDO         
  C:8EB4H         LINE#         377
  C:8EBAH         LINE#         378
  C:8EBAH         LINE#         382
  C:8EBCH         LINE#         383
BL51 BANKED LINKER/LOCATER V6.22.2.0                                                  09/02/2020  07:28:03  PAGE 80


  C:8EBEH         LINE#         384
  C:8EC1H         LINE#         385
  C:8EC9H         LINE#         387
  C:8ECBH         LINE#         388
  C:8ECDH         LINE#         389
  C:8ED6H         LINE#         390
  C:8ED6H         LINE#         391
  C:8EF8H         LINE#         392
  C:8F0CH         LINE#         393
  C:8F0CH         LINE#         394
  C:8F11H         LINE#         395
  C:8F11H         LINE#         396
  C:8F13H         LINE#         397
  C:8F1CH         LINE#         398
  C:8F1CH         LINE#         399
  C:8F22H         LINE#         400
  C:8F25H         LINE#         401
  C:8F25H         LINE#         402
  C:8F27H         LINE#         403
  C:8F29H         LINE#         404
  C:8F2BH         LINE#         406
  C:8F2EH         LINE#         408
  C:8F35H         LINE#         409
  -------         ENDPROC       _SEND_PORTERR
  -------         PROC          COND_INI_PTO
  C:A24DH         LINE#         415
  C:A24DH         LINE#         416
  C:A24DH         LINE#         418
  C:A24FH         LINE#         419
  C:A251H         LINE#         420
  C:A253H         LINE#         421
  C:A256H         LINE#         422
  -------         ENDPROC       COND_INI_PTO
  -------         PROC          LOAD_AND_SEND_INFO_RELOJ
  -------         DO            
  X:0002H         SYMBOL        buffer_info
  -------         ENDDO         
  C:9F20H         LINE#         427
  C:9F20H         LINE#         428
  C:9F20H         LINE#         431
  C:9F26H         LINE#         433
  C:9F2AH         LINE#         435
  C:9F33H         LINE#         436
  C:9F3DH         LINE#         437
  C:9F41H         LINE#         441
  -------         ENDPROC       LOAD_AND_SEND_INFO_RELOJ
  -------         PROC          LOAD_AND_SEND_ID_COD
  -------         DO            
  X:0002H         SYMBOL        buffer_info
  X:000DH         SYMBOL        buf
  X:0011H         SYMBOL        i
  X:0012H         SYMBOL        k
  -------         ENDDO         
  C:6F22H         LINE#         448
  C:6F22H         LINE#         449
  C:6F22H         LINE#         453
  C:6F27H         LINE#         455
BL51 BANKED LINKER/LOCATER V6.22.2.0                                                  09/02/2020  07:28:03  PAGE 81


  C:6F2DH         LINE#         456
  C:6F31H         LINE#         457
  C:6F57H         LINE#         458
  C:6F5DH         LINE#         459
  C:6F5DH         LINE#         460
  C:6F6EH         LINE#         461
  C:6F6EH         LINE#         462
  C:6F7DH         LINE#         463
  C:6F83H         LINE#         464
  C:6F85H         LINE#         465
  C:6F9DH         LINE#         467
  C:6FA5H         LINE#         470
  C:6FCBH         LINE#         472
  C:6FD0H         LINE#         473
  C:6FD0H         LINE#         474
  C:6FE1H         LINE#         475
  C:6FE1H         LINE#         476
  C:6FF0H         LINE#         477
  C:6FF6H         LINE#         478
  C:7010H         LINE#         479
  C:7018H         LINE#         482
  C:7029H         LINE#         483
  -------         ENDPROC       LOAD_AND_SEND_ID_COD
  -------         ENDMOD        PTO_PARALELO

  -------         MODULE        TIBBO
  C:0000H         SYMBOL        _ICE_DUMMY_
  C:9B77H         PUBLIC        _Debug_HexDec
  C:9C07H         PUBLIC        _Debug_txt_Tibbo
  D:0080H         PUBLIC        P0
  D:0090H         PUBLIC        P1
  C:8683H         PUBLIC        _Debug_Fecha_actual
  B:0090H.0       PUBLIC        txd2
  B:00A8H.7       PUBLIC        EA
  C:99CCH         PUBLIC        _tx_aux
  B:0080H.0       PUBLIC        rx_ip
  C:A260H         PUBLIC        Debug_Dividir_texto
  C:A2AAH         PUBLIC        cond_ini_tibbo
  C:A17BH         PUBLIC        time_mbit
  C:8F3CH         PUBLIC        rx_Data
  C:A0DDH         PUBLIC        time_bit
  C:9A5CH         PUBLIC        _Debug_pto_paralelo
  C:953AH         PUBLIC        _DebugBufferMF
  C:9AA4H         PUBLIC        _Debug_chr_Tibbo
  C:A0D7H         SYMBOL        L?0066
  -------         PROC          L?0065
  -------         ENDPROC       L?0065
  C:A0D7H         SYMBOL        L?0066
  -------         PROC          TIME_BIT
  -------         DO            
  D:0007H         SYMBOL        j
  -------         ENDDO         
  C:A0DDH         LINE#         18
  C:A0DDH         LINE#         19
  C:A0DDH         LINE#         22
  C:A0E9H         LINE#         23
  C:A0E9H         LINE#         24
BL51 BANKED LINKER/LOCATER V6.22.2.0                                                  09/02/2020  07:28:03  PAGE 82


  C:A0EAH         LINE#         25
  C:A0EBH         LINE#         26
  C:A0ECH         LINE#         27
  C:A0EDH         LINE#         28
  C:A0EEH         LINE#         29
  C:A0EFH         LINE#         30
  C:A0F0H         LINE#         31
  C:A0F1H         LINE#         32
  C:A0F2H         LINE#         37
  C:A0F5H         LINE#         38
  -------         ENDPROC       TIME_BIT
  -------         PROC          TIME_MBIT
  -------         DO            
  D:0007H         SYMBOL        j
  -------         ENDDO         
  C:A17BH         LINE#         41
  C:A17BH         LINE#         42
  C:A17BH         LINE#         44
  C:A187H         LINE#         45
  C:A187H         LINE#         46
  C:A188H         LINE#         47
  C:A189H         LINE#         48
  C:A18AH         LINE#         49
  C:A18BH         LINE#         50
  C:A18CH         LINE#         51
  C:A18DH         LINE#         52
  C:A18EH         LINE#         53
  C:A191H         LINE#         55
  -------         ENDPROC       TIME_MBIT
  -------         PROC          L?0067
  -------         ENDPROC       L?0067
  -------         PROC          _TX_AUX
  D:0006H         SYMBOL        caracter
  -------         DO            
  D:0004H         SYMBOL        j
  D:0005H         SYMBOL        temporal
  D:0006H         SYMBOL        bitTX
  -------         ENDDO         
  C:99CCH         LINE#         60
  C:99CEH         LINE#         61
  C:99CEH         LINE#         64
  C:99D0H         LINE#         65
  C:99D2H         LINE#         66
  C:99D5H         LINE#         67
  C:99D6H         LINE#         68
  C:99D7H         LINE#         69
  C:99D9H         LINE#         70
  C:99DDH         LINE#         71
  C:99DFH         LINE#         72
  C:99DFH         LINE#         73
  C:99E1H         LINE#         74
  C:99E3H         LINE#         76
  C:99E3H         LINE#         77
  C:99E5H         LINE#         78
  C:99E5H         LINE#         79
  C:99E8H         LINE#         80
  C:99F4H         LINE#         81
BL51 BANKED LINKER/LOCATER V6.22.2.0                                                  09/02/2020  07:28:03  PAGE 83


  C:99F4H         LINE#         82
  C:99F8H         LINE#         83
  C:99FBH         LINE#         84
  C:99FDH         LINE#         85
  C:99FDH         LINE#         86
  C:99FFH         LINE#         87
  C:9A01H         LINE#         89
  C:9A01H         LINE#         90
  C:9A03H         LINE#         91
  C:9A03H         LINE#         92
  C:9A06H         LINE#         93
  C:9A09H         LINE#         94
  C:9A0BH         LINE#         95
  C:9A0EH         LINE#         96
  C:9A11H         LINE#         98
  C:9A13H         LINE#         99
  -------         ENDPROC       _TX_AUX
  -------         PROC          _DEBUG_HEXDEC
  D:0007H         SYMBOL        xfc
  -------         DO            
  X:0012H         SYMBOL        valor
  D:0006H         SYMBOL        centena
  D:0003H         SYMBOL        decena
  D:0002H         SYMBOL        unidad
  -------         ENDDO         
  C:9B77H         LINE#         102
  C:9B77H         LINE#         103
  C:9B77H         LINE#         106
  C:9B7EH         LINE#         108
  C:9B7FH         LINE#         109
  C:9B80H         LINE#         110
  C:9B81H         LINE#         112
  C:9B89H         LINE#         113
  C:9B89H         LINE#         114
  C:9B93H         LINE#         115
  C:9B93H         LINE#         116
  C:9B97H         LINE#         117
  C:9B98H         LINE#         118
  C:9B9AH         LINE#         119
  C:9BA4H         LINE#         120
  C:9BA4H         LINE#         121
  C:9BA8H         LINE#         122
  C:9BA9H         LINE#         123
  C:9BABH         LINE#         124
  C:9BADH         LINE#         125
  C:9BB1H         LINE#         126
  C:9BB5H         LINE#         127
  C:9BBCH         LINE#         129
  C:9BBCH         LINE#         130
  -------         ENDPROC       _DEBUG_HEXDEC
  -------         PROC          _DEBUG_CHR_TIBBO
  D:0003H         SYMBOL        Dat
  -------         DO            
  D:0007H         SYMBOL        temp
  -------         ENDDO         
  C:9AA4H         LINE#         135
  C:9AA6H         LINE#         136
BL51 BANKED LINKER/LOCATER V6.22.2.0                                                  09/02/2020  07:28:03  PAGE 84


  C:9AA6H         LINE#         139
  C:9AAEH         LINE#         140
  C:9AAEH         LINE#         141
  C:9AB5H         LINE#         142
  C:9AC8H         LINE#         144
  C:9ACBH         LINE#         146
  C:9ACFH         LINE#         147
  C:9AE2H         LINE#         148
  C:9AE5H         LINE#         149
  C:9AEAH         LINE#         151
  C:9AEAH         LINE#         152
  -------         ENDPROC       _DEBUG_CHR_TIBBO
  -------         PROC          _DEBUGBUFFERMF
  X:0049H         SYMBOL        str
  X:004CH         SYMBOL        num_char
  X:004DH         SYMBOL        io
  -------         DO            
  X:004EH         SYMBOL        j
  -------         ENDDO         
  C:953AH         LINE#         159
  C:9548H         LINE#         160
  C:9548H         LINE#         164
  C:9550H         LINE#         165
  C:9550H         LINE#         167
  C:955FH         LINE#         168
  C:955FH         LINE#         169
  C:9563H         LINE#         170
  C:956CH         LINE#         171
  C:957EH         LINE#         172
  C:957EH         LINE#         173
  C:9590H         LINE#         174
  C:959AH         LINE#         175
  C:95A2H         LINE#         177
  C:95A7H         LINE#         178
  C:95ACH         LINE#         180
  C:95ACH         LINE#         182
  -------         ENDPROC       _DEBUGBUFFERMF
  -------         PROC          L?0068
  -------         ENDPROC       L?0068
  -------         PROC          _DEBUG_TXT_TIBBO
  X:004FH         SYMBOL        str
  -------         DO            
  X:0052H         SYMBOL        i
  -------         ENDDO         
  C:9C07H         LINE#         187
  C:9C12H         LINE#         188
  C:9C12H         LINE#         190
  C:9C15H         LINE#         193
  C:9C1DH         LINE#         194
  C:9C1DH         LINE#         195
  C:9C39H         LINE#         196
  C:9C39H         LINE#         197
  C:9C3CH         LINE#         198
  C:9C44H         LINE#         200
  C:9C44H         LINE#         201
  -------         ENDPROC       _DEBUG_TXT_TIBBO
  -------         PROC          DEBUG_DIVIDIR_TEXTO
BL51 BANKED LINKER/LOCATER V6.22.2.0                                                  09/02/2020  07:28:03  PAGE 85


  C:A260H         LINE#         203
  C:A260H         LINE#         204
  C:A260H         LINE#         205
  -------         ENDPROC       DEBUG_DIVIDIR_TEXTO
  -------         PROC          RX_DATA
  -------         DO            
  D:0006H         SYMBOL        temporal
  -------         ENDDO         
  C:8F3CH         LINE#         211
  C:8F3CH         LINE#         212
  C:8F3CH         LINE#         215
  C:8F3EH         LINE#         216
  C:8F41H         LINE#         218
  C:8F44H         LINE#         220
  C:8F50H         LINE#         221
  C:8F50H         LINE#         223
  C:8F53H         LINE#         225
  C:8F5FH         LINE#         226
  C:8F5FH         LINE#         228
  C:8F62H         LINE#         230
  C:8F6EH         LINE#         231
  C:8F6EH         LINE#         233
  C:8F71H         LINE#         235
  C:8F7DH         LINE#         236
  C:8F7DH         LINE#         238
  C:8F80H         LINE#         240
  C:8F8CH         LINE#         241
  C:8F8CH         LINE#         243
  C:8F8FH         LINE#         245
  C:8F9BH         LINE#         246
  C:8F9BH         LINE#         248
  C:8F9EH         LINE#         250
  C:8FAAH         LINE#         251
  C:8FAAH         LINE#         253
  C:8FADH         LINE#         254
  C:8FBBH         LINE#         256
  C:8FBEH         LINE#         257
  C:8FC1H         LINE#         258
  C:8FC1H         LINE#         259
  C:8FC1H         LINE#         261
  C:8FC3H         LINE#         263
  -------         ENDPROC       RX_DATA
  -------         PROC          _DEBUG_FECHA_ACTUAL
  X:0018H         SYMBOL        buffer
  C:8683H         LINE#         264
  C:868EH         LINE#         265
  C:868EH         LINE#         266
  C:8697H         LINE#         267
  C:86ACH         LINE#         268
  C:86B1H         LINE#         269
  C:86C9H         LINE#         270
  C:86CEH         LINE#         271
  C:86E6H         LINE#         272
  C:86EBH         LINE#         273
  C:8703H         LINE#         274
  C:8708H         LINE#         275
  C:8720H         LINE#         276
BL51 BANKED LINKER/LOCATER V6.22.2.0                                                  09/02/2020  07:28:03  PAGE 86


  -------         ENDPROC       _DEBUG_FECHA_ACTUAL
  -------         PROC          COND_INI_TIBBO
  C:A2AAH         LINE#         281
  C:A2AAH         LINE#         282
  C:A2AAH         LINE#         284
  C:A2ACH         LINE#         285
  C:A2AEH         LINE#         286
  -------         ENDPROC       COND_INI_TIBBO
  -------         PROC          _DEBUG_PTO_PARALELO
  X:0001H         SYMBOL        buffer
  X:0004H         SYMBOL        Length_trama
  C:9A5CH         LINE#         287
  C:9A6AH         LINE#         288
  C:9A6AH         LINE#         290
  C:9A73H         LINE#         291
  C:9A8AH         LINE#         292
  C:9A8DH         LINE#         293
  C:9A96H         LINE#         294
  C:9A9EH         LINE#         295
  C:9AA1H         LINE#         296
  -------         ENDPROC       _DEBUG_PTO_PARALELO
  -------         ENDMOD        TIBBO

  -------         MODULE        UART
  C:0000H         SYMBOL        _ICE_DUMMY_
  C:9FEDH         PUBLIC        com_getchar
  C:A1EEH         PUBLIC        com_rbuflen
  C:A200H         PUBLIC        com_tbuflen
  B:00A8H.4       PUBLIC        ES
  B:0098H.0       PUBLIC        RI
  C:9E40H         PUBLIC        _com_putchar
  B:0098H.1       PUBLIC        TI
  B:0021H.4       PUBLIC        aSk
  B:00B8H.4       PUBLIC        PS
  D:000DH         SYMBOL        r_in
  D:000EH         SYMBOL        r_out
  D:000FH         SYMBOL        t_in
  D:0010H         SYMBOL        t_out
  D:0099H         PUBLIC        SBUF
  D:0087H         PUBLIC        PCON
  D:0089H         PUBLIC        TMOD
  B:0021H.5       SYMBOL        ti_restart
  B:00A8H.3       PUBLIC        ET1
  D:008DH         PUBLIC        TH1
  B:0098H.7       PUBLIC        SM0
  B:0098H.6       PUBLIC        SM1
  D:008BH         PUBLIC        TL1
  B:0098H.5       PUBLIC        SM2
  B:0088H.6       PUBLIC        TR1
  C:9F4CH         PUBLIC        com_initialize
  B:0098H.4       PUBLIC        REN
  C:9F9EH         PUBLIC        com_baudrate
  C:5644H         SYMBOL        com_isr
  X:0200H         PUBLIC        error_rx
  -------         PROC          COM_ISR
  -------         DO            
  X:01FEH         SYMBOL        cDatoRx
BL51 BANKED LINKER/LOCATER V6.22.2.0                                                  09/02/2020  07:28:03  PAGE 87


  D:0006H         SYMBOL        k
  D:0007H         SYMBOL        bcc
  X:01FFH         SYMBOL        num_datos
  -------         ENDDO         
  C:5644H         LINE#         95
  C:5659H         LINE#         108
  C:565FH         LINE#         109
  C:565FH         LINE#         111
  C:5661H         LINE#         112
  C:5667H         LINE#         113
  C:5677H         LINE#         114
  C:5677H         LINE#         115
  C:5682H         LINE#         116
  C:5684H         LINE#         118
  C:5684H         LINE#         119
  C:5694H         LINE#         120
  C:5694H         LINE#         121
  C:5699H         LINE#         122
  C:5699H         LINE#         123
  C:56B0H         LINE#         124
  C:56B0H         LINE#         128
  C:56B0H         LINE#         131
  C:56BFH         LINE#         132
  C:56BFH         LINE#         133
  C:56C1H         LINE#         134
  C:56C9H         LINE#         135
  C:56CEH         LINE#         137
  C:56CEH         LINE#         138
  C:56D1H         LINE#         142
  C:56D1H         LINE#         143
  C:56D1H         LINE#         144
  C:56E9H         LINE#         145
  C:56F8H         LINE#         146
  C:56F8H         LINE#         147
  C:56F8H         LINE#         148
  C:56FAH         LINE#         150
  C:56FAH         LINE#         151
  C:56FCH         LINE#         152
  C:56FCH         LINE#         153
  C:56FCH         LINE#         154
  C:56FFH         LINE#         158
  C:56FFH         LINE#         160
  C:5708H         LINE#         161
  C:5708H         LINE#         163
  C:570EH         LINE#         164
  C:5721H         LINE#         165
  C:5721H         LINE#         166
  C:5724H         LINE#         168
  C:5724H         LINE#         169
  C:5739H         LINE#         170
  C:573FH         LINE#         171
  C:573FH         LINE#         173
  C:5742H         LINE#         177
  C:5742H         LINE#         179
  C:575AH         LINE#         180
  C:5760H         LINE#         181
  C:5763H         LINE#         182
BL51 BANKED LINKER/LOCATER V6.22.2.0                                                  09/02/2020  07:28:03  PAGE 88


  C:5763H         LINE#         184
  C:577BH         LINE#         185
  C:577BH         LINE#         186
  C:577CH         LINE#         187
  C:5789H         LINE#         188
  C:5789H         LINE#         189
  C:5796H         LINE#         190
  C:5799H         LINE#         191
  C:57A7H         LINE#         192
  C:57A7H         LINE#         193
  C:57A9H         LINE#         194
  C:57AEH         LINE#         195
  C:57B0H         LINE#         196
  C:57B4H         LINE#         198
  C:57B6H         LINE#         200
  C:57B6H         LINE#         201
  C:57B6H         LINE#         202
  C:57B6H         LINE#         203
  C:57B8H         LINE#         205
  C:57B8H         LINE#         206
  C:57B8H         LINE#         207
  C:57B8H         LINE#         209
  C:57BAH         LINE#         211
  C:57BAH         LINE#         212
  C:57C0H         LINE#         213
  C:57C0H         LINE#         215
  C:57C2H         LINE#         220
  C:57C2H         LINE#         221
  C:57C7H         LINE#         222
  C:57C7H         LINE#         223
  C:57C7H         LINE#         224
  C:57C7H         LINE#         229
  C:57CAH         LINE#         230
  C:57CAH         LINE#         231
  C:57CCH         LINE#         233
  C:57D2H         LINE#         234
  C:57D2H         LINE#         235
  C:57DCH         LINE#         236
  C:57DEH         LINE#         237
  C:57E0H         LINE#         238
  C:57E2H         LINE#         240
  C:57E2H         LINE#         241
  C:57E4H         LINE#         242
  C:57E4H         LINE#         243
  C:57E4H         LINE#         245
  -------         ENDPROC       COM_ISR
  -------         PROC          COM_INITIALIZE
  C:9F4CH         LINE#         261
  C:9F53H         LINE#         262
  C:9F53H         LINE#         266
  C:9F56H         LINE#         271
  C:9F59H         LINE#         272
  C:9F5BH         LINE#         274
  C:9F5DH         LINE#         275
  C:9F5FH         LINE#         280
  C:9F63H         LINE#         281
  C:9F65H         LINE#         282
BL51 BANKED LINKER/LOCATER V6.22.2.0                                                  09/02/2020  07:28:03  PAGE 89


  C:9F67H         LINE#         284
  C:9F69H         LINE#         285
  C:9F6BH         LINE#         286
  C:9F6DH         LINE#         288
  C:9F6FH         LINE#         289
  C:9F71H         LINE#         290
  -------         ENDPROC       COM_INITIALIZE
  -------         PROC          COM_BAUDRATE
  C:9F9EH         LINE#         296
  C:9FA5H         LINE#         298
  C:9FA5H         LINE#         302
  C:9FA7H         LINE#         303
  C:9FAAH         LINE#         304
  C:9FACH         LINE#         309
  C:9FAEH         LINE#         310
  C:9FB0H         LINE#         312
  C:9FB3H         LINE#         314
  C:9FB6H         LINE#         315
  C:9FB9H         LINE#         317
  C:9FBCH         LINE#         318
  C:9FBFH         LINE#         319
  C:9FC1H         LINE#         320
  -------         ENDPROC       COM_BAUDRATE
  -------         PROC          _COM_PUTCHAR
  X:00BEH         SYMBOL        c
  C:9E40H         LINE#         326
  C:9E4CH         LINE#         328
  C:9E4CH         LINE#         332
  C:9E59H         LINE#         333
  C:9E5DH         LINE#         339
  C:9E6BH         LINE#         340
  C:9E6DH         LINE#         342
  C:9E70H         LINE#         343
  C:9E70H         LINE#         344
  C:9E72H         LINE#         345
  C:9E74H         LINE#         346
  C:9E74H         LINE#         348
  C:9E76H         LINE#         349
  -------         ENDPROC       _COM_PUTCHAR
  -------         PROC          COM_GETCHAR
  C:9FEDH         LINE#         355
  C:9FF4H         LINE#         356
  C:9FF4H         LINE#         357
  C:9FFAH         LINE#         358
  C:A000H         LINE#         360
  C:A00EH         LINE#         361
  -------         ENDPROC       COM_GETCHAR
  -------         PROC          COM_RBUFLEN
  C:A1EEH         LINE#         367
  C:A1F5H         LINE#         368
  C:A1F5H         LINE#         369
  C:A1FBH         LINE#         370
  -------         ENDPROC       COM_RBUFLEN
  -------         PROC          COM_TBUFLEN
  C:A200H         LINE#         376
  C:A207H         LINE#         377
  C:A207H         LINE#         378
BL51 BANKED LINKER/LOCATER V6.22.2.0                                                  09/02/2020  07:28:03  PAGE 90


  C:A20DH         LINE#         379
  -------         ENDPROC       COM_TBUFLEN
  -------         ENDMOD        UART

  -------         MODULE        VERIFICADOR
  C:0000H         SYMBOL        _ICE_DUMMY_
  D:0080H         PUBLIC        P0
  D:0090H         PUBLIC        P1
  D:00B0H         PUBLIC        P3
  B:00B0H.2       PUBLIC        ready
  C:64BFH         PUBLIC        Secuencia_inicio_expedidor
  C:7BAEH         PUBLIC        _Analiza_Uid_Card
  B:0080H.3       PUBLIC        Atascado
  C:771BH         PUBLIC        _Bloque_Horario
  B:0090H.7       PUBLIC        lock
  C:6E0DH         PUBLIC        _Responde_Lectura_Tarjeta_Sector1_Bloque0
  C:8332H         PUBLIC        error_rx_pto
  C:6234H         PUBLIC        _Responde_Lectura_Tarjeta_Sector1_Bloque1
  C:57F7H         PUBLIC        _Responde_Lectura_Tarjeta_Sector1_Bloque2
  C:A013H         PUBLIC        Trama_Validacion_P_N
  C:7131H         PUBLIC        _Armar_Trama_Pto_Paralelo_Expedidor_Mensual
  C:1A7DH         PUBLIC        SecuenciaExpedidor
  B:00B0H.3       PUBLIC        busy
  C:7814H         PUBLIC        _Horarios
  C:83E1H         PUBLIC        _Hora_Maxima
  X:017DH         PUBLIC        buffer_S_B
  X:018EH         SYMBOL        Estado
  C:95ADH         PUBLIC        _En_Horario
  -------         PROC          TRAMA_VALIDACION_P_N
  -------         DO            
  D:0007H         SYMBOL        Trama_Validacion_P_N
  -------         ENDDO         
  C:A013H         LINE#         377
  C:A013H         LINE#         378
  C:A013H         LINE#         379
  C:A015H         LINE#         381
  C:A020H         LINE#         382
  C:A020H         LINE#         383
  C:A023H         LINE#         384
  C:A023H         LINE#         385
  C:A025H         LINE#         388
  C:A02DH         LINE#         389
  C:A02DH         LINE#         391
  C:A02FH         LINE#         393
  C:A030H         LINE#         394
  C:A031H         LINE#         395
  C:A031H         LINE#         397
  C:A031H         LINE#         399
  C:A031H         LINE#         401
  C:A031H         LINE#         403
  C:A033H         LINE#         405
  C:A033H         LINE#         406
  C:A034H         LINE#         408
  C:A034H         LINE#         410
  C:A036H         LINE#         412
  C:A036H         LINE#         414
  C:A036H         LINE#         416
BL51 BANKED LINKER/LOCATER V6.22.2.0                                                  09/02/2020  07:28:03  PAGE 91


  C:A036H         LINE#         417
  -------         ENDPROC       TRAMA_VALIDACION_P_N
  -------         PROC          ERROR_RX_PTO
  -------         DO            
  X:013BH         SYMBOL        cont_error_rx
  X:000EH         SYMBOL        error_rx_pto
  -------         ENDDO         
  C:8332H         LINE#         434
  C:8332H         LINE#         435
  C:8332H         LINE#         437
  C:8337H         LINE#         441
  C:8340H         LINE#         442
  C:8348H         LINE#         443
  C:8351H         LINE#         444
  C:8359H         LINE#         445
  C:8362H         LINE#         446
  C:8365H         LINE#         448
  C:8365H         LINE#         449
  C:836BH         LINE#         450
  C:8375H         LINE#         451
  C:8375H         LINE#         452
  C:8377H         LINE#         453
  C:837EH         LINE#         454
  C:8383H         LINE#         455
  C:8389H         LINE#         456
  C:838DH         LINE#         457
  C:838FH         LINE#         458
  C:8395H         LINE#         459
  C:8395H         LINE#         460
  C:8397H         LINE#         462
  C:8397H         LINE#         463
  C:839DH         LINE#         464
  C:839DH         LINE#         465
  C:839DH         LINE#         466
  C:839FH         LINE#         468
  C:839FH         LINE#         469
  C:83ADH         LINE#         470
  C:83C0H         LINE#         471
  C:83C0H         LINE#         472
  C:83C1H         LINE#         473
  C:83C7H         LINE#         474
  C:83CCH         LINE#         475
  C:83CEH         LINE#         476
  C:83CEH         LINE#         477
  C:83D0H         LINE#         479
  C:83D0H         LINE#         480
  C:83D1H         LINE#         481
  C:83D5H         LINE#         482
  C:83DBH         LINE#         483
  C:83DBH         LINE#         484
  C:83DBH         LINE#         485
  C:83E0H         LINE#         486
  -------         ENDPROC       ERROR_RX_PTO
  -------         PROC          SECUENCIA_INICIO_EXPEDIDOR
  -------         DO            
  X:0001H         SYMBOL        temp
  -------         ENDDO         
BL51 BANKED LINKER/LOCATER V6.22.2.0                                                  09/02/2020  07:28:03  PAGE 92


  C:64BFH         LINE#         493
  C:64BFH         LINE#         494
  C:64BFH         LINE#         498
  C:64DFH         LINE#         499
  C:64DFH         LINE#         500
  C:64DFH         LINE#         502
  C:64E1H         LINE#         503
  C:64E6H         LINE#         504
  C:64ECH         LINE#         507
  C:64EEH         LINE#         508
  C:64EEH         LINE#         519
  C:64EEH         LINE#         521
  C:64FCH         LINE#         522
  C:64FCH         LINE#         523
  C:6508H         LINE#         524
  C:6508H         LINE#         525
  C:650EH         LINE#         526
  C:6511H         LINE#         527
  C:6519H         LINE#         528
  C:6519H         LINE#         529
  C:6520H         LINE#         530
  C:6534H         LINE#         531
  C:6534H         LINE#         532
  C:6536H         LINE#         534
  C:6536H         LINE#         536
  C:653DH         LINE#         537
  C:6543H         LINE#         538
  C:6543H         LINE#         539
  C:6546H         LINE#         541
  C:6546H         LINE#         542
  C:654FH         LINE#         543
  C:6563H         LINE#         544
  C:6569H         LINE#         545
  C:6569H         LINE#         546
  C:656CH         LINE#         547
  C:656CH         LINE#         553
  C:656CH         LINE#         555
  C:656FH         LINE#         556
  C:6575H         LINE#         560
  C:6577H         LINE#         561
  C:6577H         LINE#         571
  C:6577H         LINE#         573
  C:6585H         LINE#         574
  C:6585H         LINE#         575
  C:6591H         LINE#         576
  C:6591H         LINE#         577
  C:6597H         LINE#         578
  C:6599H         LINE#         579
  C:65A1H         LINE#         580
  C:65A1H         LINE#         581
  C:65A8H         LINE#         582
  C:65BCH         LINE#         583
  C:65BCH         LINE#         584
  C:65BEH         LINE#         586
  C:65BEH         LINE#         589
  C:65C5H         LINE#         590
  C:65CBH         LINE#         591
BL51 BANKED LINKER/LOCATER V6.22.2.0                                                  09/02/2020  07:28:03  PAGE 93


  C:65CBH         LINE#         592
  C:65CDH         LINE#         594
  C:65CDH         LINE#         595
  C:65D6H         LINE#         596
  C:65EAH         LINE#         597
  C:65EFH         LINE#         598
  C:65EFH         LINE#         600
  C:65F1H         LINE#         601
  C:65F1H         LINE#         607
  C:65F1H         LINE#         609
  C:65F7H         LINE#         610
  C:65F7H         LINE#         613
  C:65F7H         LINE#         614
  C:65FEH         LINE#         615
  C:65FEH         LINE#         616
  C:65FEH         LINE#         617
  -------         ENDPROC       SECUENCIA_INICIO_EXPEDIDOR
  -------         PROC          _HORARIOS
  X:000EH         SYMBOL        Horario
  -------         DO            
  X:000FH         SYMBOL        Estado_Horario
  X:0010H         SYMBOL        Addr_horarios
  X:001BH         SYMBOL        dia_semana
  X:001CH         SYMBOL        EE_dia_semana
  X:001DH         SYMBOL        addr
  -------         ENDDO         
  C:7814H         LINE#         628
  C:7819H         LINE#         629
  C:7819H         LINE#         635
  C:781EH         LINE#         636
  C:781EH         LINE#         638
  C:782AH         LINE#         640
  C:7843H         LINE#         644
  C:7856H         LINE#         645
  C:7856H         LINE#         647
  C:7860H         LINE#         648
  C:7869H         LINE#         649
  C:7871H         LINE#         650
  C:787AH         LINE#         653
  C:789FH         LINE#         654
  C:78A8H         LINE#         655
  C:78B0H         LINE#         656
  C:78B9H         LINE#         658
  C:78C3H         LINE#         659
  C:78C3H         LINE#         661
  C:78D1H         LINE#         662
  C:78D3H         LINE#         664
  C:78D3H         LINE#         666
  C:78DCH         LINE#         667
  C:78E1H         LINE#         668
  C:78E1H         LINE#         669
  C:78E3H         LINE#         671
  C:78E3H         LINE#         673
  C:78E8H         LINE#         675
  C:78EEH         LINE#         677
  C:78EEH         LINE#         679
  C:78F0H         LINE#         681
BL51 BANKED LINKER/LOCATER V6.22.2.0                                                  09/02/2020  07:28:03  PAGE 94


  C:78F0H         LINE#         682
  C:78F6H         LINE#         684
  C:78FFH         LINE#         685
  C:78FFH         LINE#         686
  C:7904H         LINE#         687
  -------         ENDPROC       _HORARIOS
  -------         PROC          _HORA_MAXIMA
  X:002BH         SYMBOL        addr
  -------         DO            
  X:002DH         SYMBOL        Hora_High
  X:002EH         SYMBOL        Minuto_High
  X:002FH         SYMBOL        HoraIni
  X:0030H         SYMBOL        MinutoIni
  X:0031H         SYMBOL        Hora_Prog
  -------         ENDDO         
  C:83E1H         LINE#         688
  C:83E9H         LINE#         689
  C:83E9H         LINE#         694
  C:83FEH         LINE#         695
  C:841EH         LINE#         696
  C:843BH         LINE#         697
  C:845BH         LINE#         698
  C:8463H         LINE#         699
  C:846BH         LINE#         700
  C:8474H         LINE#         702
  C:848CH         LINE#         703
  -------         ENDPROC       _HORA_MAXIMA
  -------         PROC          _EN_HORARIO
  X:0026H         SYMBOL        HoraNow
  D:0004H         SYMBOL        Hora_Prog
  X:0028H         SYMBOL        addr
  -------         DO            
  X:002AH         SYMBOL        Estado_Horario
  -------         ENDDO         
  C:95ADH         LINE#         704
  C:95BBH         LINE#         705
  C:95BBH         LINE#         708
  C:95C8H         LINE#         709
  C:95C8H         LINE#         712
  C:95D1H         LINE#         713
  C:95E6H         LINE#         716
  C:95F5H         LINE#         717
  C:95F5H         LINE#         719
  C:95FCH         LINE#         720
  C:9602H         LINE#         721
  C:9604H         LINE#         723
  C:9604H         LINE#         726
  C:9608H         LINE#         727
  C:9608H         LINE#         728
  C:9608H         LINE#         730
  C:960AH         LINE#         732
  C:960AH         LINE#         735
  C:9613H         LINE#         736
  C:9618H         LINE#         738
  C:9618H         LINE#         739
  C:961DH         LINE#         740
  -------         ENDPROC       _EN_HORARIO
BL51 BANKED LINKER/LOCATER V6.22.2.0                                                  09/02/2020  07:28:03  PAGE 95


  -------         PROC          _BLOQUE_HORARIO
  X:001FH         SYMBOL        addr
  -------         DO            
  X:0021H         SYMBOL        Estado_Horario
  X:0022H         SYMBOL        HoraNow
  X:0024H         SYMBOL        Hora_Prog
  -------         ENDDO         
  C:771BH         LINE#         742
  C:7723H         LINE#         743
  C:7723H         LINE#         749
  C:772CH         LINE#         750
  C:7734H         LINE#         751
  C:773CH         LINE#         752
  C:7745H         LINE#         753
  C:7773H         LINE#         758
  C:777CH         LINE#         759
  C:7791H         LINE#         760
  C:77A9H         LINE#         761
  C:77ABH         LINE#         762
  C:77ABH         LINE#         765
  C:77C3H         LINE#         766
  C:77C3H         LINE#         767
  C:77CCH         LINE#         768
  C:77E7H         LINE#         769
  C:7805H         LINE#         770
  C:7807H         LINE#         772
  C:7807H         LINE#         775
  C:780CH         LINE#         776
  C:780CH         LINE#         777
  C:780CH         LINE#         779
  C:7813H         LINE#         780
  -------         ENDPROC       _BLOQUE_HORARIO
  -------         PROC          _RESPONDE_LECTURA_TARJETA_SECTOR1_BLOQUE1
  X:000EH         SYMBOL        Atributos_Expedidor
  -------         DO            
  D:0007H         SYMBOL        temp
  X:0011H         SYMBOL        Estado_expedidor
  -------         ENDDO         
  C:6234H         LINE#         781
  C:623FH         LINE#         782
  C:623FH         LINE#         786
  C:6248H         LINE#         789
  C:6258H         LINE#         790
  C:6258H         LINE#         792
  C:6264H         LINE#         793
  C:6264H         LINE#         794
  C:627CH         LINE#         795
  C:627FH         LINE#         796
  C:6290H         LINE#         797
  C:62CAH         LINE#         798
  C:62CAH         LINE#         799
  C:62D3H         LINE#         800
  C:62DBH         LINE#         801
  C:62E4H         LINE#         803
  C:62EDH         LINE#         804
  C:62F5H         LINE#         805
  C:62FEH         LINE#         807
BL51 BANKED LINKER/LOCATER V6.22.2.0                                                  09/02/2020  07:28:03  PAGE 96


  C:6307H         LINE#         808
  C:630FH         LINE#         809
  C:6318H         LINE#         812
  C:632FH         LINE#         815
  C:6339H         LINE#         816
  C:6343H         LINE#         817
  C:634DH         LINE#         819
  C:6353H         LINE#         821
  C:6355H         LINE#         823
  C:6355H         LINE#         824
  C:635AH         LINE#         825
  C:635FH         LINE#         826
  C:6362H         LINE#         827
  C:6362H         LINE#         828
  C:6364H         LINE#         830
  C:6364H         LINE#         831
  C:6369H         LINE#         832
  C:636EH         LINE#         833
  C:6374H         LINE#         834
  C:6374H         LINE#         835
  C:6379H         LINE#         836
  -------         ENDPROC       _RESPONDE_LECTURA_TARJETA_SECTOR1_BLOQUE1
  -------         PROC          _RESPONDE_LECTURA_TARJETA_SECTOR1_BLOQUE2
  X:000EH         SYMBOL        Atributos_Expedidor
  -------         DO            
  D:0007H         SYMBOL        temp
  X:0011H         SYMBOL        Estado_expedidor
  -------         ENDDO         
  C:57F7H         LINE#         838
  C:5802H         LINE#         839
  C:5802H         LINE#         842
  C:5812H         LINE#         843
  C:5812H         LINE#         844
  C:581BH         LINE#         846
  C:5827H         LINE#         847
  C:5827H         LINE#         848
  C:583FH         LINE#         849
  C:5842H         LINE#         850
  C:5853H         LINE#         853
  C:5867H         LINE#         854
  C:587EH         LINE#         855
  C:5888H         LINE#         856
  C:5892H         LINE#         857
  C:589CH         LINE#         859
  C:58A5H         LINE#         860
  C:58B2H         LINE#         861
  C:58CEH         LINE#         862
  C:58D7H         LINE#         864
  C:58F3H         LINE#         866
  C:58FDH         LINE#         868
  C:5909H         LINE#         877
  C:5917H         LINE#         878
  C:5917H         LINE#         879
  C:5920H         LINE#         880
  C:5925H         LINE#         881
  C:592AH         LINE#         882
  C:592FH         LINE#         883
BL51 BANKED LINKER/LOCATER V6.22.2.0                                                  09/02/2020  07:28:03  PAGE 97


  C:592FH         LINE#         885
  C:5931H         LINE#         887
  C:5931H         LINE#         893
  C:5946H         LINE#         894
  C:5946H         LINE#         895
  C:594FH         LINE#         896
  C:5955H         LINE#         898
  C:5957H         LINE#         899
  C:596EH         LINE#         900
  C:596EH         LINE#         901
  C:5975H         LINE#         902
  C:597BH         LINE#         904
  C:597DH         LINE#         906
  C:597DH         LINE#         907
  C:5984H         LINE#         908
  C:598AH         LINE#         910
  C:598AH         LINE#         911
  C:598AH         LINE#         912
  C:598CH         LINE#         914
  C:598CH         LINE#         915
  C:5992H         LINE#         916
  C:5992H         LINE#         918
  C:5997H         LINE#         920
  -------         ENDPROC       _RESPONDE_LECTURA_TARJETA_SECTOR1_BLOQUE2
  -------         PROC          _RESPONDE_LECTURA_TARJETA_SECTOR1_BLOQUE0
  X:000EH         SYMBOL        Atributos_Expedidor
  -------         DO            
  D:0007H         SYMBOL        temp
  X:0011H         SYMBOL        Estado_expedidor
  X:0012H         SYMBOL        buffer_S1_B0
  -------         ENDDO         
  C:6E0DH         LINE#         921
  C:6E18H         LINE#         922
  C:6E18H         LINE#         926
  C:6E28H         LINE#         927
  C:6E28H         LINE#         928
  C:6E31H         LINE#         931
  C:6E3DH         LINE#         932
  C:6E3DH         LINE#         934
  C:6E55H         LINE#         935
  C:6E62H         LINE#         936
  C:6E62H         LINE#         937
  C:6E62H         LINE#         938
  C:6E62H         LINE#         939
  C:6E65H         LINE#         941
  C:6E6EH         LINE#         942
  C:6E77H         LINE#         943
  C:6E80H         LINE#         946
  C:6E95H         LINE#         947
  C:6E95H         LINE#         948
  C:6E9AH         LINE#         949
  C:6EB4H         LINE#         950
  C:6EB6H         LINE#         952
  C:6EB6H         LINE#         954
  C:6EC4H         LINE#         955
  C:6EC4H         LINE#         956
  C:6ECAH         LINE#         957
BL51 BANKED LINKER/LOCATER V6.22.2.0                                                  09/02/2020  07:28:03  PAGE 98


  C:6ECAH         LINE#         959
  C:6EE2H         LINE#         960
  C:6EE2H         LINE#         961
  C:6EF3H         LINE#         962
  C:6EF5H         LINE#         964
  C:6EF5H         LINE#         965
  C:6F0EH         LINE#         966
  C:6F0EH         LINE#         967
  C:6F0EH         LINE#         971
  C:6F14H         LINE#         973
  C:6F16H         LINE#         974
  C:6F16H         LINE#         975
  C:6F1CH         LINE#         976
  C:6F1CH         LINE#         977
  C:6F21H         LINE#         978
  -------         ENDPROC       _RESPONDE_LECTURA_TARJETA_SECTOR1_BLOQUE0
  -------         PROC          _ARMAR_TRAMA_PTO_PARALELO_EXPEDIDOR_MENSUAL
  X:0023H         SYMBOL        Atributos_Expedidor
  -------         DO            
  X:013DH         SYMBOL        buffer
  -------         ENDDO         
  C:7131H         LINE#         980
  C:713CH         LINE#         981
  C:713CH         LINE#         987
  C:7142H         LINE#         988
  C:7146H         LINE#         989
  C:715BH         LINE#         990
  C:7165H         LINE#         991
  C:716FH         LINE#         992
  C:7179H         LINE#         997
  C:7182H         LINE#         998
  C:718EH         LINE#         999
  C:719AH         LINE#         1000
  C:71A6H         LINE#         1001
  C:71B2H         LINE#         1004
  C:71BEH         LINE#         1005
  C:71BEH         LINE#         1007
  C:71C5H         LINE#         1008
  C:71C9H         LINE#         1009
  C:71CDH         LINE#         1010
  C:71D1H         LINE#         1011
  C:71D5H         LINE#         1012
  C:71D9H         LINE#         1014
  C:71D9H         LINE#         1016
  C:71EFH         LINE#         1017
  C:71EFH         LINE#         1018
  C:71F2H         LINE#         1019
  C:71F4H         LINE#         1021
  C:71F4H         LINE#         1022
  C:71F7H         LINE#         1023
  C:71F7H         LINE#         1025
  C:71FDH         LINE#         1026
  C:7200H         LINE#         1027
  C:7202H         LINE#         1028
  C:7205H         LINE#         1029
  C:7210H         LINE#         1031
  C:7213H         LINE#         1032
BL51 BANKED LINKER/LOCATER V6.22.2.0                                                  09/02/2020  07:28:03  PAGE 99


  C:721CH         LINE#         1033
  C:722CH         LINE#         1034
  -------         ENDPROC       _ARMAR_TRAMA_PTO_PARALELO_EXPEDIDOR_MENSUAL
  -------         PROC          _ANALIZA_UID_CARD
  X:000EH         SYMBOL        Atributos_Expedidor
  -------         DO            
  X:0011H         SYMBOL        Estado_expedidor
  D:0007H         SYMBOL        temp
  -------         ENDDO         
  C:7BAEH         LINE#         1036
  C:7BB9H         LINE#         1037
  C:7BB9H         LINE#         1040
  C:7BC9H         LINE#         1041
  C:7BC9H         LINE#         1043
  C:7BD5H         LINE#         1044
  C:7BD5H         LINE#         1045
  C:7BEDH         LINE#         1047
  C:7BF0H         LINE#         1049
  C:7BF9H         LINE#         1050
  C:7C0AH         LINE#         1053
  C:7C13H         LINE#         1054
  C:7C1BH         LINE#         1055
  C:7C23H         LINE#         1056
  C:7C2BH         LINE#         1057
  C:7C33H         LINE#         1058
  C:7C3CH         LINE#         1060
  C:7C53H         LINE#         1061
  C:7C5DH         LINE#         1062
  C:7C67H         LINE#         1063
  C:7C71H         LINE#         1064
  C:7C77H         LINE#         1065
  C:7C79H         LINE#         1067
  C:7C79H         LINE#         1068
  C:7C7FH         LINE#         1069
  C:7C7FH         LINE#         1070
  C:7C84H         LINE#         1071
  -------         ENDPROC       _ANALIZA_UID_CARD
  -------         PROC          SECUENCIAEXPEDIDOR
  -------         DO            
  X:0001H         SYMBOL        temp
  X:0002H         SYMBOL        tiempo
  X:0004H         SYMBOL        Estado_Tiempo
  X:0159H         SYMBOL        Atributos_Expedidor
  X:016BH         SYMBOL        buffer_S1_B0
  X:0008H         SYMBOL        clock_temp
  X:017CH         SYMBOL        contador
  D:0001H         SYMBOL        atributos
  -------         ENDDO         
  C:1A7DH         LINE#         1072
  C:1A7DH         LINE#         1073
  C:1A7DH         LINE#         1082
  C:1AFCH         LINE#         1083
  C:1AFCH         LINE#         1086
  C:1AFCH         LINE#         1088
  C:1B07H         LINE#         1089
  C:1B07H         LINE#         1091
  C:1B09H         LINE#         1092
BL51 BANKED LINKER/LOCATER V6.22.2.0                                                  09/02/2020  07:28:03  PAGE 100


  C:1B0EH         LINE#         1093
  C:1B0EH         LINE#         1095
  C:1B0EH         LINE#         1097
  C:1B10H         LINE#         1107
  C:1B10H         LINE#         1109
  C:1B1AH         LINE#         1110
  C:1B1AH         LINE#         1111
  C:1B22H         LINE#         1112
  C:1B22H         LINE#         1113
  C:1B27H         LINE#         1114
  C:1B28H         LINE#         1115
  C:1B2EH         LINE#         1116
  C:1B2EH         LINE#         1117
  C:1B34H         LINE#         1118
  C:1B34H         LINE#         1119
  C:1B34H         LINE#         1120
  C:1B37H         LINE#         1122
  C:1B37H         LINE#         1125
  C:1B4AH         LINE#         1126
  C:1B4AH         LINE#         1127
  C:1B50H         LINE#         1128
  C:1B51H         LINE#         1129
  C:1B69H         LINE#         1130
  C:1B69H         LINE#         1131
  C:1B69H         LINE#         1132
  C:1B69H         LINE#         1134
  C:1B69H         LINE#         1135
  C:1B6CH         LINE#         1137
  C:1B6CH         LINE#         1138
  C:1B72H         LINE#         1139
  C:1B72H         LINE#         1140
  C:1B72H         LINE#         1141
  C:1B72H         LINE#         1143
  C:1B75H         LINE#         1149
  C:1B75H         LINE#         1150
  C:1B80H         LINE#         1151
  C:1B80H         LINE#         1152
  C:1B85H         LINE#         1153
  C:1B85H         LINE#         1154
  C:1B85H         LINE#         1155
  C:1B87H         LINE#         1165
  C:1B87H         LINE#         1167
  C:1B91H         LINE#         1168
  C:1B91H         LINE#         1169
  C:1B99H         LINE#         1170
  C:1B99H         LINE#         1171
  C:1B99H         LINE#         1172
  C:1B9BH         LINE#         1173
  C:1BA1H         LINE#         1174
  C:1BA1H         LINE#         1175
  C:1BA7H         LINE#         1176
  C:1BA7H         LINE#         1177
  C:1BA7H         LINE#         1178
  C:1BAAH         LINE#         1180
  C:1BAAH         LINE#         1184
  C:1BBDH         LINE#         1185
  C:1BBDH         LINE#         1186
BL51 BANKED LINKER/LOCATER V6.22.2.0                                                  09/02/2020  07:28:03  PAGE 101


  C:1BC3H         LINE#         1187
  C:1BC4H         LINE#         1188
  C:1BDCH         LINE#         1189
  C:1BDCH         LINE#         1190
  C:1BDCH         LINE#         1191
  C:1BDCH         LINE#         1193
  C:1BDCH         LINE#         1194
  C:1BDFH         LINE#         1196
  C:1BDFH         LINE#         1197
  C:1BE8H         LINE#         1198
  C:1BFCH         LINE#         1199
  C:1C04H         LINE#         1200
  C:1C04H         LINE#         1202
  C:1C0DH         LINE#         1203
  C:1C13H         LINE#         1204
  C:1C19H         LINE#         1205
  C:1C1FH         LINE#         1206
  C:1C1FH         LINE#         1207
  C:1C25H         LINE#         1208
  C:1C25H         LINE#         1209
  C:1C28H         LINE#         1210
  C:1C31H         LINE#         1211
  C:1C36H         LINE#         1212
  C:1C3BH         LINE#         1214
  C:1C3BH         LINE#         1215
  C:1C3BH         LINE#         1216
  C:1C41H         LINE#         1217
  C:1C50H         LINE#         1218
  C:1C50H         LINE#         1219
  C:1C56H         LINE#         1222
  C:1C57H         LINE#         1223
  C:1C5EH         LINE#         1224
  C:1C5EH         LINE#         1226
  C:1C64H         LINE#         1227
  C:1C64H         LINE#         1230
  C:1C67H         LINE#         1231
  C:1C72H         LINE#         1232
  C:1C72H         LINE#         1233
  C:1C7BH         LINE#         1236
  C:1C83H         LINE#         1237
  C:1C83H         LINE#         1238
  C:1C8AH         LINE#         1241
  C:1C90H         LINE#         1242
  C:1C91H         LINE#         1244
  C:1C91H         LINE#         1245
  C:1C98H         LINE#         1246
  C:1C9DH         LINE#         1247
  C:1C9FH         LINE#         1248
  C:1C9FH         LINE#         1250
  C:1C9FH         LINE#         1252
  C:1C9FH         LINE#         1254
  C:1C9FH         LINE#         1256
  C:1CA2H         LINE#         1269
  C:1CA2H         LINE#         1271
  C:1CACH         LINE#         1272
  C:1CACH         LINE#         1273
  C:1CB4H         LINE#         1274
BL51 BANKED LINKER/LOCATER V6.22.2.0                                                  09/02/2020  07:28:03  PAGE 102


  C:1CB4H         LINE#         1275
  C:1CB4H         LINE#         1276
  C:1CB7H         LINE#         1277
  C:1CBFH         LINE#         1278
  C:1CBFH         LINE#         1280
  C:1CC6H         LINE#         1281
  C:1CDAH         LINE#         1282
  C:1CE0H         LINE#         1284
  C:1CE1H         LINE#         1286
  C:1CE1H         LINE#         1287
  C:1CE8H         LINE#         1288
  C:1CEDH         LINE#         1289
  C:1CEFH         LINE#         1290
  C:1CEFH         LINE#         1292
  C:1CEFH         LINE#         1293
  C:1CF2H         LINE#         1295
  C:1CF2H         LINE#         1296
  C:1CFAH         LINE#         1297
  C:1CFAH         LINE#         1298
  C:1D01H         LINE#         1299
  C:1D01H         LINE#         1300
  C:1D05H         LINE#         1301
  C:1D05H         LINE#         1303
  C:1D05H         LINE#         1305
  C:1D08H         LINE#         1306
  C:1D08H         LINE#         1307
  C:1D0FH         LINE#         1308
  C:1D23H         LINE#         1309
  C:1D28H         LINE#         1310
  C:1D2DH         LINE#         1311
  C:1D2FH         LINE#         1312
  C:1D2FH         LINE#         1314
  C:1D2FH         LINE#         1315
  C:1D32H         LINE#         1317
  C:1D32H         LINE#         1318
  C:1D3BH         LINE#         1319
  C:1D4FH         LINE#         1320
  C:1D54H         LINE#         1321
  C:1D59H         LINE#         1322
  C:1D5BH         LINE#         1323
  C:1D5BH         LINE#         1325
  C:1D5BH         LINE#         1327
  C:1D5BH         LINE#         1329
  C:1D5EH         LINE#         1337
  C:1D5EH         LINE#         1339
  C:1D68H         LINE#         1340
  C:1D68H         LINE#         1341
  C:1D70H         LINE#         1342
  C:1D70H         LINE#         1343
  C:1D70H         LINE#         1344
  C:1D73H         LINE#         1345
  C:1D7BH         LINE#         1346
  C:1D7BH         LINE#         1347
  C:1D82H         LINE#         1348
  C:1D96H         LINE#         1349
  C:1D96H         LINE#         1350
  C:1D98H         LINE#         1352
BL51 BANKED LINKER/LOCATER V6.22.2.0                                                  09/02/2020  07:28:03  PAGE 103


  C:1D98H         LINE#         1353
  C:1D9FH         LINE#         1354
  C:1D9FH         LINE#         1355
  C:1D9FH         LINE#         1356
  C:1DA2H         LINE#         1358
  C:1DA2H         LINE#         1359
  C:1DABH         LINE#         1360
  C:1DBFH         LINE#         1362
  C:1DBFH         LINE#         1363
  C:1DBFH         LINE#         1366
  C:1DC1H         LINE#         1372
  C:1DC1H         LINE#         1374
  C:1DC8H         LINE#         1375
  C:1DC8H         LINE#         1377
  C:1DCAH         LINE#         1383
  C:1DCAH         LINE#         1385
  C:1DD4H         LINE#         1386
  C:1DD4H         LINE#         1387
  C:1DDCH         LINE#         1388
  C:1DDCH         LINE#         1389
  C:1DDCH         LINE#         1390
  C:1DDEH         LINE#         1391
  C:1DE4H         LINE#         1392
  C:1DE4H         LINE#         1393
  C:1DEAH         LINE#         1394
  C:1DEAH         LINE#         1395
  C:1DEAH         LINE#         1396
  C:1DEDH         LINE#         1398
  C:1DEDH         LINE#         1402
  C:1E00H         LINE#         1403
  C:1E00H         LINE#         1404
  C:1E06H         LINE#         1405
  C:1E07H         LINE#         1406
  C:1E1FH         LINE#         1407
  C:1E1FH         LINE#         1408
  C:1E25H         LINE#         1409
  C:1E25H         LINE#         1411
  C:1E25H         LINE#         1412
  C:1E26H         LINE#         1414
  C:1E26H         LINE#         1415
  C:1E2FH         LINE#         1416
  C:1E2FH         LINE#         1417
  C:1E32H         LINE#         1422
  C:1E32H         LINE#         1424
  C:1E39H         LINE#         1425
  C:1E39H         LINE#         1426
  C:1E3BH         LINE#         1432
  C:1E3BH         LINE#         1434
  C:1E45H         LINE#         1435
  C:1E45H         LINE#         1436
  C:1E4DH         LINE#         1437
  C:1E4DH         LINE#         1438
  C:1E4DH         LINE#         1439
  C:1E4FH         LINE#         1440
  C:1E55H         LINE#         1441
  C:1E55H         LINE#         1442
  C:1E5BH         LINE#         1443
BL51 BANKED LINKER/LOCATER V6.22.2.0                                                  09/02/2020  07:28:03  PAGE 104


  C:1E5BH         LINE#         1444
  C:1E5BH         LINE#         1445
  C:1E5EH         LINE#         1447
  C:1E5EH         LINE#         1450
  C:1E71H         LINE#         1451
  C:1E71H         LINE#         1452
  C:1E77H         LINE#         1453
  C:1E78H         LINE#         1454
  C:1E90H         LINE#         1455
  C:1E90H         LINE#         1456
  C:1E96H         LINE#         1457
  C:1E96H         LINE#         1459
  C:1E96H         LINE#         1460
  C:1E97H         LINE#         1462
  C:1E97H         LINE#         1463
  C:1EA0H         LINE#         1520
  C:1EA0H         LINE#         1521
  C:1EA3H         LINE#         1522
  C:1EA3H         LINE#         1528
  C:1EAEH         LINE#         1529
  C:1EAEH         LINE#         1530
  C:1EB4H         LINE#         1531
  C:1EB4H         LINE#         1532
  C:1EB4H         LINE#         1534
  C:1EB4H         LINE#         1535
  C:1EB7H         LINE#         1536
  C:1EB7H         LINE#         1537
  C:1EC6H         LINE#         1538
  C:1EC6H         LINE#         1539
  C:1ECFH         LINE#         1542
  C:1EF3H         LINE#         1543
  C:1EF3H         LINE#         1544
  C:1EF3H         LINE#         1546
  C:1EF3H         LINE#         1547
  C:1EF6H         LINE#         1548
  C:1EF6H         LINE#         1550
  C:1EF6H         LINE#         1551
  C:1EFFH         LINE#         1552
  C:1F04H         LINE#         1553
  C:1F06H         LINE#         1554
  C:1F06H         LINE#         1555
  C:1F09H         LINE#         1556
  C:1F09H         LINE#         1559
  C:1F09H         LINE#         1560
  C:1F09H         LINE#         1565
  C:1F12H         LINE#         1566
  C:1F12H         LINE#         1568
  C:1F21H         LINE#         1569
  C:1F21H         LINE#         1570
  C:1F24H         LINE#         1571
  C:1F2DH         LINE#         1572
  C:1F35H         LINE#         1573
  C:1F3EH         LINE#         1575
  C:1F4CH         LINE#         1576
  C:1F52H         LINE#         1577
  C:1F63H         LINE#         1579
  C:1F6CH         LINE#         1580
BL51 BANKED LINKER/LOCATER V6.22.2.0                                                  09/02/2020  07:28:03  PAGE 105


  C:1F92H         LINE#         1581
  C:1F9BH         LINE#         1582
  C:1FA4H         LINE#         1583
  C:1FA7H         LINE#         1587
  C:1FAFH         LINE#         1588
  C:1FAFH         LINE#         1589
  C:1FB8H         LINE#         1590
  C:1FC1H         LINE#         1592
  C:1FC3H         LINE#         1594
  C:1FC3H         LINE#         1595
  C:1FCFH         LINE#         1596
  C:1FCFH         LINE#         1597
  C:1FD8H         LINE#         1598
  C:1FDAH         LINE#         1600
  C:1FDAH         LINE#         1601
  C:1FDDH         LINE#         1602
  C:1FDDH         LINE#         1604
  C:1FDDH         LINE#         1605
  C:1FE6H         LINE#         1606
  C:1FEBH         LINE#         1607
  C:1FF0H         LINE#         1608
  C:1FF6H         LINE#         1609
  C:1FF6H         LINE#         1610
  C:1FF6H         LINE#         1611
  C:1FF6H         LINE#         1612
  C:1FF8H         LINE#         1617
  C:2002H         LINE#         1618
  C:2002H         LINE#         1619
  C:200BH         LINE#         1620
  C:2014H         LINE#         1621
  C:201DH         LINE#         1622
  C:202EH         LINE#         1624
  C:202EH         LINE#         1628
  C:203CH         LINE#         1629
  C:2040H         LINE#         1630
  C:2040H         LINE#         1631
  C:2049H         LINE#         1632
  C:204EH         LINE#         1633
  C:2053H         LINE#         1634
  C:2058H         LINE#         1636
  C:2058H         LINE#         1638
  C:205BH         LINE#         1639
  C:2065H         LINE#         1640
  C:2065H         LINE#         1641
  C:206CH         LINE#         1642
  C:2071H         LINE#         1643
  C:2076H         LINE#         1644
  C:207BH         LINE#         1645
  C:207BH         LINE#         1646
  C:207EH         LINE#         1648
  C:207EH         LINE#         1649
  C:2082H         LINE#         1651
  C:2082H         LINE#         1652
  C:2082H         LINE#         1659
  C:2084H         LINE#         1660
  C:2084H         LINE#         1663
  C:2091H         LINE#         1664
BL51 BANKED LINKER/LOCATER V6.22.2.0                                                  09/02/2020  07:28:03  PAGE 106


  C:2091H         LINE#         1665
  C:2097H         LINE#         1667
  C:20A7H         LINE#         1668
  C:20A7H         LINE#         1671
  C:20AEH         LINE#         1674
  C:20AEH         LINE#         1676
  C:20B0H         LINE#         1678
  C:20B0H         LINE#         1682
  C:20B7H         LINE#         1683
  C:20B7H         LINE#         1685
  C:20B7H         LINE#         1686
  C:20BAH         LINE#         1688
  C:20BAH         LINE#         1690
  C:20BAH         LINE#         1691
  C:20BAH         LINE#         1692
  C:20BDH         LINE#         1693
  C:20BDH         LINE#         1695
  C:20C4H         LINE#         1696
  C:20C4H         LINE#         1697
  C:20C6H         LINE#         1703
  C:20C6H         LINE#         1705
  C:20D0H         LINE#         1706
  C:20D0H         LINE#         1707
  C:20D8H         LINE#         1708
  C:20D8H         LINE#         1709
  C:20D8H         LINE#         1710
  C:20DAH         LINE#         1711
  C:20E0H         LINE#         1712
  C:20E0H         LINE#         1713
  C:20E6H         LINE#         1714
  C:20E6H         LINE#         1715
  C:20E6H         LINE#         1716
  C:20E9H         LINE#         1718
  C:20E9H         LINE#         1721
  C:20FCH         LINE#         1722
  C:20FCH         LINE#         1723
  C:2102H         LINE#         1724
  C:2103H         LINE#         1725
  C:211BH         LINE#         1726
  C:211BH         LINE#         1727
  C:2121H         LINE#         1728
  C:2121H         LINE#         1729
  C:2121H         LINE#         1730
  C:2122H         LINE#         1732
  C:2122H         LINE#         1733
  C:212BH         LINE#         1735
  C:212BH         LINE#         1736
  C:212EH         LINE#         1743
  C:212EH         LINE#         1746
  C:213BH         LINE#         1747
  C:213BH         LINE#         1749
  C:213DH         LINE#         1754
  C:213DH         LINE#         1755
  C:2147H         LINE#         1756
  C:2147H         LINE#         1757
  C:214FH         LINE#         1758
  C:214FH         LINE#         1759
BL51 BANKED LINKER/LOCATER V6.22.2.0                                                  09/02/2020  07:28:03  PAGE 107


  C:214FH         LINE#         1760
  C:2151H         LINE#         1761
  C:2157H         LINE#         1762
  C:2157H         LINE#         1763
  C:215DH         LINE#         1764
  C:215DH         LINE#         1765
  C:215DH         LINE#         1766
  C:2160H         LINE#         1768
  C:2160H         LINE#         1772
  C:2173H         LINE#         1773
  C:2173H         LINE#         1774
  C:2179H         LINE#         1775
  C:217AH         LINE#         1776
  C:2192H         LINE#         1777
  C:2192H         LINE#         1778
  C:2198H         LINE#         1779
  C:2198H         LINE#         1783
  C:2198H         LINE#         1784
  C:2199H         LINE#         1786
  C:2199H         LINE#         1788
  C:21A2H         LINE#         1789
  C:21B6H         LINE#         1790
  C:21B6H         LINE#         1791
  C:21B6H         LINE#         1792
  C:21B8H         LINE#         1793
  C:21B8H         LINE#         1794
  C:21C5H         LINE#         1796
  C:21C5H         LINE#         1797
  C:21C7H         LINE#         1800
  C:21C7H         LINE#         1802
  C:21D1H         LINE#         1803
  C:21D1H         LINE#         1804
  C:21D9H         LINE#         1805
  C:21D9H         LINE#         1806
  C:21D9H         LINE#         1807
  C:21DBH         LINE#         1808
  C:21E1H         LINE#         1809
  C:21E1H         LINE#         1810
  C:21E7H         LINE#         1811
  C:21E7H         LINE#         1812
  C:21E7H         LINE#         1813
  C:21EAH         LINE#         1815
  C:21EAH         LINE#         1818
  C:21FDH         LINE#         1819
  C:21FDH         LINE#         1820
  C:2203H         LINE#         1821
  C:2204H         LINE#         1822
  C:221CH         LINE#         1823
  C:221CH         LINE#         1824
  C:2222H         LINE#         1825
  C:2222H         LINE#         1828
  C:2222H         LINE#         1829
  C:2223H         LINE#         1831
  C:2223H         LINE#         1834
  C:2225H         LINE#         1835
  C:222EH         LINE#         1836
  C:2242H         LINE#         1837
BL51 BANKED LINKER/LOCATER V6.22.2.0                                                  09/02/2020  07:28:03  PAGE 108


  C:2247H         LINE#         1838
  C:224CH         LINE#         1839
  C:2251H         LINE#         1841
  C:225AH         LINE#         1843
  C:2268H         LINE#         1844
  C:2268H         LINE#         1846
  C:2268H         LINE#         1847
  C:226AH         LINE#         1855
  C:226AH         LINE#         1857
  C:226FH         LINE#         1858
  C:2275H         LINE#         1859
  C:2277H         LINE#         1860
  C:2278H         LINE#         1869
  C:2278H         LINE#         1871
  C:2282H         LINE#         1872
  C:2282H         LINE#         1873
  C:2287H         LINE#         1874
  C:2287H         LINE#         1876
  C:228FH         LINE#         1877
  C:228FH         LINE#         1878
  C:2291H         LINE#         1879
  C:229AH         LINE#         1881
  C:229AH         LINE#         1883
  C:229AH         LINE#         1886
  C:229CH         LINE#         1887
  C:22A4H         LINE#         1888
  C:22A4H         LINE#         1889
  C:22AAH         LINE#         1890
  C:22AAH         LINE#         1891
  C:22AAH         LINE#         1892
  C:22ADH         LINE#         1894
  C:22ADH         LINE#         1900
  C:22C0H         LINE#         1901
  C:22C0H         LINE#         1902
  C:22C6H         LINE#         1903
  C:22C7H         LINE#         1904
  C:22DFH         LINE#         1905
  C:22DFH         LINE#         1907
  C:22E5H         LINE#         1908
  C:22E5H         LINE#         1912
  C:22E5H         LINE#         1913
  C:22E6H         LINE#         1915
  C:22E6H         LINE#         1917
  C:22E8H         LINE#         1918
  C:22F1H         LINE#         1919
  C:2305H         LINE#         1921
  C:2307H         LINE#         1922
  C:230DH         LINE#         1923
  C:2312H         LINE#         1925
  C:2312H         LINE#         1928
  C:2313H         LINE#         1932
  C:2313H         LINE#         1933
  C:231AH         LINE#         1934
  C:231AH         LINE#         1935
  C:231CH         LINE#         1943
  C:231CH         LINE#         1945
  C:2326H         LINE#         1946
BL51 BANKED LINKER/LOCATER V6.22.2.0                                                  09/02/2020  07:28:03  PAGE 109


  C:2326H         LINE#         1947
  C:232EH         LINE#         1948
  C:232EH         LINE#         1949
  C:232EH         LINE#         1950
  C:2330H         LINE#         1951
  C:2336H         LINE#         1952
  C:2336H         LINE#         1953
  C:233FH         LINE#         1954
  C:2353H         LINE#         1955
  C:2353H         LINE#         1956
  C:2356H         LINE#         1958
  C:2356H         LINE#         1961
  C:2369H         LINE#         1962
  C:2369H         LINE#         1963
  C:236FH         LINE#         1964
  C:2370H         LINE#         1965
  C:2388H         LINE#         1966
  C:2388H         LINE#         1967
  C:238EH         LINE#         1968
  C:238EH         LINE#         1970
  C:238EH         LINE#         1971
  C:238FH         LINE#         1973
  C:238FH         LINE#         1975
  C:2398H         LINE#         1978
  C:23ABH         LINE#         1979
  C:23ABH         LINE#         1981
  C:23C4H         LINE#         1982
  C:23D1H         LINE#         1983
  C:23D1H         LINE#         1984
  C:23D1H         LINE#         1985
  C:23D1H         LINE#         1986
  C:23D9H         LINE#         1987
  C:23EAH         LINE#         1988
  C:2405H         LINE#         1989
  C:240BH         LINE#         1990
  C:240BH         LINE#         1991
  C:240CH         LINE#         1992
  C:240CH         LINE#         1993
  C:240FH         LINE#         1994
  C:240FH         LINE#         1995
  C:2411H         LINE#         1996
  C:2411H         LINE#         1997
  C:241BH         LINE#         1998
  C:241BH         LINE#         1999
  C:2423H         LINE#         2000
  C:2423H         LINE#         2001
  C:2423H         LINE#         2002
  C:2425H         LINE#         2003
  C:242BH         LINE#         2004
  C:242BH         LINE#         2005
  C:2434H         LINE#         2006
  C:2448H         LINE#         2007
  C:2448H         LINE#         2008
  C:244AH         LINE#         2010
  C:244AH         LINE#         2014
  C:245DH         LINE#         2015
  C:245DH         LINE#         2016
BL51 BANKED LINKER/LOCATER V6.22.2.0                                                  09/02/2020  07:28:03  PAGE 110


  C:2463H         LINE#         2017
  C:2464H         LINE#         2018
  C:247CH         LINE#         2019
  C:247CH         LINE#         2020
  C:247CH         LINE#         2021
  C:247CH         LINE#         2023
  C:247CH         LINE#         2024
  C:247EH         LINE#         2026
  C:247EH         LINE#         2027
  C:248CH         LINE#         2028
  C:248CH         LINE#         2029
  C:248DH         LINE#         2030
  C:248DH         LINE#         2031
  C:2490H         LINE#         2032
  C:2496H         LINE#         2033
  C:2497H         LINE#         2034
  C:2497H         LINE#         2035
  C:249AH         LINE#         2036
  C:24A0H         LINE#         2037
  C:24A1H         LINE#         2038
  C:24A1H         LINE#         2039
  C:24A4H         LINE#         2040
  C:24AAH         LINE#         2041
  C:24ABH         LINE#         2042
  C:24ABH         LINE#         2043
  C:24AEH         LINE#         2044
  C:24B4H         LINE#         2045
  C:24B5H         LINE#         2050
  C:24B5H         LINE#         2051
  C:24BAH         LINE#         2052
  C:24BAH         LINE#         2053
  C:24BCH         LINE#         2056
  C:24BCH         LINE#         2057
  C:24C6H         LINE#         2058
  C:24C6H         LINE#         2059
  C:24CBH         LINE#         2060
  C:24CBH         LINE#         2061
  C:24D1H         LINE#         2062
  C:24D2H         LINE#         2063
  C:24D2H         LINE#         2064
  C:24D4H         LINE#         2066
  C:24D4H         LINE#         2067
  C:24DAH         LINE#         2068
  C:24DAH         LINE#         2070
  C:24DBH         LINE#         2072
  C:24DBH         LINE#         2073
  C:24E0H         LINE#         2074
  C:24E6H         LINE#         2076
  C:24E6H         LINE#         2077
  C:24F0H         LINE#         2078
  C:24F0H         LINE#         2079
  C:24F5H         LINE#         2080
  C:24F5H         LINE#         2081
  C:24FBH         LINE#         2082
  C:24FCH         LINE#         2083
  C:24FCH         LINE#         2084
  C:24FEH         LINE#         2086
BL51 BANKED LINKER/LOCATER V6.22.2.0                                                  09/02/2020  07:28:03  PAGE 111


  C:24FEH         LINE#         2087
  C:24FEH         LINE#         2088
  C:24FEH         LINE#         2090
  C:2500H         LINE#         2096
  C:2500H         LINE#         2097
  C:2505H         LINE#         2098
  C:2505H         LINE#         2100
  C:2505H         LINE#         2101
  -------         ENDPROC       SECUENCIAEXPEDIDOR
  -------         ENDMOD        VERIFICADOR

  -------         MODULE        LINTECH
  C:0000H         SYMBOL        _ICE_DUMMY_
  C:87C9H         PUBLIC        _Inicializa
  C:7E1FH         PUBLIC        _RD_MF
  C:848DH         PUBLIC        Dwload_EEprom
  C:8B57H         PUBLIC        _Card_Insercion
  C:7905H         PUBLIC        _Mov_Card
  C:5998H         PUBLIC        _WR_MF
  C:8BE8H         PUBLIC        LoadVerify_EEprom
  C:8FC4H         PUBLIC        Unique_Identifier_UID
  C:9356H         PUBLIC        Power_off
  C:93D6H         PUBLIC        _Check_Status
  C:92D6H         PUBLIC        Aut_Card_check_Status
  -------         PROC          _INICIALIZA
  X:0002H         SYMBOL        TipoMovimiento
  -------         DO            
  D:0003H         SYMBOL        j
  X:0003H         SYMBOL        bcc
  X:0004H         SYMBOL        g_scArrTxComSoft
  -------         ENDDO         
  C:87C9H         LINE#         133
  C:87CEH         LINE#         134
  C:87CEH         LINE#         137
  C:87D1H         LINE#         138
  C:87E7H         LINE#         139
  C:87E7H         LINE#         141
  C:87F0H         LINE#         143
  C:87F6H         LINE#         144
  C:87F9H         LINE#         145
  C:87FBH         LINE#         146
  C:87FFH         LINE#         147
  C:8803H         LINE#         148
  C:8807H         LINE#         149
  C:880FH         LINE#         150
  C:8813H         LINE#         151
  C:881FH         LINE#         152
  C:881FH         LINE#         153
  C:8833H         LINE#         154
  C:8836H         LINE#         155
  C:883EH         LINE#         156
  C:8840H         LINE#         157
  C:8845H         LINE#         158
  C:8854H         LINE#         159
  C:885FH         LINE#         160
  C:8865H         LINE#         161
  C:8865H         LINE#         162
BL51 BANKED LINKER/LOCATER V6.22.2.0                                                  09/02/2020  07:28:03  PAGE 112


  -------         ENDPROC       _INICIALIZA
  -------         PROC          _CHECK_STATUS
  X:000EH         SYMBOL        Detalle
  -------         DO            
  D:0006H         SYMBOL        j
  D:0007H         SYMBOL        bcc
  X:000FH         SYMBOL        g_scArrTxComSoft
  -------         ENDDO         
  C:93D6H         LINE#         171
  C:93DBH         LINE#         172
  C:93DBH         LINE#         175
  C:93E4H         LINE#         177
  C:93E6H         LINE#         179
  C:93ECH         LINE#         180
  C:93EFH         LINE#         181
  C:93F1H         LINE#         182
  C:93F5H         LINE#         183
  C:93F9H         LINE#         184
  C:93FDH         LINE#         185
  C:9405H         LINE#         186
  C:9409H         LINE#         187
  C:9415H         LINE#         188
  C:9415H         LINE#         189
  C:9422H         LINE#         190
  C:9425H         LINE#         191
  C:942AH         LINE#         192
  C:942CH         LINE#         193
  C:9431H         LINE#         194
  C:9440H         LINE#         195
  C:944BH         LINE#         196
  C:9451H         LINE#         197
  -------         ENDPROC       _CHECK_STATUS
  -------         PROC          _CARD_INSERCION
  D:0007H         SYMBOL        Tipo
  -------         DO            
  D:0006H         SYMBOL        j
  D:0007H         SYMBOL        bcc
  X:000EH         SYMBOL        g_scArrTxComSoft
  -------         ENDDO         
  C:8B57H         LINE#         205
  C:8B57H         LINE#         206
  C:8B57H         LINE#         209
  C:8B64H         LINE#         210
  C:8B64H         LINE#         211
  C:8B6BH         LINE#         212
  C:8B71H         LINE#         213
  C:8B73H         LINE#         215
  C:8B73H         LINE#         217
  C:8B7AH         LINE#         218
  C:8B80H         LINE#         220
  C:8B80H         LINE#         222
  C:8B82H         LINE#         224
  C:8B88H         LINE#         225
  C:8B8BH         LINE#         226
  C:8B8DH         LINE#         227
  C:8B91H         LINE#         228
  C:8B95H         LINE#         229
BL51 BANKED LINKER/LOCATER V6.22.2.0                                                  09/02/2020  07:28:03  PAGE 113


  C:8B99H         LINE#         231
  C:8B9FH         LINE#         232
  C:8BABH         LINE#         233
  C:8BABH         LINE#         234
  C:8BB8H         LINE#         235
  C:8BBBH         LINE#         237
  C:8BC0H         LINE#         239
  C:8BC2H         LINE#         240
  C:8BC7H         LINE#         241
  C:8BD6H         LINE#         242
  C:8BE1H         LINE#         243
  C:8BE7H         LINE#         244
  -------         ENDPROC       _CARD_INSERCION
  -------         PROC          _MOV_CARD
  X:000EH         SYMBOL        Posicion
  -------         DO            
  D:0003H         SYMBOL        j
  X:000FH         SYMBOL        bcc
  X:0010H         SYMBOL        g_scArrTxComSoft
  -------         ENDDO         
  C:7905H         LINE#         255
  C:790AH         LINE#         256
  C:790AH         LINE#         259
  C:790DH         LINE#         261
  C:792DH         LINE#         262
  C:792DH         LINE#         263
  C:7934H         LINE#         264
  C:7934H         LINE#         265
  C:793AH         LINE#         266
  C:793CH         LINE#         267
  C:7943H         LINE#         268
  C:7943H         LINE#         269
  C:7949H         LINE#         270
  C:794BH         LINE#         271
  C:7952H         LINE#         272
  C:7952H         LINE#         273
  C:7958H         LINE#         274
  C:795AH         LINE#         275
  C:7961H         LINE#         276
  C:7961H         LINE#         277
  C:7967H         LINE#         278
  C:7969H         LINE#         279
  C:7970H         LINE#         280
  C:7970H         LINE#         281
  C:7979H         LINE#         282
  C:7979H         LINE#         284
  C:797FH         LINE#         285
  C:7982H         LINE#         286
  C:7984H         LINE#         287
  C:7988H         LINE#         288
  C:798CH         LINE#         289
  C:7990H         LINE#         290
  C:7998H         LINE#         291
  C:799CH         LINE#         292
  C:79A8H         LINE#         293
  C:79A8H         LINE#         294
  C:79BCH         LINE#         295
BL51 BANKED LINKER/LOCATER V6.22.2.0                                                  09/02/2020  07:28:03  PAGE 114


  C:79BFH         LINE#         296
  C:79C7H         LINE#         297
  C:79C9H         LINE#         298
  C:79CEH         LINE#         299
  C:79DDH         LINE#         300
  C:79E8H         LINE#         301
  C:79EEH         LINE#         302
  C:79EEH         LINE#         304
  -------         ENDPROC       _MOV_CARD
  -------         PROC          AUT_CARD_CHECK_STATUS
  -------         DO            
  D:0003H         SYMBOL        j
  X:000EH         SYMBOL        bcc
  X:000FH         SYMBOL        g_scArrTxComSoft
  -------         ENDDO         
  C:92D6H         LINE#         310
  C:92D6H         LINE#         311
  C:92D6H         LINE#         314
  C:92DBH         LINE#         316
  C:92E4H         LINE#         318
  C:92EAH         LINE#         319
  C:92EDH         LINE#         320
  C:92EFH         LINE#         321
  C:92F3H         LINE#         322
  C:92F7H         LINE#         323
  C:92FBH         LINE#         324
  C:92FFH         LINE#         325
  C:9303H         LINE#         326
  C:930FH         LINE#         327
  C:930FH         LINE#         328
  C:9323H         LINE#         329
  C:9326H         LINE#         330
  C:932EH         LINE#         331
  C:9330H         LINE#         332
  C:9335H         LINE#         333
  C:9344H         LINE#         334
  C:934FH         LINE#         335
  C:9355H         LINE#         336
  -------         ENDPROC       AUT_CARD_CHECK_STATUS
  -------         PROC          DWLOAD_EEPROM
  -------         DO            
  D:0003H         SYMBOL        j
  X:0002H         SYMBOL        bcc
  X:0003H         SYMBOL        g_scArrTxComSoft
  -------         ENDDO         
  C:848DH         LINE#         342
  C:848DH         LINE#         343
  C:848DH         LINE#         346
  C:8492H         LINE#         347
  C:849BH         LINE#         349
  C:84A1H         LINE#         350
  C:84A4H         LINE#         351
  C:84A6H         LINE#         352
  C:84AAH         LINE#         353
  C:84AEH         LINE#         354
  C:84B2H         LINE#         355
  C:84B6H         LINE#         356
BL51 BANKED LINKER/LOCATER V6.22.2.0                                                  09/02/2020  07:28:03  PAGE 115


  C:84B9H         LINE#         357
  C:84BDH         LINE#         358
  C:84C0H         LINE#         359
  C:84C3H         LINE#         360
  C:84C7H         LINE#         361
  C:84CBH         LINE#         362
  C:84CFH         LINE#         363
  C:84D3H         LINE#         364
  C:84D7H         LINE#         365
  C:84DBH         LINE#         366
  C:84DFH         LINE#         367
  C:84E3H         LINE#         369
  C:84EFH         LINE#         370
  C:84EFH         LINE#         371
  C:8503H         LINE#         372
  C:8506H         LINE#         373
  C:850EH         LINE#         374
  C:8510H         LINE#         375
  C:8515H         LINE#         376
  C:8524H         LINE#         377
  C:852FH         LINE#         378
  C:8535H         LINE#         379
  -------         ENDPROC       DWLOAD_EEPROM
  -------         PROC          LOADVERIFY_EEPROM
  -------         DO            
  D:0003H         SYMBOL        j
  X:000EH         SYMBOL        bcc
  X:000FH         SYMBOL        g_scArrTxComSoft
  -------         ENDDO         
  C:8BE8H         LINE#         385
  C:8BE8H         LINE#         386
  C:8BE8H         LINE#         389
  C:8BEDH         LINE#         390
  C:8BF6H         LINE#         393
  C:8BFCH         LINE#         394
  C:8BFFH         LINE#         395
  C:8C01H         LINE#         396
  C:8C05H         LINE#         397
  C:8C09H         LINE#         398
  C:8C0DH         LINE#         399
  C:8C11H         LINE#         400
  C:8C14H         LINE#         401
  C:8C18H         LINE#         402
  C:8C1BH         LINE#         403
  C:8C1EH         LINE#         404
  C:8C22H         LINE#         405
  C:8C26H         LINE#         409
  C:8C32H         LINE#         410
  C:8C32H         LINE#         411
  C:8C46H         LINE#         412
  C:8C49H         LINE#         413
  C:8C51H         LINE#         414
  C:8C53H         LINE#         415
  C:8C58H         LINE#         416
  C:8C67H         LINE#         417
  C:8C72H         LINE#         418
  C:8C78H         LINE#         420
BL51 BANKED LINKER/LOCATER V6.22.2.0                                                  09/02/2020  07:28:03  PAGE 116


  -------         ENDPROC       LOADVERIFY_EEPROM
  -------         PROC          _RD_MF
  X:000EH         SYMBOL        Sector
  X:000FH         SYMBOL        Bloque
  -------         DO            
  D:0003H         SYMBOL        j
  X:0010H         SYMBOL        bcc
  X:0011H         SYMBOL        g_scArrTxComSoft
  -------         ENDDO         
  C:7E1FH         LINE#         426
  C:7E27H         LINE#         427
  C:7E27H         LINE#         431
  C:7E2AH         LINE#         433
  C:7E33H         LINE#         434
  C:7E3BH         LINE#         436
  C:7E44H         LINE#         437
  C:7E4CH         LINE#         438
  C:7E55H         LINE#         441
  C:7E5BH         LINE#         442
  C:7E5EH         LINE#         443
  C:7E60H         LINE#         444
  C:7E64H         LINE#         445
  C:7E68H         LINE#         446
  C:7E6CH         LINE#         447
  C:7E70H         LINE#         448
  C:7E73H         LINE#         449
  C:7E77H         LINE#         450
  C:7E7FH         LINE#         451
  C:7E87H         LINE#         452
  C:7E8BH         LINE#         453
  C:7E8FH         LINE#         455
  C:7E9BH         LINE#         456
  C:7E9BH         LINE#         457
  C:7EAFH         LINE#         458
  C:7EB2H         LINE#         459
  C:7EBAH         LINE#         462
  C:7EBCH         LINE#         463
  C:7EC1H         LINE#         464
  C:7ED0H         LINE#         465
  C:7EDBH         LINE#         466
  C:7EE1H         LINE#         468
  -------         ENDPROC       _RD_MF
  -------         PROC          _WR_MF
  X:000EH         SYMBOL        Sector
  X:000FH         SYMBOL        Bloque
  X:0010H         SYMBOL        buffer
  -------         DO            
  X:0013H         SYMBOL        j
  X:0014H         SYMBOL        bcc
  X:0015H         SYMBOL        g_scArrTxComSoft
  -------         ENDDO         
  C:5998H         LINE#         475
  C:59A9H         LINE#         477
  C:59A9H         LINE#         480
  C:59AEH         LINE#         482
  C:59B7H         LINE#         483
  C:59BFH         LINE#         485
BL51 BANKED LINKER/LOCATER V6.22.2.0                                                  09/02/2020  07:28:03  PAGE 117


  C:59C8H         LINE#         486
  C:59D0H         LINE#         487
  C:59D9H         LINE#         489
  C:59DFH         LINE#         490
  C:59E2H         LINE#         491
  C:59E4H         LINE#         492
  C:59E8H         LINE#         494
  C:59ECH         LINE#         495
  C:59F0H         LINE#         496
  C:59F4H         LINE#         497
  C:59F7H         LINE#         498
  C:59FBH         LINE#         499
  C:5A04H         LINE#         500
  C:5A0CH         LINE#         501
  C:5A10H         LINE#         503
  C:5A18H         LINE#         504
  C:5A18H         LINE#         509
  C:5A1BH         LINE#         510
  C:5A1DH         LINE#         511
  C:5A1FH         LINE#         512
  C:5A21H         LINE#         513
  C:5A23H         LINE#         518
  C:5A25H         LINE#         519
  C:5A27H         LINE#         520
  C:5A29H         LINE#         525
  C:5A3EH         LINE#         526
  C:5A3EH         LINE#         527
  C:5A3FH         LINE#         528
  C:5A41H         LINE#         530
  C:5A41H         LINE#         531
  C:5A56H         LINE#         532
  C:5A56H         LINE#         536
  C:5A60H         LINE#         541
  C:5A75H         LINE#         542
  C:5A75H         LINE#         543
  C:5A7BH         LINE#         544
  C:5A7DH         LINE#         546
  C:5A7DH         LINE#         547
  C:5A87H         LINE#         548
  C:5A87H         LINE#         553
  C:5A8CH         LINE#         554
  C:5A8EH         LINE#         555
  C:5A90H         LINE#         556
  C:5A92H         LINE#         557
  C:5A94H         LINE#         559
  C:5A96H         LINE#         561
  C:5A96H         LINE#         562
  C:5AAAH         LINE#         563
  C:5AAAH         LINE#         564
  C:5AB6H         LINE#         565
  C:5ABEH         LINE#         566
  C:5ABEH         LINE#         571
  C:5AC4H         LINE#         573
  C:5AD7H         LINE#         574
  C:5AD7H         LINE#         575
  C:5AECH         LINE#         576
  C:5AF4H         LINE#         577
BL51 BANKED LINKER/LOCATER V6.22.2.0                                                  09/02/2020  07:28:03  PAGE 118


  C:5AFCH         LINE#         580
  C:5AFEH         LINE#         581
  C:5B03H         LINE#         582
  C:5B12H         LINE#         583
  C:5B1DH         LINE#         584
  C:5B23H         LINE#         586
  -------         ENDPROC       _WR_MF
  -------         PROC          UNIQUE_IDENTIFIER_UID
  -------         DO            
  D:0003H         SYMBOL        j
  X:000EH         SYMBOL        bcc
  X:000FH         SYMBOL        g_scArrTxComSoft
  -------         ENDDO         
  C:8FC4H         LINE#         591
  C:8FC4H         LINE#         592
  C:8FC4H         LINE#         595
  C:8FC9H         LINE#         597
  C:8FD2H         LINE#         599
  C:8FD8H         LINE#         600
  C:8FDBH         LINE#         601
  C:8FDDH         LINE#         602
  C:8FE1H         LINE#         603
  C:8FE5H         LINE#         604
  C:8FE9H         LINE#         605
  C:8FEDH         LINE#         606
  C:8FF1H         LINE#         607
  C:8FF5H         LINE#         608
  C:8FF9H         LINE#         609
  C:9005H         LINE#         610
  C:9005H         LINE#         611
  C:9019H         LINE#         612
  C:901CH         LINE#         613
  C:9024H         LINE#         614
  C:9026H         LINE#         615
  C:902BH         LINE#         616
  C:903AH         LINE#         617
  C:9045H         LINE#         618
  C:904BH         LINE#         619
  -------         ENDPROC       UNIQUE_IDENTIFIER_UID
  -------         PROC          POWER_OFF
  -------         DO            
  D:0003H         SYMBOL        j
  X:000EH         SYMBOL        bcc
  X:000FH         SYMBOL        g_scArrTxComSoft
  -------         ENDDO         
  C:9356H         LINE#         620
  C:9356H         LINE#         621
  C:9356H         LINE#         624
  C:935BH         LINE#         626
  C:9364H         LINE#         628
  C:936AH         LINE#         629
  C:936DH         LINE#         630
  C:936FH         LINE#         631
  C:9373H         LINE#         632
  C:9377H         LINE#         633
  C:937BH         LINE#         634
  C:937FH         LINE#         635
BL51 BANKED LINKER/LOCATER V6.22.2.0                                                  09/02/2020  07:28:03  PAGE 119


  C:9383H         LINE#         636
  C:938FH         LINE#         637
  C:938FH         LINE#         638
  C:93A3H         LINE#         639
  C:93A6H         LINE#         640
  C:93AEH         LINE#         641
  C:93B0H         LINE#         642
  C:93B5H         LINE#         643
  C:93C4H         LINE#         644
  C:93CFH         LINE#         645
  C:93D5H         LINE#         648
  -------         ENDPROC       POWER_OFF
  -------         ENDMOD        LINTECH

  -------         MODULE        ?C?FPADD
  C:0F2FH         PUBLIC        ?C?FPADD
  C:0F2BH         PUBLIC        ?C?FPSUB
  -------         ENDMOD        ?C?FPADD

  -------         MODULE        ?C?FPMUL
  C:1020H         PUBLIC        ?C?FPMUL
  -------         ENDMOD        ?C?FPMUL

  -------         MODULE        ?C?FCAST
  C:1130H         PUBLIC        ?C?FCASTC
  C:112BH         PUBLIC        ?C?FCASTI
  C:1126H         PUBLIC        ?C?FCASTL
  -------         ENDMOD        ?C?FCAST

  -------         MODULE        ?C?CASTF
  C:1164H         PUBLIC        ?C?CASTF
  -------         ENDMOD        ?C?CASTF

  -------         MODULE        PRINTF
  X:008BH         PUBLIC        ?_PRINTF?BYTE
  X:008BH         PUBLIC        ?_SPRINTF?BYTE
  C:310DH         PUBLIC        _PRINTF
  C:3107H         PUBLIC        _SPRINTF
  -------         ENDMOD        PRINTF

  -------         MODULE        POW
  X:0054H         PUBLIC        ?_pow?BYTE
  C:5E0BH         PUBLIC        _pow
  -------         ENDMOD        POW

  -------         MODULE        ?C?CHKFLOAT
  C:11E5H         PUBLIC        ?C?CHKFLOAT
  -------         ENDMOD        ?C?CHKFLOAT

  -------         MODULE        ?C?FPCMP
  C:1201H         PUBLIC        ?C?FPCMP
  C:11FFH         PUBLIC        ?C?FPCMP3
  -------         ENDMOD        ?C?FPCMP

  -------         MODULE        ?C?FPNEG
  C:1278H         PUBLIC        ?C?FPNEG
  -------         ENDMOD        ?C?FPNEG
BL51 BANKED LINKER/LOCATER V6.22.2.0                                                  09/02/2020  07:28:03  PAGE 120



  -------         MODULE        ?C?FPROUND
  C:1289H         PUBLIC        ?C?FPROUND
  -------         ENDMOD        ?C?FPROUND

  -------         MODULE        ?C?FPCONVERT
  C:12C6H         PUBLIC        ?C?FPCONVERT
  -------         ENDMOD        ?C?FPCONVERT

  -------         MODULE        EXP
  C:893AH         PUBLIC        _EXP
  -------         ENDMOD        EXP

  -------         MODULE        LOG
  C:68A8H         PUBLIC        _LOG
  C:68A4H         PUBLIC        _LOG10
  -------         ENDMOD        LOG

  -------         MODULE        ?C?FPDIV
  C:13CEH         PUBLIC        ?C?FPDIV
  -------         ENDMOD        ?C?FPDIV

  -------         MODULE        ?C?FTNPWR
  C:149BH         PUBLIC        ?C?FTNPWR
  -------         ENDMOD        ?C?FTNPWR

  -------         MODULE        ?C?COPY
  C:15F8H         PUBLIC        ?C?COPY
  -------         ENDMOD        ?C?COPY

  -------         MODULE        ?C?CLDPTR
  C:161EH         PUBLIC        ?C?CLDPTR
  -------         ENDMOD        ?C?CLDPTR

  -------         MODULE        ?C?CLDOPTR
  C:1637H         PUBLIC        ?C?CLDOPTR
  -------         ENDMOD        ?C?CLDOPTR

  -------         MODULE        ?C?CSTPTR
  C:1664H         PUBLIC        ?C?CSTPTR
  -------         ENDMOD        ?C?CSTPTR

  -------         MODULE        ?C?CSTOPTR
  C:1676H         PUBLIC        ?C?CSTOPTR
  -------         ENDMOD        ?C?CSTOPTR

  -------         MODULE        ?C?IMUL
  C:1698H         PUBLIC        ?C?IMUL
  -------         ENDMOD        ?C?IMUL

  -------         MODULE        ?C?UIDIV
  C:16AAH         PUBLIC        ?C?UIDIV
  -------         ENDMOD        ?C?UIDIV

  -------         MODULE        ?C?IILDX
  C:16FFH         PUBLIC        ?C?IILDX
  -------         ENDMOD        ?C?IILDX
BL51 BANKED LINKER/LOCATER V6.22.2.0                                                  09/02/2020  07:28:03  PAGE 121



  -------         MODULE        ?C?LNEG
  C:1715H         PUBLIC        ?C?LNEG
  -------         ENDMOD        ?C?LNEG

  -------         MODULE        ?C?ULCMP
  C:1723H         PUBLIC        ?C?ULCMP
  -------         ENDMOD        ?C?ULCMP

  -------         MODULE        ?C?LLDCODE
  C:1734H         PUBLIC        ?C?LLDCODE
  -------         ENDMOD        ?C?LLDCODE

  -------         MODULE        ?C?LLDXDATA0
  C:1744H         PUBLIC        ?C?LLDXDATA0
  -------         ENDMOD        ?C?LLDXDATA0

  -------         MODULE        ?C?LLDCODE0
  C:1750H         PUBLIC        ?C?LLDCODE0
  -------         ENDMOD        ?C?LLDCODE0

  -------         MODULE        ?C?LSTXDATA
  C:1760H         PUBLIC        ?C?LSTXDATA
  -------         ENDMOD        ?C?LSTXDATA

  -------         MODULE        ?C?LSTKXDATA
  C:176CH         PUBLIC        ?C?LSTKXDATA
  -------         ENDMOD        ?C?LSTKXDATA

  -------         MODULE        ?C?PLDIXDATA
  C:179DH         PUBLIC        ?C?PLDIXDATA
  -------         ENDMOD        ?C?PLDIXDATA

  -------         MODULE        ?C?PSTXDATA
  C:17B4H         PUBLIC        ?C?PSTXDATA
  -------         ENDMOD        ?C?PSTXDATA

  -------         MODULE        ?C?CCASE
  C:17BDH         PUBLIC        ?C?CCASE
  -------         ENDMOD        ?C?CCASE

  -------         MODULE        STRCAT
  X:005AH         PUBLIC        ?_strcat?BYTE
  C:968DH         PUBLIC        _strcat
  -------         ENDMOD        STRCAT

  -------         MODULE        ?C?STRCMP
  C:1961H         PUBLIC        ?C?STRCMP
  -------         ENDMOD        ?C?STRCMP

  -------         MODULE        ?C?STRCPY
  C:1A4AH         PUBLIC        ?C?STRCPY
  -------         ENDMOD        ?C?STRCPY

  -------         MODULE        STRLEN
  C:000EH         PUBLIC        _STRLEN
  -------         ENDMOD        STRLEN
BL51 BANKED LINKER/LOCATER V6.22.2.0                                                  09/02/2020  07:28:03  PAGE 122



  -------         MODULE        STRTOK
  X:0078H         PUBLIC        ?_strtok?BYTE
  C:79EFH         PUBLIC        _strtok
  -------         ENDMOD        STRTOK

  -------         MODULE        ATOI
  C:7AD3H         PUBLIC        _atoi
  -------         ENDMOD        ATOI

  -------         MODULE        ?C?ILDIX
  C:1A67H         PUBLIC        ?C?ILDIX
  -------         ENDMOD        ?C?ILDIX

  -------         MODULE        ISDIGIT
  C:A232H         PUBLIC        _isdigit
  -------         ENDMOD        ISDIGIT

  -------         MODULE        ISSPACE
  C:A192H         PUBLIC        _isspace
  -------         ENDMOD        ISSPACE

  -------         MODULE        STRSPN
  X:007EH         PUBLIC        ?_strspn?BYTE
  C:90D1H         PUBLIC        _strspn
  -------         ENDMOD        STRSPN

  -------         MODULE        STRPBRK
  X:007EH         PUBLIC        ?_strpbrk?BYTE
  C:9155H         PUBLIC        _strpbrk
  -------         ENDMOD        STRPBRK

*** WARNING L16: UNCALLED SEGMENT, IGNORED FOR OVERLAY PROCESS
    SEGMENT: ?PR?_VALIDA_TRAMA_MONITOR?ACCESCAN

*** WARNING L16: UNCALLED SEGMENT, IGNORED FOR OVERLAY PROCESS
    SEGMENT: ?PR?CLEAR_PLACA?ACCESCAN

Program Size: data=128.7 xdata=521 code=41651
LINK/LOCATE RUN COMPLETE.  2 WARNING(S),  0 ERROR(S)
